Archive member included because of file (symbol)

c:/program files (x86)/raisonance/ride/arm-gcc/bin/../lib/gcc/arm-none-eabi/4.5.1/thumb2\libgcc.a(_aeabi_ldivmod.o)
                              C:\Users\MightyDubster\Documents\Projects\pygmyos.projects\boot\pygmy_string.o (__aeabi_ldivmod)
c:/program files (x86)/raisonance/ride/arm-gcc/bin/../lib/gcc/arm-none-eabi/4.5.1/thumb2\libgcc.a(bpabi.o)
                              c:/program files (x86)/raisonance/ride/arm-gcc/bin/../lib/gcc/arm-none-eabi/4.5.1/thumb2\libgcc.a(_aeabi_ldivmod.o) (__gnu_ldivmod_helper)
c:/program files (x86)/raisonance/ride/arm-gcc/bin/../lib/gcc/arm-none-eabi/4.5.1/thumb2\libgcc.a(_dvmd_tls.o)
                              c:/program files (x86)/raisonance/ride/arm-gcc/bin/../lib/gcc/arm-none-eabi/4.5.1/thumb2\libgcc.a(_aeabi_ldivmod.o) (__aeabi_ldiv0)
c:/program files (x86)/raisonance/ride/arm-gcc/bin/../lib/gcc/arm-none-eabi/4.5.1/thumb2\libgcc.a(_divdi3.o)
                              c:/program files (x86)/raisonance/ride/arm-gcc/bin/../lib/gcc/arm-none-eabi/4.5.1/thumb2\libgcc.a(bpabi.o) (__divdi3)
c:/program files (x86)/raisonance/ride/arm-gcc/bin/../lib/gcc/arm-none-eabi/4.5.1/thumb2\libgcc.a(_udivdi3.o)
                              c:/program files (x86)/raisonance/ride/arm-gcc/bin/../lib/gcc/arm-none-eabi/4.5.1/thumb2\libgcc.a(bpabi.o) (__udivdi3)
c:/program files (x86)/raisonance/ride/arm-gcc/bin/../lib/gcc/arm-none-eabi/4.5.1/thumb2\libgcc.a(_udivsi3.o)
                              c:/program files (x86)/raisonance/ride/arm-gcc/bin/../lib/gcc/arm-none-eabi/4.5.1/thumb2\libgcc.a(_divdi3.o) (__aeabi_uidiv)

Allocating common symbols
Common symbol       size              file

globalXMTimeout     0x4               C:\Users\MightyDubster\Documents\Projects\pygmyos.projects\boot\main.o
globalID            0x4               C:\Users\MightyDubster\Documents\Projects\pygmyos.projects\boot\main.o
globalFileLen       0x4               C:\Users\MightyDubster\Documents\Projects\pygmyos.projects\boot\main.o
globalBootTimeout   0x4               C:\Users\MightyDubster\Documents\Projects\pygmyos.projects\boot\main.o
globalXTAL          0x4               C:\Users\MightyDubster\Documents\Projects\pygmyos.projects\boot\main.o
pygmyFile           0x28              C:\Users\MightyDubster\Documents\Projects\pygmyos.projects\boot\main.o
globalFreq          0x4               C:\Users\MightyDubster\Documents\Projects\pygmyos.projects\boot\main.o
pygmyRootVolume     0x44              C:\Users\MightyDubster\Documents\Projects\pygmyos.projects\boot\pygmy_file.o
globalStrID         0x4               C:\Users\MightyDubster\Documents\Projects\pygmyos.projects\boot\main.o
globalTransaction   0x4               C:\Users\MightyDubster\Documents\Projects\pygmyos.projects\boot\main.o
globalPLL           0x4               C:\Users\MightyDubster\Documents\Projects\pygmyos.projects\boot\main.o
pygmyFlashSPI       0x18              C:\Users\MightyDubster\Documents\Projects\pygmyos.projects\boot\pygmy_file.o
globalBaseAddress   0x4               C:\Users\MightyDubster\Documents\Projects\pygmyos.projects\boot\main.o
globalXMCount       0x4               C:\Users\MightyDubster\Documents\Projects\pygmyos.projects\boot\main.o

Discarded input sections

 .text          0x00000000       0x14 C:\Program Files (x86)\Raisonance\Ride\lib\ARM\startup_stm32f10x_hd.o
 .data          0x00000000        0x0 C:\Program Files (x86)\Raisonance\Ride\lib\ARM\startup_stm32f10x_hd.o
 .bss           0x00000000        0x0 C:\Program Files (x86)\Raisonance\Ride\lib\ARM\startup_stm32f10x_hd.o
 .text          0x00000000        0x0 C:\Users\MightyDubster\Documents\Projects\pygmyos.projects\boot\main.o
 .data          0x00000000        0x0 C:\Users\MightyDubster\Documents\Projects\pygmyos.projects\boot\main.o
 .text          0x00000000        0x0 C:\Users\MightyDubster\Documents\Projects\pygmyos.projects\boot\pygmy_file.o
 .data          0x00000000        0x0 C:\Users\MightyDubster\Documents\Projects\pygmyos.projects\boot\pygmy_file.o
 .bss           0x00000000        0x0 C:\Users\MightyDubster\Documents\Projects\pygmyos.projects\boot\pygmy_file.o
 .text.fileOpenResource
                0x00000000       0x28 C:\Users\MightyDubster\Documents\Projects\pygmyos.projects\boot\pygmy_file.o
 .text.fileGetPosition
                0x00000000        0x4 C:\Users\MightyDubster\Documents\Projects\pygmyos.projects\boot\pygmy_file.o
 .text.fileSetPosition
                0x00000000       0x3e C:\Users\MightyDubster\Documents\Projects\pygmyos.projects\boot\pygmy_file.o
 .text.fileIsEOF
                0x00000000        0x8 C:\Users\MightyDubster\Documents\Projects\pygmyos.projects\boot\pygmy_file.o
 .text.fileGetMaxFiles
                0x00000000        0xc C:\Users\MightyDubster\Documents\Projects\pygmyos.projects\boot\pygmy_file.o
 .text.spiWriteWord
                0x00000000       0x30 C:\Users\MightyDubster\Documents\Projects\pygmyos.projects\boot\pygmy_file.o
 .text.fileGetLong
                0x00000000       0x5a C:\Users\MightyDubster\Documents\Projects\pygmyos.projects\boot\pygmy_file.o
 .text.fileGetWord
                0x00000000       0x32 C:\Users\MightyDubster\Documents\Projects\pygmyos.projects\boot\pygmy_file.o
 .text.fileGetBuffer
                0x00000000       0x20 C:\Users\MightyDubster\Documents\Projects\pygmyos.projects\boot\pygmy_file.o
 .text.fileGetVolumeName
                0x00000000       0x24 C:\Users\MightyDubster\Documents\Projects\pygmyos.projects\boot\pygmy_file.o
 .text.flashReadBuffer
                0x00000000       0x40 C:\Users\MightyDubster\Documents\Projects\pygmyos.projects\boot\pygmy_file.o
 .text.flashWriteString
                0x00000000       0x24 C:\Users\MightyDubster\Documents\Projects\pygmyos.projects\boot\pygmy_file.o
 .text.fileAllocateContiguousFATEntries
                0x00000000       0x58 C:\Users\MightyDubster\Documents\Projects\pygmyos.projects\boot\pygmy_file.o
 .text.filePreAllocate
                0x00000000       0x60 C:\Users\MightyDubster\Documents\Projects\pygmyos.projects\boot\pygmy_file.o
 .text.filePutLong
                0x00000000       0x50 C:\Users\MightyDubster\Documents\Projects\pygmyos.projects\boot\pygmy_file.o
 .text.filePutWord
                0x00000000       0x2c C:\Users\MightyDubster\Documents\Projects\pygmyos.projects\boot\pygmy_file.o
 .text.filePutString
                0x00000000       0x1c C:\Users\MightyDubster\Documents\Projects\pygmyos.projects\boot\pygmy_file.o
 .text.fileCopy
                0x00000000       0x98 C:\Users\MightyDubster\Documents\Projects\pygmyos.projects\boot\pygmy_file.o
 .text          0x00000000        0x0 C:\Users\MightyDubster\Documents\Projects\pygmyos.projects\boot\pygmy_string.o
 .data          0x00000000        0x0 C:\Users\MightyDubster\Documents\Projects\pygmyos.projects\boot\pygmy_string.o
 .text.bufferToU16
                0x00000000        0xa C:\Users\MightyDubster\Documents\Projects\pygmyos.projects\boot\pygmy_string.o
 .text.bufferToU32
                0x00000000       0x18 C:\Users\MightyDubster\Documents\Projects\pygmyos.projects\boot\pygmy_string.o
 .text.isNumeric
                0x00000000        0xe C:\Users\MightyDubster\Documents\Projects\pygmyos.projects\boot\pygmy_string.o
 .text.isAlphaOrNumeric
                0x00000000       0x2a C:\Users\MightyDubster\Documents\Projects\pygmyos.projects\boot\pygmy_string.o
 .text.isHex    0x00000000       0x1c C:\Users\MightyDubster\Documents\Projects\pygmyos.projects\boot\pygmy_string.o
 .text.isBinary
                0x00000000        0xe C:\Users\MightyDubster\Documents\Projects\pygmyos.projects\boot\pygmy_string.o
 .text.isOctal  0x00000000        0xe C:\Users\MightyDubster\Documents\Projects\pygmyos.projects\boot\pygmy_string.o
 .text.isMath   0x00000000       0x14 C:\Users\MightyDubster\Documents\Projects\pygmyos.projects\boot\pygmy_string.o
 .text.replaceChars
                0x00000000       0x2c C:\Users\MightyDubster\Documents\Projects\pygmyos.projects\boot\pygmy_string.o
 .text.convertCharToInt
                0x00000000       0x30 C:\Users\MightyDubster\Documents\Projects\pygmyos.projects\boot\pygmy_string.o
 .text.convertIntToChar
                0x00000000        0x2 C:\Users\MightyDubster\Documents\Projects\pygmyos.projects\boot\pygmy_string.o
 .text.seekChar
                0x00000000        0x4 C:\Users\MightyDubster\Documents\Projects\pygmyos.projects\boot\pygmy_string.o
 .text.seekString
                0x00000000       0x60 C:\Users\MightyDubster\Documents\Projects\pygmyos.projects\boot\pygmy_string.o
 .text.seekStringInBuffer
                0x00000000        0x4 C:\Users\MightyDubster\Documents\Projects\pygmyos.projects\boot\pygmy_string.o
 .text.appendString
                0x00000000       0x1c C:\Users\MightyDubster\Documents\Projects\pygmyos.projects\boot\pygmy_string.o
 .text.convertStringToInt
                0x00000000       0xb4 C:\Users\MightyDubster\Documents\Projects\pygmyos.projects\boot\pygmy_string.o
 .text.convertIntToString
                0x00000000      0x1ac C:\Users\MightyDubster\Documents\Projects\pygmyos.projects\boot\pygmy_string.o
 .text.convertStringToPin
                0x00000000       0xc8 C:\Users\MightyDubster\Documents\Projects\pygmyos.projects\boot\pygmy_string.o
 .text.convertBase64ToCode
                0x00000000       0x46 C:\Users\MightyDubster\Documents\Projects\pygmyos.projects\boot\pygmy_string.o
 .text.convertBase64ToBuffer
                0x00000000       0x7c C:\Users\MightyDubster\Documents\Projects\pygmyos.projects\boot\pygmy_string.o
 .text.convertBase64ToString
                0x00000000       0x74 C:\Users\MightyDubster\Documents\Projects\pygmyos.projects\boot\pygmy_string.o
 .text.convertStringToBase64
                0x00000000       0x88 C:\Users\MightyDubster\Documents\Projects\pygmyos.projects\boot\pygmy_string.o
 .text          0x00000000        0x0 C:\Users\MightyDubster\Documents\Projects\pygmyos.projects\boot\pygmy_fpec.o
 .data          0x00000000        0x0 C:\Users\MightyDubster\Documents\Projects\pygmyos.projects\boot\pygmy_fpec.o
 .text.fpecLock
                0x00000000       0x10 C:\Users\MightyDubster\Documents\Projects\pygmyos.projects\boot\pygmy_fpec.o
 .text          0x00000000       0x38 c:/program files (x86)/raisonance/ride/arm-gcc/bin/../lib/gcc/arm-none-eabi/4.5.1/thumb2\libgcc.a(_aeabi_ldivmod.o)
 .data          0x00000000        0x0 c:/program files (x86)/raisonance/ride/arm-gcc/bin/../lib/gcc/arm-none-eabi/4.5.1/thumb2\libgcc.a(_aeabi_ldivmod.o)
 .bss           0x00000000        0x0 c:/program files (x86)/raisonance/ride/arm-gcc/bin/../lib/gcc/arm-none-eabi/4.5.1/thumb2\libgcc.a(_aeabi_ldivmod.o)
 .ARM.attributes
                0x00000000       0x1b c:/program files (x86)/raisonance/ride/arm-gcc/bin/../lib/gcc/arm-none-eabi/4.5.1/thumb2\libgcc.a(_aeabi_ldivmod.o)
 .text          0x00000000       0x60 c:/program files (x86)/raisonance/ride/arm-gcc/bin/../lib/gcc/arm-none-eabi/4.5.1/thumb2\libgcc.a(bpabi.o)
 .data          0x00000000        0x0 c:/program files (x86)/raisonance/ride/arm-gcc/bin/../lib/gcc/arm-none-eabi/4.5.1/thumb2\libgcc.a(bpabi.o)
 .bss           0x00000000        0x0 c:/program files (x86)/raisonance/ride/arm-gcc/bin/../lib/gcc/arm-none-eabi/4.5.1/thumb2\libgcc.a(bpabi.o)
 .ARM.attributes
                0x00000000       0x29 c:/program files (x86)/raisonance/ride/arm-gcc/bin/../lib/gcc/arm-none-eabi/4.5.1/thumb2\libgcc.a(bpabi.o)
 .debug_frame   0x00000000       0x50 c:/program files (x86)/raisonance/ride/arm-gcc/bin/../lib/gcc/arm-none-eabi/4.5.1/thumb2\libgcc.a(bpabi.o)
 .text          0x00000000        0x4 c:/program files (x86)/raisonance/ride/arm-gcc/bin/../lib/gcc/arm-none-eabi/4.5.1/thumb2\libgcc.a(_dvmd_tls.o)
 .data          0x00000000        0x0 c:/program files (x86)/raisonance/ride/arm-gcc/bin/../lib/gcc/arm-none-eabi/4.5.1/thumb2\libgcc.a(_dvmd_tls.o)
 .bss           0x00000000        0x0 c:/program files (x86)/raisonance/ride/arm-gcc/bin/../lib/gcc/arm-none-eabi/4.5.1/thumb2\libgcc.a(_dvmd_tls.o)
 .ARM.attributes
                0x00000000       0x1b c:/program files (x86)/raisonance/ride/arm-gcc/bin/../lib/gcc/arm-none-eabi/4.5.1/thumb2\libgcc.a(_dvmd_tls.o)
 .text          0x00000000      0x364 c:/program files (x86)/raisonance/ride/arm-gcc/bin/../lib/gcc/arm-none-eabi/4.5.1/thumb2\libgcc.a(_divdi3.o)
 .data          0x00000000        0x0 c:/program files (x86)/raisonance/ride/arm-gcc/bin/../lib/gcc/arm-none-eabi/4.5.1/thumb2\libgcc.a(_divdi3.o)
 .bss           0x00000000        0x0 c:/program files (x86)/raisonance/ride/arm-gcc/bin/../lib/gcc/arm-none-eabi/4.5.1/thumb2\libgcc.a(_divdi3.o)
 .ARM.extab     0x00000000        0x0 c:/program files (x86)/raisonance/ride/arm-gcc/bin/../lib/gcc/arm-none-eabi/4.5.1/thumb2\libgcc.a(_divdi3.o)
 .ARM.exidx     0x00000000        0x8 c:/program files (x86)/raisonance/ride/arm-gcc/bin/../lib/gcc/arm-none-eabi/4.5.1/thumb2\libgcc.a(_divdi3.o)
 .ARM.attributes
                0x00000000       0x29 c:/program files (x86)/raisonance/ride/arm-gcc/bin/../lib/gcc/arm-none-eabi/4.5.1/thumb2\libgcc.a(_divdi3.o)
 .debug_frame   0x00000000       0x3c c:/program files (x86)/raisonance/ride/arm-gcc/bin/../lib/gcc/arm-none-eabi/4.5.1/thumb2\libgcc.a(_divdi3.o)
 .text          0x00000000      0x314 c:/program files (x86)/raisonance/ride/arm-gcc/bin/../lib/gcc/arm-none-eabi/4.5.1/thumb2\libgcc.a(_udivdi3.o)
 .data          0x00000000        0x0 c:/program files (x86)/raisonance/ride/arm-gcc/bin/../lib/gcc/arm-none-eabi/4.5.1/thumb2\libgcc.a(_udivdi3.o)
 .bss           0x00000000        0x0 c:/program files (x86)/raisonance/ride/arm-gcc/bin/../lib/gcc/arm-none-eabi/4.5.1/thumb2\libgcc.a(_udivdi3.o)
 .ARM.extab     0x00000000        0x0 c:/program files (x86)/raisonance/ride/arm-gcc/bin/../lib/gcc/arm-none-eabi/4.5.1/thumb2\libgcc.a(_udivdi3.o)
 .ARM.exidx     0x00000000        0x8 c:/program files (x86)/raisonance/ride/arm-gcc/bin/../lib/gcc/arm-none-eabi/4.5.1/thumb2\libgcc.a(_udivdi3.o)
 .ARM.attributes
                0x00000000       0x29 c:/program files (x86)/raisonance/ride/arm-gcc/bin/../lib/gcc/arm-none-eabi/4.5.1/thumb2\libgcc.a(_udivdi3.o)
 .debug_frame   0x00000000       0x3c c:/program files (x86)/raisonance/ride/arm-gcc/bin/../lib/gcc/arm-none-eabi/4.5.1/thumb2\libgcc.a(_udivdi3.o)
 .text          0x00000000      0x278 c:/program files (x86)/raisonance/ride/arm-gcc/bin/../lib/gcc/arm-none-eabi/4.5.1/thumb2\libgcc.a(_udivsi3.o)
 .data          0x00000000        0x0 c:/program files (x86)/raisonance/ride/arm-gcc/bin/../lib/gcc/arm-none-eabi/4.5.1/thumb2\libgcc.a(_udivsi3.o)
 .bss           0x00000000        0x0 c:/program files (x86)/raisonance/ride/arm-gcc/bin/../lib/gcc/arm-none-eabi/4.5.1/thumb2\libgcc.a(_udivsi3.o)
 .debug_frame   0x00000000       0x20 c:/program files (x86)/raisonance/ride/arm-gcc/bin/../lib/gcc/arm-none-eabi/4.5.1/thumb2\libgcc.a(_udivsi3.o)
 .ARM.attributes
                0x00000000       0x1b c:/program files (x86)/raisonance/ride/arm-gcc/bin/../lib/gcc/arm-none-eabi/4.5.1/thumb2\libgcc.a(_udivsi3.o)

Memory Configuration

Name             Origin             Length             Attributes
RAM              0x20000000         0x00002000         xrw
FLASH            0x08000000         0x00010000         xr
DESC_BOOTFONT    0x08002080         0x00000380         xr
STARTFLASH       0x00000000         0x00000000         xr
CRPPATCH         0x00000000         0x00000000         r
FLASHPATCH       0x00000000         0x00000000         r
ENDFLASH         0x00000000         0x00000000         xr
FLASHB1          0x00000000         0x00000000         xr
EXTMEMB0         0x00000000         0x00000000         xr
EXTMEMB1         0x00000000         0x00000000         xr
EXTMEMB2         0x00000000         0x00000000         xr
EXTMEMB3         0x00000000         0x00000000         xr
*default*        0x00000000         0xffffffff

Linker script and memory map

LOAD C:\Program Files (x86)\Raisonance\Ride\lib\ARM\startup_stm32f10x_hd.o
LOAD C:\Users\MightyDubster\Documents\Projects\pygmyos.projects\boot\main.o
LOAD C:\Users\MightyDubster\Documents\Projects\pygmyos.projects\boot\pygmy_file.o
LOAD C:\Users\MightyDubster\Documents\Projects\pygmyos.projects\boot\pygmy_string.o
LOAD C:\Users\MightyDubster\Documents\Projects\pygmyos.projects\boot\pygmy_fpec.o
START GROUP
LOAD C:\Program Files (x86)\Raisonance\Ride\Lib\ARM\std_sbrk_thumb.lib
LOAD C:\Program Files (x86)\Raisonance\Ride\Lib\ARM\smallprintf_thumb.a
LOAD c:/program files (x86)/raisonance/ride/arm-gcc/bin/../lib/gcc/arm-none-eabi/4.5.1/../../../../arm-none-eabi/lib/thumb2\libc.a
LOAD c:/program files (x86)/raisonance/ride/arm-gcc/bin/../lib/gcc/arm-none-eabi/4.5.1/../../../../arm-none-eabi/lib/thumb2\libm.a
END GROUP
                0x00000400                __Stack_Size = 0x400
                0x00000400                PROVIDE (_Stack_Size, __Stack_Size)
                0x20001c00                __Stack_Init = (_estack - __Stack_Size)
                0x20001c00                PROVIDE (_Stack_Init, __Stack_Init)
                0x00000100                _Minimum_Stack_Size = 0x100
                0x00000000                PROVIDE (Undefined_Handler, 0x0)
                0x00000000                PROVIDE (SWI_Handler, 0x0)
                0x00000000                PROVIDE (IRQ_Handler, 0x0)
                0x00000000                PROVIDE (Prefetch_Handler, 0x0)
                0x00000000                PROVIDE (Abort_Handler, 0x0)
                0x00000000                PROVIDE (FIQ_Handler, 0x0)
                0x00000000                PROVIDE (NMIException, 0x0)
                0x00000000                PROVIDE (NMI_Handler, 0x0)
                0x00000000                PROVIDE (HardFaultException, 0x0)
                0x00000000                PROVIDE (HardFault_Handler, 0x0)
                0x00000000                PROVIDE (MemManageException, 0x0)
                0x00000000                PROVIDE (MemManage_Handler, 0x0)
                0x00000000                PROVIDE (BusFaultException, 0x0)
                0x00000000                PROVIDE (BusFault_Handler, 0x0)
                0x00000000                PROVIDE (UsageFaultException, 0x0)
                0x00000000                PROVIDE (UsageFault_Handler, 0x0)
                0x00000000                PROVIDE (SVCHandler, 0x0)
                0x00000000                PROVIDE (SVC_Handler, 0x0)
                0x00000000                PROVIDE (DebugMonitor, 0x0)
                0x00000000                PROVIDE (DebugMon_Handler, 0x0)
                0x00000000                PROVIDE (PendSVC, 0x0)
                0x00000000                PROVIDE (PendSV_Handler, 0x0)
                0x00000000                PROVIDE (SysTickHandler, 0x0)
                0x00000000                PROVIDE (SysTick_Handler, 0x0)
                0x00000000                PROVIDE (WWDG_IRQHandler, 0x0)
                0x00000000                PROVIDE (PVD_IRQHandler, 0x0)
                0x00000000                PROVIDE (TAMPER_IRQHandler, 0x0)
                0x00000000                PROVIDE (RTC_IRQHandler, 0x0)
                0x00000000                PROVIDE (FLASH_IRQHandler, 0x0)
                0x00000000                PROVIDE (RCC_IRQHandler, 0x0)
                0x00000000                PROVIDE (EXTI0_IRQHandler, 0x0)
                0x00000000                PROVIDE (EXTI1_IRQHandler, 0x0)
                0x00000000                PROVIDE (EXTI2_IRQHandler, 0x0)
                0x00000000                PROVIDE (EXTI3_IRQHandler, 0x0)
                0x00000000                PROVIDE (EXTI4_IRQHandler, 0x0)
                0x00000000                PROVIDE (DMAChannel1_IRQHandler, 0x0)
                0x00000000                PROVIDE (DMAChannel2_IRQHandler, 0x0)
                0x00000000                PROVIDE (DMAChannel3_IRQHandler, 0x0)
                0x00000000                PROVIDE (DMAChannel4_IRQHandler, 0x0)
                0x00000000                PROVIDE (DMAChannel5_IRQHandler, 0x0)
                0x00000000                PROVIDE (DMAChannel6_IRQHandler, 0x0)
                0x00000000                PROVIDE (DMAChannel7_IRQHandler, 0x0)
                0x00000000                PROVIDE (DMA1_Channel1_IRQHandler, 0x0)
                0x00000000                PROVIDE (DMA1_Channel2_IRQHandler, 0x0)
                0x00000000                PROVIDE (DMA1_Channel3_IRQHandler, 0x0)
                0x00000000                PROVIDE (DMA1_Channel4_IRQHandler, 0x0)
                0x00000000                PROVIDE (DMA1_Channel5_IRQHandler, 0x0)
                0x00000000                PROVIDE (DMA1_Channel6_IRQHandler, 0x0)
                0x00000000                PROVIDE (DMA1_Channel7_IRQHandler, 0x0)
                0x00000000                PROVIDE (ADC_IRQHandler, 0x0)
                0x00000000                PROVIDE (ADC1_2_IRQHandler, 0x0)
                0x00000000                PROVIDE (USB_HP_CAN_TX_IRQHandler, 0x0)
                0x00000000                PROVIDE (USB_HP_CAN1_TX_IRQHandler, 0x0)
                0x00000000                PROVIDE (USB_LP_CAN_RX0_IRQHandler, 0x0)
                0x00000000                PROVIDE (USB_LP_CAN1_RX0_IRQHandler, 0x0)
                0x00000000                PROVIDE (CAN_RX1_IRQHandler, 0x0)
                0x00000000                PROVIDE (CAN1_RX1_IRQHandler, 0x0)
                0x00000000                PROVIDE (CAN_SCE_IRQHandler, 0x0)
                0x00000000                PROVIDE (CAN1_SCE_IRQHandler, 0x0)
                0x00000000                PROVIDE (EXTI9_5_IRQHandler, 0x0)
                0x00000000                PROVIDE (TIM1_BRK_IRQHandler, 0x0)
                0x00000000                PROVIDE (TIM1_UP_IRQHandler, 0x0)
                0x00000000                PROVIDE (TIM1_TRG_COM_IRQHandler, 0x0)
                0x00000000                PROVIDE (TIM1_CC_IRQHandler, 0x0)
                0x00000000                PROVIDE (TIM2_IRQHandler, 0x0)
                0x00000000                PROVIDE (TIM3_IRQHandler, 0x0)
                0x00000000                PROVIDE (TIM4_IRQHandler, 0x0)
                0x00000000                PROVIDE (I2C1_EV_IRQHandler, 0x0)
                0x00000000                PROVIDE (I2C1_ER_IRQHandler, 0x0)
                0x00000000                PROVIDE (I2C2_EV_IRQHandler, 0x0)
                0x00000000                PROVIDE (I2C2_ER_IRQHandler, 0x0)
                0x00000000                PROVIDE (SPI1_IRQHandler, 0x0)
                0x00000000                PROVIDE (SPI2_IRQHandler, 0x0)
                0x00000000                PROVIDE (USART1_IRQHandler, 0x0)
                0x00000000                PROVIDE (USART2_IRQHandler, 0x0)
                0x00000000                PROVIDE (USART3_IRQHandler, 0x0)
                0x00000000                PROVIDE (EXTI15_10_IRQHandler, 0x0)
                0x00000000                PROVIDE (RTCAlarm_IRQHandler, 0x0)
                0x00000000                PROVIDE (USBWakeUp_IRQHandler, 0x0)
                0x00000000                PROVIDE (TIM8_BRK_IRQHandler, 0x0)
                0x00000000                PROVIDE (TIM8_UP_IRQHandler, 0x0)
                0x00000000                PROVIDE (TIM8_TRG_COM_IRQHandler, 0x0)
                0x00000000                PROVIDE (TIM8_CC_IRQHandler, 0x0)
                0x00000000                PROVIDE (ADC3_IRQHandler, 0x0)
                0x00000000                PROVIDE (FSMC_IRQHandler, 0x0)
                0x00000000                PROVIDE (SDIO_IRQHandler, 0x0)
                0x00000000                PROVIDE (TIM5_IRQHandler, 0x0)
                0x00000000                PROVIDE (SPI3_IRQHandler, 0x0)
                0x00000000                PROVIDE (UART4_IRQHandler, 0x0)
                0x00000000                PROVIDE (UART5_IRQHandler, 0x0)
                0x00000000                PROVIDE (TIM6_IRQHandler, 0x0)
                0x00000000                PROVIDE (TIM7_IRQHandler, 0x0)
                0x00000000                PROVIDE (DMA2_Channel1_IRQHandler, 0x0)
                0x00000000                PROVIDE (DMA2_Channel2_IRQHandler, 0x0)
                0x00000000                PROVIDE (DMA2_Channel3_IRQHandler, 0x0)
                0x00000000                PROVIDE (DMA2_Channel4_5_IRQHandler, 0x0)
                0x42000000                PERIPH_BB_BASE = 0x42000000
                0x22000000                SRAM_BB_BASE = 0x22000000
                0x20000000                SRAM_BASE = 0x20000000
                0x40000000                PERIPH_BASE = 0x40000000
                0x40022000                PROVIDE (FLASH_BASE, 0x40022000)
                0x1ffff800                PROVIDE (OB_BASE, 0x1ffff800)
                0x40000000                APB1PERIPH_BASE = PERIPH_BASE
                0x40010000                APB2PERIPH_BASE = (PERIPH_BASE + 0x10000)
                0x40020000                AHBPERIPH_BASE = (PERIPH_BASE + 0x20000)
                0x40000000                PROVIDE (TIM2, (APB1PERIPH_BASE + 0x0))
                0x40000400                PROVIDE (TIM3, (APB1PERIPH_BASE + 0x400))
                0x40000800                PROVIDE (TIM4, (APB1PERIPH_BASE + 0x800))
                0x40002800                PROVIDE (RTC, (APB1PERIPH_BASE + 0x2800))
                0x40002c00                PROVIDE (WWDG, (APB1PERIPH_BASE + 0x2c00))
                0x40003000                PROVIDE (IWDG, (APB1PERIPH_BASE + 0x3000))
                0x40003800                PROVIDE (SPI2, (APB1PERIPH_BASE + 0x3800))
                0x40004400                PROVIDE (USART2, (APB1PERIPH_BASE + 0x4400))
                0x40004800                PROVIDE (USART3, (APB1PERIPH_BASE + 0x4800))
                0x40005400                PROVIDE (I2C1, (APB1PERIPH_BASE + 0x5400))
                0x40005800                PROVIDE (I2C2, (APB1PERIPH_BASE + 0x5800))
                0x40006400                PROVIDE (CAN, (APB1PERIPH_BASE + 0x6400))
                0x40006c00                PROVIDE (BKP, (APB1PERIPH_BASE + 0x6c00))
                0x40007000                PROVIDE (PWR, (APB1PERIPH_BASE + 0x7000))
                0x40010000                PROVIDE (AFIO, (APB2PERIPH_BASE + 0x0))
                0x40010400                PROVIDE (EXTI, (APB2PERIPH_BASE + 0x400))
                0x40010800                PROVIDE (GPIOA, (APB2PERIPH_BASE + 0x800))
                0x40010c00                PROVIDE (GPIOB, (APB2PERIPH_BASE + 0xc00))
                0x40011000                PROVIDE (GPIOC, (APB2PERIPH_BASE + 0x1000))
                0x40011400                PROVIDE (GPIOD, (APB2PERIPH_BASE + 0x1400))
                0x40011800                PROVIDE (GPIOE, (APB2PERIPH_BASE + 0x1800))
                0x40012400                PROVIDE (ADC1, (APB2PERIPH_BASE + 0x2400))
                0x40012800                PROVIDE (ADC2, (APB2PERIPH_BASE + 0x2800))
                0x40012c00                PROVIDE (TIM1, (APB2PERIPH_BASE + 0x2c00))
                0x40013000                PROVIDE (SPI1, (APB2PERIPH_BASE + 0x3000))
                0x40013800                PROVIDE (USART1, (APB2PERIPH_BASE + 0x3800))
                0x40020000                PROVIDE (DMA, (AHBPERIPH_BASE + 0x0))
                0x40020008                PROVIDE (DMA_Channel1, (AHBPERIPH_BASE + 0x8))
                0x4002001c                PROVIDE (DMA_Channel2, (AHBPERIPH_BASE + 0x1c))
                0x40020030                PROVIDE (DMA_Channel3, (AHBPERIPH_BASE + 0x30))
                0x40020044                PROVIDE (DMA_Channel4, (AHBPERIPH_BASE + 0x44))
                0x40020058                PROVIDE (DMA_Channel5, (AHBPERIPH_BASE + 0x58))
                0x4002006c                PROVIDE (DMA_Channel6, (AHBPERIPH_BASE + 0x6c))
                0x40020080                PROVIDE (DMA_Channel7, (AHBPERIPH_BASE + 0x80))
                0x40021000                PROVIDE (RCC, (AHBPERIPH_BASE + 0x1000))
                0xe000e000                SCS_BASE = 0xe000e000
                0xe000e010                PROVIDE (SysTick, (SCS_BASE + 0x10))
                0xe000e100                PROVIDE (NVIC, (SCS_BASE + 0x100))
                0xe000ed00                PROVIDE (SCB, (SCS_BASE + 0xd00))
                0x20002000                _estack = 0x20002000

.isr_vector     0x08000000      0x1e4
                0x08000000                . = ALIGN (0x4)
 *(.isr_vector)
 .isr_vector    0x08000000      0x1e4 C:\Program Files (x86)\Raisonance\Ride\lib\ARM\startup_stm32f10x_hd.o
                0x08000000                g_pfnVectors
                0x080001e4                . = ALIGN (0x4)

.flash_start    0x00000000        0x0
                0x00000000                . = ALIGN (0x4)
 *(.flash_start)
 *(.flash_start.*)
                0x00000000                . = ALIGN (0x4)

.crp_patch      0x00000000        0x0
                0x00000000                . = ALIGN (0x4)
 *(.crp_patch)
                0x00000000                . = ALIGN (0x4)

.flashtext      0x080001e4        0x0
                0x080001e4                . = ALIGN (0x4)
 *(.flashtext)
                0x080001e4                . = ALIGN (0x4)

.text           0x080001e4     0x1d24
                0x080001e4                . = ALIGN (0x4)
 *(.text)
 *(.text.*)
 .text.Reset_Handler
                0x080001e4       0x50 C:\Program Files (x86)\Raisonance\Ride\lib\ARM\startup_stm32f10x_hd.o
                0x080001e4                Reset_Handler
 .text.SystemInit_ExtMemCtl_Dummy
                0x08000234        0x2 C:\Program Files (x86)\Raisonance\Ride\lib\ARM\startup_stm32f10x_hd.o
                0x08000234                SystemInit_ExtMemCtl
                0x08000234                SystemInit_ExtMemCtl_Dummy
 .text.Default_Handler
                0x08000236        0x2 C:\Program Files (x86)\Raisonance\Ride\lib\ARM\startup_stm32f10x_hd.o
                0x08000236                EXTI2_IRQHandler
                0x08000236                TIM8_TRG_COM_IRQHandler
                0x08000236                TIM8_CC_IRQHandler
                0x08000236                DebugMon_Handler
                0x08000236                TIM1_CC_IRQHandler
                0x08000236                HardFault_Handler
                0x08000236                TIM6_IRQHandler
                0x08000236                PVD_IRQHandler
                0x08000236                SDIO_IRQHandler
                0x08000236                PendSV_Handler
                0x08000236                NMI_Handler
                0x08000236                EXTI3_IRQHandler
                0x08000236                EXTI0_IRQHandler
                0x08000236                I2C2_EV_IRQHandler
                0x08000236                UsageFault_Handler
                0x08000236                ADC1_2_IRQHandler
                0x08000236                SPI1_IRQHandler
                0x08000236                TAMPER_IRQHandler
                0x08000236                TIM8_UP_IRQHandler
                0x08000236                DMA2_Channel2_IRQHandler
                0x08000236                DMA1_Channel4_IRQHandler
                0x08000236                RTC_IRQHandler
                0x08000236                DMA1_Channel7_IRQHandler
                0x08000236                CAN1_RX1_IRQHandler
                0x08000236                UART5_IRQHandler
                0x08000236                ADC3_IRQHandler
                0x08000236                TIM4_IRQHandler
                0x08000236                DMA2_Channel1_IRQHandler
                0x08000236                I2C1_EV_IRQHandler
                0x08000236                DMA1_Channel6_IRQHandler
                0x08000236                UART4_IRQHandler
                0x08000236                TIM3_IRQHandler
                0x08000236                RCC_IRQHandler
                0x08000236                TIM1_TRG_COM_IRQHandler
                0x08000236                DMA1_Channel1_IRQHandler
                0x08000236                Default_Handler
                0x08000236                EXTI15_10_IRQHandler
                0x08000236                TIM7_IRQHandler
                0x08000236                TIM5_IRQHandler
                0x08000236                EXTI9_5_IRQHandler
                0x08000236                SPI2_IRQHandler
                0x08000236                MemManage_Handler
                0x08000236                SVC_Handler
                0x08000236                DMA1_Channel5_IRQHandler
                0x08000236                EXTI4_IRQHandler
                0x08000236                USB_LP_CAN1_RX0_IRQHandler
                0x08000236                USB_HP_CAN1_TX_IRQHandler
                0x08000236                DMA1_Channel3_IRQHandler
                0x08000236                FSMC_IRQHandler
                0x08000236                TIM1_UP_IRQHandler
                0x08000236                WWDG_IRQHandler
                0x08000236                TIM2_IRQHandler
                0x08000236                TIM1_BRK_IRQHandler
                0x08000236                EXTI1_IRQHandler
                0x08000236                RTCAlarm_IRQHandler
                0x08000236                DMA2_Channel4_5_IRQHandler
                0x08000236                USART2_IRQHandler
                0x08000236                I2C2_ER_IRQHandler
                0x08000236                DMA1_Channel2_IRQHandler
                0x08000236                TIM8_BRK_IRQHandler
                0x08000236                CAN1_SCE_IRQHandler
                0x08000236                FLASH_IRQHandler
                0x08000236                BusFault_Handler
                0x08000236                USART1_IRQHandler
                0x08000236                SPI3_IRQHandler
                0x08000236                I2C1_ER_IRQHandler
                0x08000236                USBWakeUp_IRQHandler
                0x08000236                DMA2_Channel3_IRQHandler
 .text.cmdReset
                0x08000238       0x10 C:\Users\MightyDubster\Documents\Projects\pygmyos.projects\boot\main.o
                0x08000238                cmdReset
 .text.cmdNull  0x08000248        0x4 C:\Users\MightyDubster\Documents\Projects\pygmyos.projects\boot\main.o
                0x08000248                cmdNull
 .text.cmdMv    0x0800024c       0x24 C:\Users\MightyDubster\Documents\Projects\pygmyos.projects\boot\main.o
                0x0800024c                cmdMv
 .text.cmdRm    0x08000270       0x10 C:\Users\MightyDubster\Documents\Projects\pygmyos.projects\boot\main.o
                0x08000270                cmdRm
 .text.cmdSend  0x08000280       0x44 C:\Users\MightyDubster\Documents\Projects\pygmyos.projects\boot\main.o
                0x08000280                cmdSend
 .text.cmdRecv  0x080002c4       0x48 C:\Users\MightyDubster\Documents\Projects\pygmyos.projects\boot\main.o
                0x080002c4                cmdRecv
 .text.cmdFormat
                0x0800030c       0x10 C:\Users\MightyDubster\Documents\Projects\pygmyos.projects\boot\main.o
                0x0800030c                cmdFormat
 .text.cmdErase
                0x0800031c       0x2c C:\Users\MightyDubster\Documents\Projects\pygmyos.projects\boot\main.o
                0x0800031c                cmdErase
 .text.putcUSART3
                0x08000348       0x14 C:\Users\MightyDubster\Documents\Projects\pygmyos.projects\boot\main.o
                0x08000348                putcUSART3
 .text.putIntUSART3
                0x0800035c       0x34 C:\Users\MightyDubster\Documents\Projects\pygmyos.projects\boot\main.o
                0x0800035c                putIntUSART3
 .text.cmdRead  0x08000390       0x84 C:\Users\MightyDubster\Documents\Projects\pygmyos.projects\boot\main.o
                0x08000390                cmdRead
 .text.putBufferUSART3
                0x08000414       0x1c C:\Users\MightyDubster\Documents\Projects\pygmyos.projects\boot\main.o
                0x08000414                putBufferUSART3
 .text.putstr   0x08000430       0x14 C:\Users\MightyDubster\Documents\Projects\pygmyos.projects\boot\main.o
                0x08000430                putstr
 .text.cmdLs    0x08000444       0x60 C:\Users\MightyDubster\Documents\Projects\pygmyos.projects\boot\main.o
                0x08000444                cmdLs
 .text.bootBootOS
                0x080004a4       0x50 C:\Users\MightyDubster\Documents\Projects\pygmyos.projects\boot\main.o
                0x080004a4                bootBootOS
 .text.bootTestAndLoad
                0x080004f4       0xc8 C:\Users\MightyDubster\Documents\Projects\pygmyos.projects\boot\main.o
                0x080004f4                bootTestAndLoad
 .text.cmdFlash
                0x080005bc        0x4 C:\Users\MightyDubster\Documents\Projects\pygmyos.projects\boot\main.o
                0x080005bc                cmdFlash
 .text.cmdBoot  0x080005c0       0x18 C:\Users\MightyDubster\Documents\Projects\pygmyos.projects\boot\main.o
                0x080005c0                cmdBoot
 .text.bootTest
                0x080005d8       0xac C:\Users\MightyDubster\Documents\Projects\pygmyos.projects\boot\main.o
                0x080005d8                bootTest
 .text.cmdVerify
                0x08000684        0x4 C:\Users\MightyDubster\Documents\Projects\pygmyos.projects\boot\main.o
                0x08000684                cmdVerify
 .text.main     0x08000688      0x210 C:\Users\MightyDubster\Documents\Projects\pygmyos.projects\boot\main.o
                0x08000688                main
 .text.xmodemWritePacket
                0x08000898       0x30 C:\Users\MightyDubster\Documents\Projects\pygmyos.projects\boot\main.o
                0x08000898                xmodemWritePacket
 .text.xmodemSendPacket
                0x080008c8       0x54 C:\Users\MightyDubster\Documents\Projects\pygmyos.projects\boot\main.o
                0x080008c8                xmodemSendPacket
 .text.SysTick_Handler
                0x0800091c       0x9c C:\Users\MightyDubster\Documents\Projects\pygmyos.projects\boot\main.o
                0x0800091c                SysTick_Handler
 .text.executeCmd
                0x080009b8       0x48 C:\Users\MightyDubster\Documents\Projects\pygmyos.projects\boot\main.o
                0x080009b8                executeCmd
 .text.USART3_IRQHandler
                0x08000a00      0x208 C:\Users\MightyDubster\Documents\Projects\pygmyos.projects\boot\main.o
                0x08000a00                USART3_IRQHandler
 .text.fileIsValidName
                0x08000c08       0x4c C:\Users\MightyDubster\Documents\Projects\pygmyos.projects\boot\pygmy_file.o
                0x08000c08                fileIsValidName
 .text.spiWriteByte
                0x08000c54       0x30 C:\Users\MightyDubster\Documents\Projects\pygmyos.projects\boot\pygmy_file.o
                0x08000c54                spiWriteByte
 .text.spiWriteLong
                0x08000c84       0x34 C:\Users\MightyDubster\Documents\Projects\pygmyos.projects\boot\pygmy_file.o
                0x08000c84                spiWriteLong
 .text.spiReadByte
                0x08000cb8       0x3c C:\Users\MightyDubster\Documents\Projects\pygmyos.projects\boot\pygmy_file.o
                0x08000cb8                spiReadByte
 .text.flashReadWord
                0x08000cf4       0x38 C:\Users\MightyDubster\Documents\Projects\pygmyos.projects\boot\pygmy_file.o
                0x08000cf4                flashReadWord
 .text.flashReadLong
                0x08000d2c       0x50 C:\Users\MightyDubster\Documents\Projects\pygmyos.projects\boot\pygmy_file.o
                0x08000d2c                flashReadLong
 .text.flashReadByte
                0x08000d7c       0x28 C:\Users\MightyDubster\Documents\Projects\pygmyos.projects\boot\pygmy_file.o
                0x08000d7c                flashReadByte
 .text.fileGetActiveFiles
                0x08000da4       0x28 C:\Users\MightyDubster\Documents\Projects\pygmyos.projects\boot\pygmy_file.o
                0x08000da4                fileGetActiveFiles
 .text.fileGetFAT
                0x08000dcc       0x58 C:\Users\MightyDubster\Documents\Projects\pygmyos.projects\boot\pygmy_file.o
                0x08000dcc                fileGetFAT
 .text.fileGetLength
                0x08000e24       0x44 C:\Users\MightyDubster\Documents\Projects\pygmyos.projects\boot\pygmy_file.o
                0x08000e24                fileGetLength
 .text.fileGetChar
                0x08000e68       0x7c C:\Users\MightyDubster\Documents\Projects\pygmyos.projects\boot\pygmy_file.o
                0x08000e68                fileGetChar
 .text.fileSeekName
                0x08000ee4       0x64 C:\Users\MightyDubster\Documents\Projects\pygmyos.projects\boot\pygmy_file.o
                0x08000ee4                fileSeekName
 .text.fileGetName
                0x08000f48       0x50 C:\Users\MightyDubster\Documents\Projects\pygmyos.projects\boot\pygmy_file.o
                0x08000f48                fileGetName
 .text.fileGetFreeSpace
                0x08000f98       0x34 C:\Users\MightyDubster\Documents\Projects\pygmyos.projects\boot\pygmy_file.o
                0x08000f98                fileGetFreeSpace
 .text.flashReadStatus
                0x08000fcc       0x24 C:\Users\MightyDubster\Documents\Projects\pygmyos.projects\boot\pygmy_file.o
                0x08000fcc                flashReadStatus
 .text.flashReadID
                0x08000ff0       0x30 C:\Users\MightyDubster\Documents\Projects\pygmyos.projects\boot\pygmy_file.o
                0x08000ff0                flashReadID
 .text.flashWaitForBusy
                0x08001020        0xe C:\Users\MightyDubster\Documents\Projects\pygmyos.projects\boot\pygmy_file.o
                0x08001020                flashWaitForBusy
 *fill*         0x0800102e        0x2 00
 .text.flashChipErase
                0x08001030       0x30 C:\Users\MightyDubster\Documents\Projects\pygmyos.projects\boot\pygmy_file.o
                0x08001030                flashChipErase
 .text.flashSectorErase
                0x08001060       0x34 C:\Users\MightyDubster\Documents\Projects\pygmyos.projects\boot\pygmy_file.o
                0x08001060                flashSectorErase
 .text.flashWriteByte
                0x08001094       0x40 C:\Users\MightyDubster\Documents\Projects\pygmyos.projects\boot\pygmy_file.o
                0x08001094                flashWriteByte
 .text.flashWriteBuffer
                0x080010d4       0x1c C:\Users\MightyDubster\Documents\Projects\pygmyos.projects\boot\pygmy_file.o
                0x080010d4                flashWriteBuffer
 .text.flashWriteLong
                0x080010f0       0x20 C:\Users\MightyDubster\Documents\Projects\pygmyos.projects\boot\pygmy_file.o
                0x080010f0                flashWriteLong
 .text.fileWriteLength
                0x08001110       0x54 C:\Users\MightyDubster\Documents\Projects\pygmyos.projects\boot\pygmy_file.o
                0x08001110                fileWriteLength
 .text.flashWriteWord
                0x08001164       0x18 C:\Users\MightyDubster\Documents\Projects\pygmyos.projects\boot\pygmy_file.o
                0x08001164                flashWriteWord
 .text.fileDeleteFATEntry
                0x0800117c       0x8c C:\Users\MightyDubster\Documents\Projects\pygmyos.projects\boot\pygmy_file.o
                0x0800117c                fileDeleteFATEntry
 .text.fileGetActiveFAT
                0x08001208       0x4c C:\Users\MightyDubster\Documents\Projects\pygmyos.projects\boot\pygmy_file.o
                0x08001208                fileGetActiveFAT
 .text.fileGetFreeFATEntry
                0x08001254       0xb0 C:\Users\MightyDubster\Documents\Projects\pygmyos.projects\boot\pygmy_file.o
                0x08001254                fileGetFreeFATEntry
 .text.fileGetFreeFileEntry
                0x08001304       0xec C:\Users\MightyDubster\Documents\Projects\pygmyos.projects\boot\pygmy_file.o
                0x08001304                fileGetFreeFileEntry
 .text.fileAllocateFAT
                0x080013f0       0x54 C:\Users\MightyDubster\Documents\Projects\pygmyos.projects\boot\pygmy_file.o
                0x080013f0                fileAllocateFAT
 .text.filePutChar
                0x08001444       0x74 C:\Users\MightyDubster\Documents\Projects\pygmyos.projects\boot\pygmy_file.o
                0x08001444                filePutChar
 .text.filePutBuffer
                0x080014b8       0x22 C:\Users\MightyDubster\Documents\Projects\pygmyos.projects\boot\pygmy_file.o
                0x080014b8                filePutBuffer
 *fill*         0x080014da        0x2 00
 .text.fileClose
                0x080014dc       0xa0 C:\Users\MightyDubster\Documents\Projects\pygmyos.projects\boot\pygmy_file.o
                0x080014dc                fileClose
 .text.fileRename
                0x0800157c       0xa0 C:\Users\MightyDubster\Documents\Projects\pygmyos.projects\boot\pygmy_file.o
                0x0800157c                fileRename
 .text.flashWriteEnable
                0x0800161c       0x74 C:\Users\MightyDubster\Documents\Projects\pygmyos.projects\boot\pygmy_file.o
                0x0800161c                flashWriteEnable
 .text.fileFormat
                0x08001690       0xce C:\Users\MightyDubster\Documents\Projects\pygmyos.projects\boot\pygmy_file.o
                0x08001690                fileFormat
 *fill*         0x0800175e        0x2 00
 .text.fileMountRoot
                0x08001760       0xb8 C:\Users\MightyDubster\Documents\Projects\pygmyos.projects\boot\pygmy_file.o
                0x08001760                fileMountRoot
 .text.fileDelete
                0x08001818       0x34 C:\Users\MightyDubster\Documents\Projects\pygmyos.projects\boot\pygmy_file.o
                0x08001818                fileDelete
 .text.fileOpen
                0x0800184c       0xfc C:\Users\MightyDubster\Documents\Projects\pygmyos.projects\boot\pygmy_file.o
                0x0800184c                fileOpen
 .text.isCharInString
                0x08001948       0x1a C:\Users\MightyDubster\Documents\Projects\pygmyos.projects\boot\pygmy_string.o
                0x08001948                isCharInString
 .text.isAlpha  0x08001962       0x1c C:\Users\MightyDubster\Documents\Projects\pygmyos.projects\boot\pygmy_string.o
                0x08001962                isAlpha
 .text.isNewline
                0x0800197e       0x1c C:\Users\MightyDubster\Documents\Projects\pygmyos.projects\boot\pygmy_string.o
                0x0800197e                isNewline
 .text.isWhitespace
                0x0800199a        0xe C:\Users\MightyDubster\Documents\Projects\pygmyos.projects\boot\pygmy_string.o
                0x0800199a                isWhitespace
 .text.isQuote  0x080019a8       0x14 C:\Users\MightyDubster\Documents\Projects\pygmyos.projects\boot\pygmy_string.o
                0x080019a8                isQuote
 .text.isSeparator
                0x080019bc       0x14 C:\Users\MightyDubster\Documents\Projects\pygmyos.projects\boot\pygmy_string.o
                0x080019bc                isSeparator
 .text.isPunctuation
                0x080019d0       0x14 C:\Users\MightyDubster\Documents\Projects\pygmyos.projects\boot\pygmy_string.o
                0x080019d0                isPunctuation
 .text.len      0x080019e4       0x20 C:\Users\MightyDubster\Documents\Projects\pygmyos.projects\boot\pygmy_string.o
                0x080019e4                len
 .text.isStringSame
                0x08001a04       0x34 C:\Users\MightyDubster\Documents\Projects\pygmyos.projects\boot\pygmy_string.o
                0x08001a04                isStringSame
 .text.getNextSubString
                0x08001a38       0xe0 C:\Users\MightyDubster\Documents\Projects\pygmyos.projects\boot\pygmy_string.o
                0x08001a38                getNextSubString
 .text.copyString
                0x08001b18       0x12 C:\Users\MightyDubster\Documents\Projects\pygmyos.projects\boot\pygmy_string.o
                0x08001b18                copyString
 *fill*         0x08001b2a        0x2 00
 .text.convertHexCharToInteger
                0x08001b2c       0x20 C:\Users\MightyDubster\Documents\Projects\pygmyos.projects\boot\pygmy_string.o
                0x08001b2c                convertHexCharToInteger
 .text.convertHexEncodedStringToBuffer
                0x08001b4c       0x2c C:\Users\MightyDubster\Documents\Projects\pygmyos.projects\boot\pygmy_string.o
                0x08001b4c                convertHexEncodedStringToBuffer
 .text.fpecUnlock
                0x08001b78       0x18 C:\Users\MightyDubster\Documents\Projects\pygmyos.projects\boot\pygmy_fpec.o
                0x08001b78                fpecUnlock
 .text.fpecWriteWord
                0x08001b90       0x30 C:\Users\MightyDubster\Documents\Projects\pygmyos.projects\boot\pygmy_fpec.o
                0x08001b90                fpecWriteWord
 .text.fpecWriteLong
                0x08001bc0       0x1c C:\Users\MightyDubster\Documents\Projects\pygmyos.projects\boot\pygmy_fpec.o
                0x08001bc0                fpecWriteLong
 .text.fpecProcessIHEX
                0x08001bdc       0xac C:\Users\MightyDubster\Documents\Projects\pygmyos.projects\boot\pygmy_fpec.o
                0x08001bdc                fpecProcessIHEX
 .text.fpecErasePage
                0x08001c88       0x44 C:\Users\MightyDubster\Documents\Projects\pygmyos.projects\boot\pygmy_fpec.o
                0x08001c88                fpecErasePage
 .text.fpecEraseProgramMemory
                0x08001ccc       0x34 C:\Users\MightyDubster\Documents\Projects\pygmyos.projects\boot\pygmy_fpec.o
                0x08001ccc                fpecEraseProgramMemory
 *(.rodata)
 .rodata        0x08001d00       0x94 C:\Users\MightyDubster\Documents\Projects\pygmyos.projects\boot\main.o
                0x08001d00                BOOT_filename
                0x08001d09                BOOT_OK
                0x08001d0e                STRID_L15X
                0x08001d13                STRID_F100
                0x08001d18                STRID_F103
                0x08001d1d                BOOT_ERROR
                0x08001d26                BOOT_PROMPT
                0x08001d2c                BOOTCOMMANDS
 .rodata        0x08001d94       0x52 C:\Users\MightyDubster\Documents\Projects\pygmyos.projects\boot\pygmy_string.o
                0x08001d94                PYGMYHEXCHARS
                0x08001da4                PYGMYBASE64CHARS
 *(.rodata*)
 .rodata.str1.1
                0x08001de6       0xaa C:\Users\MightyDubster\Documents\Projects\pygmyos.projects\boot\main.o
                                 0xab (size before relaxing)
 .rodata.str1.1
                0x08001e90       0x2a C:\Users\MightyDubster\Documents\Projects\pygmyos.projects\boot\pygmy_file.o
                                 0x2b (size before relaxing)
 .rodata.str1.1
                0x08001eba       0x4c C:\Users\MightyDubster\Documents\Projects\pygmyos.projects\boot\pygmy_string.o
 *(.glue_7)
 .glue_7        0x00000000        0x0 linker stubs
 *(.glue_7t)
 .glue_7t       0x00000000        0x0 linker stubs
                0x08001f08                . = ALIGN (0x4)
 *fill*         0x08001f06        0x2 00
                0x08001f08                _etext = .
                0x08001f08                _sidata = _etext

.vfp11_veneer   0x08001f08        0x0
 .vfp11_veneer  0x00000000        0x0 linker stubs

.v4_bx          0x08001f08        0x0
 .v4_bx         0x00000000        0x0 linker stubs

.flashpatch     0x00000000        0x0
                0x00000000                . = ALIGN (0x4)
 *(.flashpatch)
                0x00000000                . = ALIGN (0x4)

.endflash       0x00000000        0x0
                0x00000000                . = ALIGN (0x4)
 *(.endflash)
                0x00000000                . = ALIGN (0x4)
                0x00000000                _e_endflash = .

.data           0x20000000        0x0 load address 0x08001f08
                0x20000000                . = ALIGN (0x4)
                0x20000000                _sdata = .
                0x20000000                _data = .
 *(.data)
 *(.data.*)
 *(.RAMtext)
                0x20000000                . = ALIGN (0x4)
                0x20000000                _edata = .
                0x08001f08                _eidata = ((_sidata + _edata) - _sdata)
                0x08010000                _lastdataromaddress = 0x8010000
                0x00000000                toobig = (_eidata > _lastdataromaddress)?!!!!!!!!! FLASH IS FULL !!!!!!!!!:0x0

.bss            0x20000000      0x248
                0x20000000                . = ALIGN (0x4)
                0x20000000                _sbss = .
                0x20000000                _bss = .
 *(.bss)
 .bss           0x20000000      0x187 C:\Users\MightyDubster\Documents\Projects\pygmyos.projects\boot\main.o
                0x20000000                globalStatus
                0x20000001                globalBootStatus
 *fill*         0x20000187        0x1 00
 .bss           0x20000188        0x4 C:\Users\MightyDubster\Documents\Projects\pygmyos.projects\boot\pygmy_string.o
 .bss           0x2000018c        0xc C:\Users\MightyDubster\Documents\Projects\pygmyos.projects\boot\pygmy_fpec.o
 *(COMMON)
 COMMON         0x20000198       0x54 C:\Users\MightyDubster\Documents\Projects\pygmyos.projects\boot\main.o
                0x20000198                globalXMTimeout
                0x2000019c                globalID
                0x200001a0                globalFileLen
                0x200001a4                globalBootTimeout
                0x200001a8                globalXTAL
                0x200001ac                pygmyFile
                0x200001d4                globalFreq
                0x200001d8                globalStrID
                0x200001dc                globalTransaction
                0x200001e0                globalPLL
                0x200001e4                globalBaseAddress
                0x200001e8                globalXMCount
 COMMON         0x200001ec       0x5c C:\Users\MightyDubster\Documents\Projects\pygmyos.projects\boot\pygmy_file.o
                0x200001ec                pygmyRootVolume
                0x20000230                pygmyFlashSPI
                0x20000248                . = ALIGN (0x4)
                0x20000248                _ebss = .
                0x20000248                PROVIDE (end, _ebss)
                0x20000248                PROVIDE (_end, _ebss)

._usrstack      0x20000248      0x100
                0x20000248                . = ALIGN (0x4)
                0x20000248                _susrstack = .
                0x20000348                . = (. + _Minimum_Stack_Size)
 *fill*         0x20000248      0x100 00
                0x20000348                . = ALIGN (0x4)
                0x20000348                _eusrstack = .

.b1text
 *(.b1text)
 *(.b1rodata)
 *(.b1rodata*)

.eb0text
 *(.eb0text)
 *(.eb0rodata)
 *(.eb0rodata*)

.eb1text
 *(.eb1text)
 *(.eb1rodata)
 *(.eb1rodata*)

.eb2text
 *(.eb2text)
 *(.eb2rodata)
 *(.eb2rodata*)

.eb3text
 *(.eb3text)
 *(.eb3rodata)
 *(.eb3rodata*)
                0x20000348                __exidx_start = .
                0x20000348                __exidx_end = .

/DISCARD/
 libc.a(*)
 libm.a(*)
 libgcc.a(*)

.stab
 *(.stab)

.stabstr
 *(.stabstr)

.stab.excl
 *(.stab.excl)

.stab.exclstr
 *(.stab.exclstr)

.stab.index
 *(.stab.index)

.stab.indexstr
 *(.stab.indexstr)

.ARM.attributes
                0x00000000       0x2d
 .ARM.attributes
                0x00000000       0x21 C:\Program Files (x86)\Raisonance\Ride\lib\ARM\startup_stm32f10x_hd.o
 .ARM.attributes
                0x00000021       0x31 C:\Users\MightyDubster\Documents\Projects\pygmyos.projects\boot\main.o
 .ARM.attributes
                0x00000052       0x31 C:\Users\MightyDubster\Documents\Projects\pygmyos.projects\boot\pygmy_file.o
 .ARM.attributes
                0x00000083       0x31 C:\Users\MightyDubster\Documents\Projects\pygmyos.projects\boot\pygmy_string.o
 .ARM.attributes
                0x000000b4       0x31 C:\Users\MightyDubster\Documents\Projects\pygmyos.projects\boot\pygmy_fpec.o

.comment        0x00000000       0x2a
 *(.comment)
 .comment       0x00000000       0x2a C:\Users\MightyDubster\Documents\Projects\pygmyos.projects\boot\main.o
                                 0x2b (size before relaxing)
 .comment       0x00000000       0x2b C:\Users\MightyDubster\Documents\Projects\pygmyos.projects\boot\pygmy_file.o
 .comment       0x00000000       0x2b C:\Users\MightyDubster\Documents\Projects\pygmyos.projects\boot\pygmy_string.o
 .comment       0x00000000       0x2b C:\Users\MightyDubster\Documents\Projects\pygmyos.projects\boot\pygmy_fpec.o

.debug
 *(.debug)

.line
 *(.line)

.debug_srcinfo
 *(.debug_srcinfo)

.debug_sfnames
 *(.debug_sfnames)

.debug_aranges  0x00000000      0x440
 *(.debug_aranges)
 .debug_aranges
                0x00000000       0xe8 C:\Users\MightyDubster\Documents\Projects\pygmyos.projects\boot\main.o
 .debug_aranges
                0x000000e8      0x1d8 C:\Users\MightyDubster\Documents\Projects\pygmyos.projects\boot\pygmy_file.o
 .debug_aranges
                0x000002c0      0x130 C:\Users\MightyDubster\Documents\Projects\pygmyos.projects\boot\pygmy_string.o
 .debug_aranges
                0x000003f0       0x50 C:\Users\MightyDubster\Documents\Projects\pygmyos.projects\boot\pygmy_fpec.o

.debug_pubnames
                0x00000000      0xa9d
 *(.debug_pubnames)
 .debug_pubnames
                0x00000000      0x2fd C:\Users\MightyDubster\Documents\Projects\pygmyos.projects\boot\main.o
 .debug_pubnames
                0x000002fd      0x450 C:\Users\MightyDubster\Documents\Projects\pygmyos.projects\boot\pygmy_file.o
 .debug_pubnames
                0x0000074d      0x2bd C:\Users\MightyDubster\Documents\Projects\pygmyos.projects\boot\pygmy_string.o
 .debug_pubnames
                0x00000a0a       0x93 C:\Users\MightyDubster\Documents\Projects\pygmyos.projects\boot\pygmy_fpec.o

.debug_info     0x00000000     0x3455
 *(.debug_info .gnu.linkonce.wi.*)
 .debug_info    0x00000000     0x11fc C:\Users\MightyDubster\Documents\Projects\pygmyos.projects\boot\main.o
 .debug_info    0x000011fc     0x146d C:\Users\MightyDubster\Documents\Projects\pygmyos.projects\boot\pygmy_file.o
 .debug_info    0x00002669      0xac6 C:\Users\MightyDubster\Documents\Projects\pygmyos.projects\boot\pygmy_string.o
 .debug_info    0x0000312f      0x326 C:\Users\MightyDubster\Documents\Projects\pygmyos.projects\boot\pygmy_fpec.o

.debug_abbrev   0x00000000      0x7a4
 *(.debug_abbrev)
 .debug_abbrev  0x00000000      0x23c C:\Users\MightyDubster\Documents\Projects\pygmyos.projects\boot\main.o
 .debug_abbrev  0x0000023c      0x293 C:\Users\MightyDubster\Documents\Projects\pygmyos.projects\boot\pygmy_file.o
 .debug_abbrev  0x000004cf      0x1b3 C:\Users\MightyDubster\Documents\Projects\pygmyos.projects\boot\pygmy_string.o
 .debug_abbrev  0x00000682      0x122 C:\Users\MightyDubster\Documents\Projects\pygmyos.projects\boot\pygmy_fpec.o

.debug_line     0x00000000     0x1613
 *(.debug_line)
 .debug_line    0x00000000      0x541 C:\Users\MightyDubster\Documents\Projects\pygmyos.projects\boot\main.o
 .debug_line    0x00000541      0x908 C:\Users\MightyDubster\Documents\Projects\pygmyos.projects\boot\pygmy_file.o
 .debug_line    0x00000e49      0x626 C:\Users\MightyDubster\Documents\Projects\pygmyos.projects\boot\pygmy_string.o
 .debug_line    0x0000146f      0x1a4 C:\Users\MightyDubster\Documents\Projects\pygmyos.projects\boot\pygmy_fpec.o

.debug_frame    0x00000000      0xc90
 *(.debug_frame)
 .debug_frame   0x00000000      0x294 C:\Users\MightyDubster\Documents\Projects\pygmyos.projects\boot\main.o
 .debug_frame   0x00000294      0x61c C:\Users\MightyDubster\Documents\Projects\pygmyos.projects\boot\pygmy_file.o
 .debug_frame   0x000008b0      0x324 C:\Users\MightyDubster\Documents\Projects\pygmyos.projects\boot\pygmy_string.o
 .debug_frame   0x00000bd4       0xbc C:\Users\MightyDubster\Documents\Projects\pygmyos.projects\boot\pygmy_fpec.o

.debug_str      0x00000000      0xfce
 *(.debug_str)
 .debug_str     0x00000000      0x5f1 C:\Users\MightyDubster\Documents\Projects\pygmyos.projects\boot\main.o
                                0x690 (size before relaxing)
 .debug_str     0x000005f1      0x5d7 C:\Users\MightyDubster\Documents\Projects\pygmyos.projects\boot\pygmy_file.o
                                0x7d7 (size before relaxing)
 .debug_str     0x00000bc8      0x321 C:\Users\MightyDubster\Documents\Projects\pygmyos.projects\boot\pygmy_string.o
                                0x402 (size before relaxing)
 .debug_str     0x00000ee9       0xe5 C:\Users\MightyDubster\Documents\Projects\pygmyos.projects\boot\pygmy_fpec.o
                                0x1d1 (size before relaxing)

.debug_loc      0x00000000     0x3319
 *(.debug_loc)
 .debug_loc     0x00000000      0x818 C:\Users\MightyDubster\Documents\Projects\pygmyos.projects\boot\main.o
 .debug_loc     0x00000818     0x1a62 C:\Users\MightyDubster\Documents\Projects\pygmyos.projects\boot\pygmy_file.o
 .debug_loc     0x0000227a      0xe64 C:\Users\MightyDubster\Documents\Projects\pygmyos.projects\boot\pygmy_string.o
 .debug_loc     0x000030de      0x23b C:\Users\MightyDubster\Documents\Projects\pygmyos.projects\boot\pygmy_fpec.o

.debug_macinfo
 *(.debug_macinfo)

.debug_weaknames
 *(.debug_weaknames)

.debug_funcnames
 *(.debug_funcnames)

.debug_typenames
 *(.debug_typenames)

.debug_varnames
 *(.debug_varnames)
START GROUP
LOAD c:/program files (x86)/raisonance/ride/arm-gcc/bin/../lib/gcc/arm-none-eabi/4.5.1/thumb2\libgcc.a
LOAD c:/program files (x86)/raisonance/ride/arm-gcc/bin/../lib/gcc/arm-none-eabi/4.5.1/../../../../arm-none-eabi/lib/thumb2\libc.a
END GROUP
OUTPUT(C:\Users\MightyDubster\Documents\Projects\pygmyos.projects\boot\Boot.elf elf32-littlearm)

.debug_pubtypes
                0x00000000      0x262
 .debug_pubtypes
                0x00000000      0x149 C:\Users\MightyDubster\Documents\Projects\pygmyos.projects\boot\main.o
 .debug_pubtypes
                0x00000149       0x9f C:\Users\MightyDubster\Documents\Projects\pygmyos.projects\boot\pygmy_file.o
 .debug_pubtypes
                0x000001e8       0x40 C:\Users\MightyDubster\Documents\Projects\pygmyos.projects\boot\pygmy_string.o
 .debug_pubtypes
                0x00000228       0x3a C:\Users\MightyDubster\Documents\Projects\pygmyos.projects\boot\pygmy_fpec.o

.debug_ranges   0x00000000      0x400
 .debug_ranges  0x00000000       0xd8 C:\Users\MightyDubster\Documents\Projects\pygmyos.projects\boot\main.o
 .debug_ranges  0x000000d8      0x1c8 C:\Users\MightyDubster\Documents\Projects\pygmyos.projects\boot\pygmy_file.o
 .debug_ranges  0x000002a0      0x120 C:\Users\MightyDubster\Documents\Projects\pygmyos.projects\boot\pygmy_string.o
 .debug_ranges  0x000003c0       0x40 C:\Users\MightyDubster\Documents\Projects\pygmyos.projects\boot\pygmy_fpec.o
