
C:\Users\MightyDubster\Documents\Projects\pygmyos.code\bootv2\main.o:     file format elf32-littlearm
C:\Users\MightyDubster\Documents\Projects\pygmyos.code\bootv2\main.o


Disassembly of section .text.bootTimeout:

00000000 <bootTimeout>:
bootTimeout():
   0:	4b02      	ldr	r3, [pc, #8]	; (c <bootTimeout+0xc>)
   2:	681a      	ldr	r2, [r3, #0]
   4:	3201      	adds	r2, #1
   6:	601a      	str	r2, [r3, #0]
   8:	4770      	bx	lr
   a:	bf00      	nop
   c:	00000000 	.word	0x00000000

Disassembly of section .text.cmdReset:

00000000 <cmdReset>:
cmdReset():
   0:	4b024a01 	.word	0x4b024a01
   4:	60da      	str	r2, [r3, #12]
   6:	4770      	bx	lr
   8:	05fa0004 	.word	0x05fa0004
   c:	e000ed00 	.word	0xe000ed00

Disassembly of section .text.cmdMv:

00000000 <cmdMv>:
cmdMv():
   0:	b510      	push	{r4, lr}
   2:	2106      	movs	r1, #6
   4:	f7ff fffe 	bl	0 <getNextSubString>
   8:	2106      	movs	r1, #6
   a:	4604      	mov	r4, r0
   c:	4804      	ldr	r0, [pc, #16]	; (20 <cmdMv+0x20>)
   e:	f7ff fffe 	bl	0 <getNextSubString>
  12:	4601      	mov	r1, r0
  14:	4620      	mov	r0, r4
  16:	e8bd 4010 	ldmia.w	sp!, {r4, lr}
  1a:	f7ff bffe 	b.w	0 <fileRename>
  1e:	bf00      	nop
  20:	00000000 	.word	0x00000000

Disassembly of section .text.cmdRm:

00000000 <cmdRm>:
cmdRm():
   0:	b510      	push	{r4, lr}
   2:	2106      	movs	r1, #6
   4:	f7ff fffe 	bl	0 <getNextSubString>
   8:	e8bd 4010 	ldmia.w	sp!, {r4, lr}
   c:	f7ff bffe 	b.w	0 <fileDelete>

Disassembly of section .text.cmdSend:

00000000 <cmdSend>:
cmdSend():
   0:	2106      	movs	r1, #6
   2:	b510      	push	{r4, lr}
   4:	f7ff fffe 	bl	0 <getNextSubString>
   8:	4601      	mov	r1, r0
   a:	4802      	ldr	r0, [pc, #8]	; (14 <cmdSend+0x14>)
   c:	e8bd 4010 	ldmia.w	sp!, {r4, lr}
  10:	f7ff bffe 	b.w	0 <xmodemSend>
  14:	00000000 	.word	0x00000000

Disassembly of section .text.cmdRecv:

00000000 <cmdRecv>:
cmdRecv():
   0:	2106      	movs	r1, #6
   2:	b510      	push	{r4, lr}
   4:	f7ff fffe 	bl	0 <getNextSubString>
   8:	4601      	mov	r1, r0
   a:	4802      	ldr	r0, [pc, #8]	; (14 <cmdRecv+0x14>)
   c:	e8bd 4010 	ldmia.w	sp!, {r4, lr}
  10:	f7ff bffe 	b.w	0 <xmodemRecv>
  14:	00000000 	.word	0x00000000

Disassembly of section .text.cmdFormat:

00000000 <cmdFormat>:
cmdFormat():
   0:	4802b508 	.word	0x4802b508
   4:	f7ff fffe 	bl	0 <fileFormat>
   8:	2001      	movs	r0, #1
   a:	bd08      	pop	{r3, pc}
   c:	00000000 	.word	0x00000000

Disassembly of section .text.cmdErase:

00000000 <cmdErase>:
cmdErase():
   0:	b508      	push	{r3, lr}
   2:	f7ff fffe 	bl	0 <fpecEraseProgramMemory>
   6:	4b03      	ldr	r3, [pc, #12]	; (14 <cmdErase+0x14>)
   8:	2001      	movs	r0, #1
   a:	781a      	ldrb	r2, [r3, #0]
   c:	f042 0201 	orr.w	r2, r2, #1
  10:	701a      	strb	r2, [r3, #0]
  12:	bd08      	pop	{r3, pc}
  14:	00000000 	.word	0x00000000

Disassembly of section .text.putcUSART3:

00000000 <putcUSART3>:
putcUSART3():
   0:	881a4b03 	.word	0x881a4b03
   4:	f012 0f80 	tst.w	r2, #128	; 0x80
   8:	d0fa      	beq.n	0 <putcUSART3>
   a:	8098      	strh	r0, [r3, #4]
   c:	4770      	bx	lr
   e:	bf00      	nop
  10:	40004800 	.word	0x40004800

Disassembly of section .text.putIntUSART3:

00000000 <putIntUSART3>:
putIntUSART3():
   0:	b5f8      	push	{r3, r4, r5, r6, r7, lr}
   2:	4606      	mov	r6, r0
   4:	2401      	movs	r4, #1
   6:	2500      	movs	r5, #0
   8:	e001      	b.n	e <putIntUSART3+0xe>
   a:	3501      	adds	r5, #1
   c:	461c      	mov	r4, r3
   e:	230a      	movs	r3, #10
  10:	4363      	muls	r3, r4
  12:	42b3      	cmp	r3, r6
  14:	d9f9      	bls.n	a <putIntUSART3+0xa>
  16:	fbb6 f7f4 	udiv	r7, r6, r4
  1a:	f107 0030 	add.w	r0, r7, #48	; 0x30
  1e:	b2c0      	uxtb	r0, r0
  20:	f7ff fffe 	bl	0 <putIntUSART3>
  24:	230a      	movs	r3, #10
  26:	3d01      	subs	r5, #1
  28:	fb04 6617 	mls	r6, r4, r7, r6
  2c:	fb94 f4f3 	sdiv	r4, r4, r3
  30:	d2f1      	bcs.n	16 <putIntUSART3+0x16>
  32:	bdf8      	pop	{r3, r4, r5, r6, r7, pc}

Disassembly of section .text.cmdRead:

00000000 <cmdRead>:
cmdRead():
   0:	2106      	movs	r1, #6
   2:	b570      	push	{r4, r5, r6, lr}
   4:	f7ff fffe 	bl	0 <getNextSubString>
   8:	4601      	mov	r1, r0
   a:	2800      	cmp	r0, #0
   c:	d037      	beq.n	7e <cmdRead+0x7e>
   e:	481c      	ldr	r0, [pc, #112]	; (80 <cmdRead+0x80>)
  10:	2201      	movs	r2, #1
  12:	f7ff fffe 	bl	0 <fileOpen>
  16:	2800      	cmp	r0, #0
  18:	d031      	beq.n	7e <cmdRead+0x7e>
  1a:	2400      	movs	r4, #0
  1c:	e028      	b.n	70 <cmdRead+0x70>
  1e:	4630      	mov	r0, r6
  20:	f7ff fffe 	bl	0 <fileGetChar>
  24:	f996 3010 	ldrsb.w	r3, [r6, #16]
  28:	4605      	mov	r5, r0
  2a:	2b00      	cmp	r3, #0
  2c:	db1e      	blt.n	6c <cmdRead+0x6c>
  2e:	280d      	cmp	r0, #13
  30:	bf08      	it	eq
  32:	2400      	moveq	r4, #0
  34:	2350      	movs	r3, #80	; 0x50
  36:	fbb4 f2f3 	udiv	r2, r4, r3
  3a:	fb03 4312 	mls	r3, r3, r2, r4
  3e:	b29b      	uxth	r3, r3
  40:	b913      	cbnz	r3, 48 <cmdRead+0x48>
  42:	200d      	movs	r0, #13
  44:	f7ff fffe 	bl	0 <cmdRead>
  48:	2d0d      	cmp	r5, #13
  4a:	d00c      	beq.n	66 <cmdRead+0x66>
  4c:	f1a5 0320 	sub.w	r3, r5, #32
  50:	b2db      	uxtb	r3, r3
  52:	2b5e      	cmp	r3, #94	; 0x5e
  54:	d907      	bls.n	66 <cmdRead+0x66>
  56:	2028      	movs	r0, #40	; 0x28
  58:	f7ff fffe 	bl	0 <cmdRead>
  5c:	4628      	mov	r0, r5
  5e:	f7ff fffe 	bl	0 <cmdRead>
  62:	2029      	movs	r0, #41	; 0x29
  64:	e000      	b.n	68 <cmdRead+0x68>
  66:	4628      	mov	r0, r5
  68:	f7ff fffe 	bl	0 <cmdRead>
  6c:	3401      	adds	r4, #1
  6e:	b2a4      	uxth	r4, r4
  70:	4e03      	ldr	r6, [pc, #12]	; (80 <cmdRead+0x80>)
  72:	f996 3010 	ldrsb.w	r3, [r6, #16]
  76:	2b00      	cmp	r3, #0
  78:	dad1      	bge.n	1e <cmdRead+0x1e>
  7a:	2001      	movs	r0, #1
  7c:	bd70      	pop	{r4, r5, r6, pc}
  7e:	bd70      	pop	{r4, r5, r6, pc}
  80:	00000000 	.word	0x00000000

Disassembly of section .text.putBufferUSART3:

00000000 <putBufferUSART3>:
putBufferUSART3():
   0:	b570      	push	{r4, r5, r6, lr}
   2:	4604      	mov	r4, r0
   4:	460e      	mov	r6, r1
   6:	2500      	movs	r5, #0
   8:	e005      	b.n	16 <putBufferUSART3+0x16>
   a:	f816 0b01 	ldrb.w	r0, [r6], #1
   e:	f7ff fffe 	bl	0 <putBufferUSART3>
  12:	3501      	adds	r5, #1
  14:	b2ad      	uxth	r5, r5
  16:	42a5      	cmp	r5, r4
  18:	d3f7      	bcc.n	a <putBufferUSART3+0xa>
  1a:	bd70      	pop	{r4, r5, r6, pc}

Disassembly of section .text.putstr:

00000000 <putstr>:
putstr():
   0:	b510      	push	{r4, lr}
   2:	4604      	mov	r4, r0
   4:	e001      	b.n	a <putstr+0xa>
   6:	f7ff fffe 	bl	0 <putstr>
   a:	f814 0b01 	ldrb.w	r0, [r4], #1
   e:	2800      	cmp	r0, #0
  10:	d1f9      	bne.n	6 <putstr+0x6>
  12:	bd10      	pop	{r4, pc}

Disassembly of section .text.cmdLs:

00000000 <cmdLs>:
cmdLs():
   0:	b538      	push	{r3, r4, r5, lr}
   2:	2404      	movs	r4, #4
   4:	e015      	b.n	32 <cmdLs+0x32>
   6:	4620      	mov	r0, r4
   8:	4912      	ldr	r1, [pc, #72]	; (54 <cmdLs+0x54>)
   a:	f7ff fffe 	bl	0 <fileGetName>
   e:	4605      	mov	r5, r0
  10:	b168      	cbz	r0, 2e <cmdLs+0x2e>
  12:	200d      	movs	r0, #13
  14:	f7ff fffe 	bl	0 <cmdLs>
  18:	480e      	ldr	r0, [pc, #56]	; (3c <cmdLs+0x3c>)
  1a:	f7ff fffe 	bl	0 <cmdLs>
  1e:	2009      	movs	r0, #9
  20:	f7ff fffe 	bl	0 <cmdLs>
  24:	4628      	mov	r0, r5
  26:	f7ff fffe 	bl	0 <fileGetLength>
  2a:	f7ff fffe 	bl	0 <cmdLs>
  2e:	3401      	adds	r4, #1
  30:	b2a4      	uxth	r4, r4
  32:	4b09      	ldr	r3, [pc, #36]	; (58 <cmdLs+0x58>)
  34:	69db      	ldr	r3, [r3, #28]
  36:	3304      	adds	r3, #4
  38:	429c      	cmp	r4, r3
  3a:	d3e4      	bcc.n	6 <cmdLs+0x6>
  3c:	4807      	ldr	r0, [pc, #28]	; (5c <cmdLs+0x5c>)
  3e:	f7ff fffe 	bl	0 <cmdLs>
  42:	f7ff fffe 	bl	0 <fileGetFreeSpace>
  46:	f7ff fffe 	bl	0 <cmdLs>
  4a:	200d      	movs	r0, #13
  4c:	f7ff fffe 	bl	0 <cmdLs>
  50:	2001      	movs	r0, #1
  52:	bd38      	pop	{r3, r4, r5, pc}
  54:	00000018 	.word	0x00000018
  58:	00000000 	.word	0x00000000
  5c:	00000001 	.word	0x00000001

Disassembly of section .text.bootBootOS:

00000000 <bootBootOS>:
bootBootOS():
   0:	4c0cb510 	.word	0x4c0cb510
   4:	6823      	ldr	r3, [r4, #0]
   6:	f1b3 3fff 	cmp.w	r3, #4294967295
   a:	d00b      	beq.n	24 <bootBootOS+0x24>
   c:	480a      	ldr	r0, [pc, #40]	; (38 <bootBootOS+0x38>)
   e:	f7ff fffe 	bl	0 <bootBootOS>
  12:	4a0a      	ldr	r2, [pc, #40]	; (3c <bootBootOS+0x3c>)
  14:	f44f 011f 	mov.w	r1, #10420224	; 0x9f0000
  18:	6823      	ldr	r3, [r4, #0]
  1a:	6091      	str	r1, [r2, #8]
  1c:	4908      	ldr	r1, [pc, #32]	; (40 <bootBootOS+0x40>)
  1e:	4a09      	ldr	r2, [pc, #36]	; (44 <bootBootOS+0x44>)
  20:	6091      	str	r1, [r2, #8]
  22:	4798      	blx	r3
  24:	4b08      	ldr	r3, [pc, #32]	; (48 <bootBootOS+0x48>)
  26:	4809      	ldr	r0, [pc, #36]	; (4c <bootBootOS+0x4c>)
  28:	2280      	movs	r2, #128	; 0x80
  2a:	705a      	strb	r2, [r3, #1]
  2c:	e8bd 4010 	ldmia.w	sp!, {r4, lr}
  30:	f7ff bffe 	b.w	0 <bootBootOS>
  34:	08002004 	.word	0x08002004
  38:	0000000a 	.word	0x0000000a
  3c:	40021000 	.word	0x40021000
  40:	08002000 	.word	0x08002000
  44:	e000ed00 	.word	0xe000ed00
  48:	00000000 	.word	0x00000000
  4c:	00000016 	.word	0x00000016

Disassembly of section .text.bootTestAndLoad:

00000000 <bootTestAndLoad>:
bootTestAndLoad():
   0:	b530      	push	{r4, r5, lr}
   2:	4824      	ldr	r0, [pc, #144]	; (94 <bootTestAndLoad+0x94>)
   4:	b091      	sub	sp, #68	; 0x44
   6:	f7ff fffe 	bl	0 <bootTestAndLoad>
   a:	4823      	ldr	r0, [pc, #140]	; (98 <bootTestAndLoad+0x98>)
   c:	4923      	ldr	r1, [pc, #140]	; (9c <bootTestAndLoad+0x9c>)
   e:	2201      	movs	r2, #1
  10:	f7ff fffe 	bl	0 <fileOpen>
  14:	2800      	cmp	r0, #0
  16:	d03b      	beq.n	90 <bootTestAndLoad+0x90>
  18:	f7ff fffe 	bl	0 <fpecEraseProgramMemory>
  1c:	4820      	ldr	r0, [pc, #128]	; (84 <bootTestAndLoad+0x84>)
  1e:	f7ff fffe 	bl	0 <bootTestAndLoad>
  22:	2500      	movs	r5, #0
  24:	e018      	b.n	58 <bootTestAndLoad+0x58>
  26:	2400      	movs	r4, #0
  28:	481b      	ldr	r0, [pc, #108]	; (98 <bootTestAndLoad+0x98>)
  2a:	f7ff fffe 	bl	0 <fileGetChar>
  2e:	280d      	cmp	r0, #13
  30:	f80d 0004 	strb.w	r0, [sp, r4]
  34:	d10d      	bne.n	52 <bootTestAndLoad+0x52>
  36:	ab10      	add	r3, sp, #64	; 0x40
  38:	191c      	adds	r4, r3, r4
  3a:	2300      	movs	r3, #0
  3c:	f804 3c40 	strb.w	r3, [r4, #-64]
  40:	2106      	movs	r1, #6
  42:	4668      	mov	r0, sp
  44:	f7ff fffe 	bl	0 <getNextSubString>
  48:	3001      	adds	r0, #1
  4a:	f7ff fffe 	bl	0 <fpecProcessIHEX>
  4e:	4605      	mov	r5, r0
  50:	e002      	b.n	58 <bootTestAndLoad+0x58>
  52:	3401      	adds	r4, #1
  54:	2c40      	cmp	r4, #64	; 0x40
  56:	d1e7      	bne.n	28 <bootTestAndLoad+0x28>
  58:	4b0f      	ldr	r3, [pc, #60]	; (98 <bootTestAndLoad+0x98>)
  5a:	f993 3010 	ldrsb.w	r3, [r3, #16]
  5e:	2b00      	cmp	r3, #0
  60:	db01      	blt.n	66 <bootTestAndLoad+0x66>
  62:	2dff      	cmp	r5, #255	; 0xff
  64:	d1df      	bne.n	26 <bootTestAndLoad+0x26>
  66:	4b0f      	ldr	r3, [pc, #60]	; (a4 <bootTestAndLoad+0xa4>)
  68:	2000      	movs	r0, #0
  6a:	6819      	ldr	r1, [r3, #0]
  6c:	f7ff fffe 	bl	0 <fpecWriteDescriptor>
  70:	4b0d      	ldr	r3, [pc, #52]	; (a8 <bootTestAndLoad+0xa8>)
  72:	2001      	movs	r0, #1
  74:	6819      	ldr	r1, [r3, #0]
  76:	f7ff fffe 	bl	0 <fpecWriteDescriptor>
  7a:	4b0c      	ldr	r3, [pc, #48]	; (ac <bootTestAndLoad+0xac>)
  7c:	2002      	movs	r0, #2
  7e:	6819      	ldr	r1, [r3, #0]
  80:	f7ff fffe 	bl	0 <fpecWriteDescriptor>
  84:	2003      	movs	r0, #3
  86:	f240 5114 	movw	r1, #1300	; 0x514
  8a:	f7ff fffe 	bl	0 <fpecWriteDescriptor>
  8e:	2001      	movs	r0, #1
  90:	b011      	add	sp, #68	; 0x44
  92:	bd30      	pop	{r4, r5, pc}
  94:	00000020 	.word	0x00000020
	...
  a0:	0000002a 	.word	0x0000002a
	...

Disassembly of section .text.cmdBoot:

00000000 <cmdBoot>:
cmdBoot():
   0:	f7ffb508 	.word	0xf7ffb508
   4:	fffe 4a02 	vtbl.8	d20, {d14-d16}, d2
   8:	4b02      	ldr	r3, [pc, #8]	; (14 <cmdBoot+0x14>)
   a:	60da      	str	r2, [r3, #12]
   c:	bd08      	pop	{r3, pc}
   e:	bf00      	nop
  10:	05fa0004 	.word	0x05fa0004
  14:	e000ed00 	.word	0xe000ed00

Disassembly of section .text.bootTest:

00000000 <bootTest>:
bootTest():
   0:	b570      	push	{r4, r5, r6, lr}
   2:	4827      	ldr	r0, [pc, #156]	; (a0 <bootTest+0xa0>)
   4:	b090      	sub	sp, #64	; 0x40
   6:	4927      	ldr	r1, [pc, #156]	; (a4 <bootTest+0xa4>)
   8:	2201      	movs	r2, #1
   a:	f7ff fffe 	bl	0 <fileOpen>
   e:	2800      	cmp	r0, #0
  10:	d139      	bne.n	86 <bootTest+0x86>
  12:	e043      	b.n	9c <bootTest+0x9c>
  14:	2400      	movs	r4, #0
  16:	4822      	ldr	r0, [pc, #136]	; (a0 <bootTest+0xa0>)
  18:	f7ff fffe 	bl	0 <fileGetChar>
  1c:	280d      	cmp	r0, #13
  1e:	f80d 0004 	strb.w	r0, [sp, r4]
  22:	d105      	bne.n	30 <bootTest+0x30>
  24:	ab10      	add	r3, sp, #64	; 0x40
  26:	191c      	adds	r4, r3, r4
  28:	2300      	movs	r3, #0
  2a:	f804 3c40 	strb.w	r3, [r4, #-64]
  2e:	e002      	b.n	36 <bootTest+0x36>
  30:	3401      	adds	r4, #1
  32:	2c40      	cmp	r4, #64	; 0x40
  34:	d1ef      	bne.n	16 <bootTest+0x16>
  36:	2106      	movs	r1, #6
  38:	4668      	mov	r0, sp
  3a:	f7ff fffe 	bl	0 <getNextSubString>
  3e:	7803      	ldrb	r3, [r0, #0]
  40:	4605      	mov	r5, r0
  42:	2b3a      	cmp	r3, #58	; 0x3a
  44:	d129      	bne.n	9a <bootTest+0x9a>
  46:	1c44      	adds	r4, r0, #1
  48:	4620      	mov	r0, r4
  4a:	4621      	mov	r1, r4
  4c:	f7ff fffe 	bl	0 <convertHexEncodedStringToBuffer>
  50:	78e0      	ldrb	r0, [r4, #3]
  52:	2801      	cmp	r0, #1
  54:	d01c      	beq.n	90 <bootTest+0x90>
  56:	7869      	ldrb	r1, [r5, #1]
  58:	2300      	movs	r3, #0
  5a:	3104      	adds	r1, #4
  5c:	461a      	mov	r2, r3
  5e:	f815 6f01 	ldrb.w	r6, [r5, #1]!
  62:	3201      	adds	r2, #1
  64:	199b      	adds	r3, r3, r6
  66:	428a      	cmp	r2, r1
  68:	b2db      	uxtb	r3, r3
  6a:	d3f8      	bcc.n	5e <bootTest+0x5e>
  6c:	425b      	negs	r3, r3
  6e:	5c62      	ldrb	r2, [r4, r1]
  70:	b2db      	uxtb	r3, r3
  72:	429a      	cmp	r2, r3
  74:	d111      	bne.n	9a <bootTest+0x9a>
  76:	7863      	ldrb	r3, [r4, #1]
  78:	78a2      	ldrb	r2, [r4, #2]
  7a:	b920      	cbnz	r0, 86 <bootTest+0x86>
  7c:	021b      	lsls	r3, r3, #8
  7e:	189b      	adds	r3, r3, r2
  80:	f5b3 5f00 	cmp.w	r3, #8192	; 0x2000
  84:	d30a      	bcc.n	9c <bootTest+0x9c>
  86:	4b06      	ldr	r3, [pc, #24]	; (a0 <bootTest+0xa0>)
  88:	f993 3010 	ldrsb.w	r3, [r3, #16]
  8c:	2b00      	cmp	r3, #0
  8e:	dac1      	bge.n	14 <bootTest+0x14>
  90:	4805      	ldr	r0, [pc, #20]	; (a8 <bootTest+0xa8>)
  92:	f7ff fffe 	bl	0 <bootTest>
  96:	2001      	movs	r0, #1
  98:	e000      	b.n	9c <bootTest+0x9c>
  9a:	2000      	movs	r0, #0
  9c:	b010      	add	sp, #64	; 0x40
  9e:	bd70      	pop	{r4, r5, r6, pc}
	...
  a8:	00000009 	.word	0x00000009

Disassembly of section .text.main:

00000000 <main>:
main():
   0:	b570      	push	{r4, r5, r6, lr}
   2:	f7ff fffe 	bl	0 <taskInit>
   6:	4d61      	ldr	r5, [pc, #388]	; (188 <socketInit+0x188>)
   8:	f7ff fffe 	bl	0 <socketInit>
   c:	f7ff fffe 	bl	0 <rfInit>
  10:	4b5f      	ldr	r3, [pc, #380]	; (190 <main+0x190>)
  12:	4960      	ldr	r1, [pc, #384]	; (194 <main+0x194>)
  14:	602b      	str	r3, [r5, #0]
  16:	680a      	ldr	r2, [r1, #0]
  18:	f240 4316 	movw	r3, #1046	; 0x416
  1c:	429a      	cmp	r2, r3
  1e:	4c5e      	ldr	r4, [pc, #376]	; (198 <main+0x198>)
  20:	4a5e      	ldr	r2, [pc, #376]	; (19c <main+0x19c>)
  22:	4b5f      	ldr	r3, [pc, #380]	; (1a0 <main+0x1a0>)
  24:	d10a      	bne.n	3c <main+0x3c>
  26:	495f      	ldr	r1, [pc, #380]	; (1a4 <main+0x1a4>)
  28:	6021      	str	r1, [r4, #0]
  2a:	495f      	ldr	r1, [pc, #380]	; (1a8 <main+0x1a8>)
  2c:	6011      	str	r1, [r2, #0]
  2e:	4a5f      	ldr	r2, [pc, #380]	; (1ac <main+0x1ac>)
  30:	2111      	movs	r1, #17
  32:	601a      	str	r2, [r3, #0]
  34:	4a5e      	ldr	r2, [pc, #376]	; (1b0 <main+0x1b0>)
  36:	6818      	ldr	r0, [r3, #0]
  38:	6011      	str	r1, [r2, #0]
  3a:	e01b      	b.n	74 <main+0x74>
  3c:	6808      	ldr	r0, [r1, #0]
  3e:	f5b0 6f84 	cmp.w	r0, #1056	; 0x420
  42:	d003      	beq.n	4c <main+0x4c>
  44:	6809      	ldr	r1, [r1, #0]
  46:	f5b1 6f85 	cmp.w	r1, #1064	; 0x428
  4a:	d107      	bne.n	5c <main+0x5c>
  4c:	4959      	ldr	r1, [pc, #356]	; (1b4 <main+0x1b4>)
  4e:	6021      	str	r1, [r4, #0]
  50:	4959      	ldr	r1, [pc, #356]	; (1b8 <main+0x1b8>)
  52:	6011      	str	r1, [r2, #0]
  54:	4a59      	ldr	r2, [pc, #356]	; (1bc <main+0x1bc>)
  56:	601a      	str	r2, [r3, #0]
  58:	6818      	ldr	r0, [r3, #0]
  5a:	e00b      	b.n	74 <main+0x74>
  5c:	4958      	ldr	r1, [pc, #352]	; (1c0 <main+0x1c0>)
  5e:	4859      	ldr	r0, [pc, #356]	; (1c4 <main+0x1c4>)
  60:	6021      	str	r1, [r4, #0]
  62:	4959      	ldr	r1, [pc, #356]	; (1c8 <main+0x1c8>)
  64:	6011      	str	r1, [r2, #0]
  66:	4a59      	ldr	r2, [pc, #356]	; (1cc <main+0x1cc>)
  68:	2112      	movs	r1, #18
  6a:	601a      	str	r2, [r3, #0]
  6c:	4a58      	ldr	r2, [pc, #352]	; (1d0 <main+0x1d0>)
  6e:	602a      	str	r2, [r5, #0]
  70:	4a4f      	ldr	r2, [pc, #316]	; (1b0 <main+0x1b0>)
  72:	6011      	str	r1, [r2, #0]
  74:	4a57      	ldr	r2, [pc, #348]	; (1d4 <main+0x1d4>)
  76:	6811      	ldr	r1, [r2, #0]
  78:	f441 3180 	orr.w	r1, r1, #65536	; 0x10000
  7c:	6011      	str	r1, [r2, #0]
  7e:	4a55      	ldr	r2, [pc, #340]	; (1d4 <main+0x1d4>)
  80:	6811      	ldr	r1, [r2, #0]
  82:	f411 3f00 	tst.w	r1, #131072	; 0x20000
  86:	d0fa      	beq.n	7e <main+0x7e>
  88:	2100      	movs	r1, #0
  8a:	6291      	str	r1, [r2, #40]	; 0x28
  8c:	6829      	ldr	r1, [r5, #0]
  8e:	6051      	str	r1, [r2, #4]
  90:	6811      	ldr	r1, [r2, #0]
  92:	f041 7180 	orr.w	r1, r1, #16777216	; 0x1000000
  96:	6011      	str	r1, [r2, #0]
  98:	4a4e      	ldr	r2, [pc, #312]	; (1d4 <main+0x1d4>)
  9a:	6811      	ldr	r1, [r2, #0]
  9c:	f011 7f00 	tst.w	r1, #33554432	; 0x2000000
  a0:	d0fa      	beq.n	98 <main+0x98>
  a2:	494d      	ldr	r1, [pc, #308]	; (1d8 <main+0x1d8>)
  a4:	f245 5555 	movw	r5, #21845	; 0x5555
  a8:	600d      	str	r5, [r1, #0]
  aa:	2505      	movs	r5, #5
  ac:	604d      	str	r5, [r1, #4]
  ae:	f640 75ff 	movw	r5, #4095	; 0xfff
  b2:	608d      	str	r5, [r1, #8]
  b4:	f64c 45cc 	movw	r5, #52428	; 0xcccc
  b8:	600d      	str	r5, [r1, #0]
  ba:	f64a 25aa 	movw	r5, #43690	; 0xaaaa
  be:	600d      	str	r5, [r1, #0]
  c0:	4946      	ldr	r1, [pc, #280]	; (1dc <main+0x1dc>)
  c2:	2580      	movs	r5, #128	; 0x80
  c4:	604d      	str	r5, [r1, #4]
  c6:	681e      	ldr	r6, [r3, #0]
  c8:	f44f 75fa 	mov.w	r5, #500	; 0x1f4
  cc:	fbb6 f6f5 	udiv	r6, r6, r5
  d0:	f841 6ce8 	str.w	r6, [r1, #-232]
  d4:	681b      	ldr	r3, [r3, #0]
  d6:	fbb3 f5f5 	udiv	r5, r3, r5
  da:	2307      	movs	r3, #7
  dc:	f841 5cec 	str.w	r5, [r1, #-236]
  e0:	f841 3cf0 	str.w	r3, [r1, #-240]
  e4:	6993      	ldr	r3, [r2, #24]
  e6:	f043 031c 	orr.w	r3, r3, #28
  ea:	6193      	str	r3, [r2, #24]
  ec:	69d3      	ldr	r3, [r2, #28]
  ee:	f443 2380 	orr.w	r3, r3, #262144	; 0x40000
  f2:	61d3      	str	r3, [r2, #28]
  f4:	4b3a      	ldr	r3, [pc, #232]	; (1e0 <main+0x1e0>)
  f6:	685a      	ldr	r2, [r3, #4]
  f8:	f422 427f 	bic.w	r2, r2, #65280	; 0xff00
  fc:	605a      	str	r2, [r3, #4]
  fe:	685a      	ldr	r2, [r3, #4]
 100:	f442 4296 	orr.w	r2, r2, #19200	; 0x4b00
 104:	605a      	str	r2, [r3, #4]
 106:	08c2      	lsrs	r2, r0, #3
 108:	f44f 3361 	mov.w	r3, #230400	; 0x38400
 10c:	fbb2 f2f3 	udiv	r2, r2, r3
 110:	fbb0 f3f3 	udiv	r3, r0, r3
 114:	f003 0307 	and.w	r3, r3, #7
 118:	eb03 1002 	add.w	r0, r3, r2, lsl #4
 11c:	4b31      	ldr	r3, [pc, #196]	; (1e4 <main+0x1e4>)
 11e:	b280      	uxth	r0, r0
 120:	f44f 6200 	mov.w	r2, #2048	; 0x800
 124:	8118      	strh	r0, [r3, #8]
 126:	829a      	strh	r2, [r3, #20]
 128:	f24a 022c 	movw	r2, #41004	; 0xa02c
 12c:	819a      	strh	r2, [r3, #12]
 12e:	482e      	ldr	r0, [pc, #184]	; (1e8 <main+0x1e8>)
 130:	f7ff fffe 	bl	0 <main>
 134:	6820      	ldr	r0, [r4, #0]
 136:	f7ff fffe 	bl	0 <main>
 13a:	482c      	ldr	r0, [pc, #176]	; (b4 <main+0xb4>)
 13c:	f7ff fffe 	bl	0 <main>
 140:	4b2b      	ldr	r3, [pc, #172]	; (1f0 <main+0x1f0>)
 142:	8818      	ldrh	r0, [r3, #0]
 144:	b280      	uxth	r0, r0
 146:	f7ff fffe 	bl	0 <main>
 14a:	200d      	movs	r0, #13
 14c:	f7ff fffe 	bl	0 <main>
 150:	f7ff fffe 	bl	0 <fileMountRoot>
 154:	f44f 717a 	mov.w	r1, #1000	; 0x3e8
 158:	4a26      	ldr	r2, [pc, #152]	; (1f4 <main+0x1f4>)
 15a:	4827      	ldr	r0, [pc, #156]	; (1f8 <main+0x1f8>)
 15c:	f7ff fffe 	bl	0 <taskNewSimple>
 160:	4a26      	ldr	r2, [pc, #152]	; (1fc <main+0x1fc>)
 162:	4827      	ldr	r0, [pc, #156]	; (200 <main+0x200>)
 164:	f44f 717a 	mov.w	r1, #1000	; 0x3e8
 168:	f7ff fffe 	bl	0 <taskNewSimple>
 16c:	4b25      	ldr	r3, [pc, #148]	; (204 <main+0x204>)
 16e:	2200      	movs	r2, #0
 170:	601a      	str	r2, [r3, #0]
 172:	681a      	ldr	r2, [r3, #0]
 174:	f5b2 6ffa 	cmp.w	r2, #2000	; 0x7d0
 178:	d3fb      	bcc.n	172 <main+0x172>
 17a:	4b23      	ldr	r3, [pc, #140]	; (208 <main+0x208>)
 17c:	785b      	ldrb	r3, [r3, #1]
 17e:	f013 0f80 	tst.w	r3, #128	; 0x80
 182:	d101      	bne.n	6 <main+0x6>
 184:	f7ff fffe 	bl	0 <main>
 188:	e7fe      	b.n	188 <main+0x188>
 18a:	bf00      	nop
 18c:	00000000 	.word	0x00000000
 190:	00010002 	.word	0x00010002
	...
 1a4:	0000000e 	.word	0x0000000e
 1a8:	00f42400 	.word	0x00f42400
 1ac:	01e84800 	.word	0x01e84800
 1b0:	40022000 	.word	0x40022000
 1b4:	00000013 	.word	0x00000013
 1b8:	00b71b00 	.word	0x00b71b00
 1bc:	016e3600 	.word	0x016e3600
 1c0:	00000018 	.word	0x00000018
 1c4:	02255100 	.word	0x02255100
 1c8:	007a1200 	.word	0x007a1200
 1cc:	044aa200 	.word	0x044aa200
 1d0:	001dc002 	.word	0x001dc002
 1d4:	40021000 	.word	0x40021000
 1d8:	40003000 	.word	0x40003000
 1dc:	e000e100 	.word	0xe000e100
 1e0:	40010c00 	.word	0x40010c00
 1e4:	40004800 	.word	0x40004800
 1e8:	0000002e 	.word	0x0000002e
 1ec:	00000044 	.word	0x00000044
 1f0:	1ffff7e0 	.word	0x1ffff7e0
 1f4:	00000000 	.word	0x00000000
 1f8:	0000004c 	.word	0x0000004c
 1fc:	00000000 	.word	0x00000000
 200:	00000053 	.word	0x00000053
	...

Disassembly of section .text.executeCmd:

00000000 <executeCmd>:
executeCmd():
   0:	460db5f8 	.word	0x460db5f8
   4:	2103      	movs	r1, #3
   6:	f7ff fffe 	bl	0 <getNextSubString>
   a:	2400      	movs	r4, #0
   c:	4607      	mov	r7, r0
   e:	480d      	ldr	r0, [pc, #52]	; (44 <executeCmd+0x44>)
  10:	f855 1034 	ldr.w	r1, [r5, r4, lsl #3]
  14:	eb05 06c4 	add.w	r6, r5, r4, lsl #3
  18:	f7ff fffe 	bl	0 <isStringSame>
  1c:	b978      	cbnz	r0, 3e <executeCmd+0x3e>
  1e:	4638      	mov	r0, r7
  20:	f855 1034 	ldr.w	r1, [r5, r4, lsl #3]
  24:	f7ff fffe 	bl	0 <isStringSame>
  28:	b130      	cbz	r0, 38 <executeCmd+0x38>
  2a:	6873      	ldr	r3, [r6, #4]
  2c:	4805      	ldr	r0, [pc, #20]	; (44 <executeCmd+0x44>)
  2e:	4798      	blx	r3
  30:	3800      	subs	r0, #0
  32:	bf18      	it	ne
  34:	2001      	movne	r0, #1
  36:	bdf8      	pop	{r3, r4, r5, r6, r7, pc}
  38:	3401      	adds	r4, #1
  3a:	b2a4      	uxth	r4, r4
  3c:	e7e7      	b.n	e <executeCmd+0xe>
  3e:	2000      	movs	r0, #0
  40:	bdf8      	pop	{r3, r4, r5, r6, r7, pc}
  42:	bf00      	nop
  44:	00000000 	.word	0x00000000

Disassembly of section .text.USART3_IRQHandler:

00000000 <USART3_IRQHandler>:
USART3_IRQHandler():
   0:	b570      	push	{r4, r5, r6, lr}
   2:	4b28      	ldr	r3, [pc, #160]	; (a4 <USART3_IRQHandler+0xa4>)
   4:	881a      	ldrh	r2, [r3, #0]
   6:	f012 0f20 	tst.w	r2, #32
   a:	d04a      	beq.n	a2 <USART3_IRQHandler+0xa2>
   c:	881a      	ldrh	r2, [r3, #0]
   e:	4826      	ldr	r0, [pc, #152]	; (a8 <USART3_IRQHandler+0xa8>)
  10:	f022 0220 	bic.w	r2, r2, #32
  14:	0412      	lsls	r2, r2, #16
  16:	0c12      	lsrs	r2, r2, #16
  18:	801a      	strh	r2, [r3, #0]
  1a:	889c      	ldrh	r4, [r3, #4]
  1c:	b2e4      	uxtb	r4, r4
  1e:	4621      	mov	r1, r4
  20:	f7ff fffe 	bl	0 <xmodemProcess>
  24:	2800      	cmp	r0, #0
  26:	d13c      	bne.n	a2 <USART3_IRQHandler+0xa2>
  28:	2c0d      	cmp	r4, #13
  2a:	4b20      	ldr	r3, [pc, #128]	; (ac <USART3_IRQHandler+0xac>)
  2c:	d005      	beq.n	3a <USART3_IRQHandler+0x3a>
  2e:	2c2b      	cmp	r4, #43	; 0x2b
  30:	d121      	bne.n	76 <USART3_IRQHandler+0x76>
  32:	785a      	ldrb	r2, [r3, #1]
  34:	f012 0f80 	tst.w	r2, #128	; 0x80
  38:	d11d      	bne.n	76 <USART3_IRQHandler+0x76>
  3a:	f893 1102 	ldrb.w	r1, [r3, #258]	; 0x102
  3e:	2200      	movs	r2, #0
  40:	1859      	adds	r1, r3, r1
  42:	2c2b      	cmp	r4, #43	; 0x2b
  44:	4d19      	ldr	r5, [pc, #100]	; (ac <USART3_IRQHandler+0xac>)
  46:	708a      	strb	r2, [r1, #2]
  48:	f883 2102 	strb.w	r2, [r3, #258]	; 0x102
  4c:	d107      	bne.n	5e <USART3_IRQHandler+0x5e>
  4e:	4818      	ldr	r0, [pc, #96]	; (b0 <USART3_IRQHandler+0xb0>)
  50:	f7ff fffe 	bl	0 <USART3_IRQHandler>
  54:	786b      	ldrb	r3, [r5, #1]
  56:	f043 0380 	orr.w	r3, r3, #128	; 0x80
  5a:	706b      	strb	r3, [r5, #1]
  5c:	bd70      	pop	{r4, r5, r6, pc}
  5e:	1ca8      	adds	r0, r5, #2
  60:	4914      	ldr	r1, [pc, #80]	; (b4 <USART3_IRQHandler+0xb4>)
  62:	f7ff fffe 	bl	0 <USART3_IRQHandler>
  66:	b108      	cbz	r0, 6c <USART3_IRQHandler+0x6c>
  68:	4813      	ldr	r0, [pc, #76]	; (b8 <USART3_IRQHandler+0xb8>)
  6a:	e000      	b.n	6e <USART3_IRQHandler+0x6e>
  6c:	4810      	ldr	r0, [pc, #64]	; (b0 <USART3_IRQHandler+0xb0>)
  6e:	e8bd 4070 	ldmia.w	sp!, {r4, r5, r6, lr}
  72:	f7ff bffe 	b.w	0 <USART3_IRQHandler>
  76:	785b      	ldrb	r3, [r3, #1]
  78:	4d0c      	ldr	r5, [pc, #48]	; (ac <USART3_IRQHandler+0xac>)
  7a:	f013 0f80 	tst.w	r3, #128	; 0x80
  7e:	d010      	beq.n	a2 <USART3_IRQHandler+0xa2>
  80:	4620      	mov	r0, r4
  82:	f7ff fffe 	bl	0 <USART3_IRQHandler>
  86:	2c08      	cmp	r4, #8
  88:	f895 3102 	ldrb.w	r3, [r5, #258]	; 0x102
  8c:	d104      	bne.n	98 <USART3_IRQHandler+0x98>
  8e:	b143      	cbz	r3, a2 <USART3_IRQHandler+0xa2>
  90:	3b01      	subs	r3, #1
  92:	f885 3102 	strb.w	r3, [r5, #258]	; 0x102
  96:	bd70      	pop	{r4, r5, r6, pc}
  98:	18ea      	adds	r2, r5, r3
  9a:	3301      	adds	r3, #1
  9c:	7094      	strb	r4, [r2, #2]
  9e:	f885 3102 	strb.w	r3, [r5, #258]	; 0x102
  a2:	bd70      	pop	{r4, r5, r6, pc}
  a4:	40004800 	.word	0x40004800
	...
  b0:	0000001d 	.word	0x0000001d
  b4:	00000028 	.word	0x00000028
  b8:	00000080 	.word	0x00000080
