
C:\Users\MightyDubster\Documents\Projects\pygmyos.code\bootv2\pygmy_xmodem.o:     file format elf32-littlearm
C:\Users\MightyDubster\Documents\Projects\pygmyos.code\bootv2\pygmy_xmodem.o


Disassembly of section .text.xmodemRecv:

00000000 <xmodemRecv>:
xmodemRecv():
   0:	b510      	push	{r4, lr}
   2:	2200      	movs	r2, #0
   4:	4604      	mov	r4, r0
   6:	4608      	mov	r0, r1
   8:	2102      	movs	r1, #2
   a:	f7ff fffe 	bl	0 <fileOpen>
   e:	6020      	str	r0, [r4, #0]
  10:	b150      	cbz	r0, 28 <xmodemRecv+0x28>
  12:	6863      	ldr	r3, [r4, #4]
  14:	2001      	movs	r0, #1
  16:	f043 0302 	orr.w	r3, r3, #2
  1a:	6063      	str	r3, [r4, #4]
  1c:	f44f 737a 	mov.w	r3, #1000	; 0x3e8
  20:	60a3      	str	r3, [r4, #8]
  22:	233c      	movs	r3, #60	; 0x3c
  24:	60e3      	str	r3, [r4, #12]
  26:	6120      	str	r0, [r4, #16]
  28:	bd10      	pop	{r4, pc}

Disassembly of section .text.xmodemSend:

00000000 <xmodemSend>:
xmodemSend():
   0:	b510      	push	{r4, lr}
   2:	2200      	movs	r2, #0
   4:	4604      	mov	r4, r0
   6:	4608      	mov	r0, r1
   8:	2101      	movs	r1, #1
   a:	f7ff fffe 	bl	0 <fileOpen>
   e:	6020      	str	r0, [r4, #0]
  10:	b140      	cbz	r0, 24 <xmodemSend+0x24>
  12:	f44f 737a 	mov.w	r3, #1000	; 0x3e8
  16:	60a3      	str	r3, [r4, #8]
  18:	230a      	movs	r3, #10
  1a:	2001      	movs	r0, #1
  1c:	60e3      	str	r3, [r4, #12]
  1e:	330e      	adds	r3, #14
  20:	6120      	str	r0, [r4, #16]
  22:	6063      	str	r3, [r4, #4]
  24:	bd10      	pop	{r4, pc}

Disassembly of section .text.xmodemWritePacket:

00000000 <xmodemWritePacket>:
xmodemWritePacket():
   0:	b510      	push	{r4, lr}
   2:	7d82      	ldrb	r2, [r0, #22]
   4:	f100 0116 	add.w	r1, r0, #22
   8:	2301      	movs	r3, #1
   a:	5ccc      	ldrb	r4, [r1, r3]
   c:	3301      	adds	r3, #1
   e:	b2db      	uxtb	r3, r3
  10:	1912      	adds	r2, r2, r4
  12:	2b80      	cmp	r3, #128	; 0x80
  14:	b2d2      	uxtb	r2, r2
  16:	d1f8      	bne.n	a <xmodemWritePacket+0xa>
  18:	f890 0096 	ldrb.w	r0, [r0, #150]	; 0x96
  1c:	1a83      	subs	r3, r0, r2
  1e:	4258      	negs	r0, r3
  20:	eb40 0003 	adc.w	r0, r0, r3
  24:	bd10      	pop	{r4, pc}

Disassembly of section .text.xmodemSendPacket:

00000000 <xmodemSendPacket>:
xmodemSendPacket():
   0:	e92d 41f0 	stmdb	sp!, {r4, r5, r6, r7, r8, lr}
   4:	4604      	mov	r4, r0
   6:	f100 0514 	add.w	r5, r0, #20
   a:	b9a1      	cbnz	r1, 36 <xmodemSendPacket+0x36>
   c:	2301      	movs	r3, #1
   e:	7503      	strb	r3, [r0, #20]
  10:	7c03      	ldrb	r3, [r0, #16]
  12:	4606      	mov	r6, r0
  14:	7543      	strb	r3, [r0, #21]
  16:	43db      	mvns	r3, r3
  18:	7583      	strb	r3, [r0, #22]
  1a:	f100 0880 	add.w	r8, r0, #128	; 0x80
  1e:	460f      	mov	r7, r1
  20:	4620      	mov	r0, r4
  22:	f7ff fffe 	bl	0 <fileGetChar>
  26:	75f0      	strb	r0, [r6, #23]
  28:	3601      	adds	r6, #1
  2a:	183f      	adds	r7, r7, r0
  2c:	4546      	cmp	r6, r8
  2e:	b2ff      	uxtb	r7, r7
  30:	d1f6      	bne.n	20 <xmodemSendPacket+0x20>
  32:	f884 7097 	strb.w	r7, [r4, #151]	; 0x97
  36:	2084      	movs	r0, #132	; 0x84
  38:	4629      	mov	r1, r5
  3a:	e8bd 41f0 	ldmia.w	sp!, {r4, r5, r6, r7, r8, lr}
  3e:	f7ff bffe 	b.w	0 <putBufferUSART3>

Disassembly of section .text.xmodemProcessTimer:

00000000 <xmodemProcessTimer>:
xmodemProcessTimer():
   0:	6843      	ldr	r3, [r0, #4]
   2:	b510      	push	{r4, lr}
   4:	f013 0f02 	tst.w	r3, #2
   8:	4604      	mov	r4, r0
   a:	d010      	beq.n	2e <xmodemProcessTimer+0x2e>
   c:	6883      	ldr	r3, [r0, #8]
   e:	b99b      	cbnz	r3, 38 <xmodemProcessTimer+0x38>
  10:	2001      	movs	r0, #1
  12:	4913      	ldr	r1, [pc, #76]	; (60 <xmodemProcessTimer+0x60>)
  14:	2215      	movs	r2, #21
  16:	f7ff fffe 	bl	0 <print>
  1a:	f44f 737a 	mov.w	r3, #1000	; 0x3e8
  1e:	60a3      	str	r3, [r4, #8]
  20:	68e3      	ldr	r3, [r4, #12]
  22:	b9a3      	cbnz	r3, 4e <xmodemProcessTimer+0x4e>
  24:	6863      	ldr	r3, [r4, #4]
  26:	f023 0306 	bic.w	r3, r3, #6
  2a:	6063      	str	r3, [r4, #4]
  2c:	bd10      	pop	{r4, pc}
  2e:	f013 0f08 	tst.w	r3, #8
  32:	d013      	beq.n	5c <xmodemProcessTimer+0x5c>
  34:	6883      	ldr	r3, [r0, #8]
  36:	b113      	cbz	r3, 3e <xmodemProcessTimer+0x3e>
  38:	3b01      	subs	r3, #1
  3a:	60a3      	str	r3, [r4, #8]
  3c:	bd10      	pop	{r4, pc}
  3e:	2101      	movs	r1, #1
  40:	f7ff fffe 	bl	0 <xmodemProcessTimer>
  44:	f44f 737a 	mov.w	r3, #1000	; 0x3e8
  48:	60a3      	str	r3, [r4, #8]
  4a:	68e3      	ldr	r3, [r4, #12]
  4c:	b113      	cbz	r3, 54 <xmodemProcessTimer+0x54>
  4e:	3b01      	subs	r3, #1
  50:	60e3      	str	r3, [r4, #12]
  52:	bd10      	pop	{r4, pc}
  54:	6863      	ldr	r3, [r4, #4]
  56:	f023 0328 	bic.w	r3, r3, #40	; 0x28
  5a:	6063      	str	r3, [r4, #4]
  5c:	bd10      	pop	{r4, pc}
  5e:	bf00      	nop
  60:	00000000 	.word	0x00000000

Disassembly of section .text.xmodemProcess:

00000000 <xmodemProcess>:
xmodemProcess():
   0:	b538      	push	{r3, r4, r5, lr}
   2:	6843      	ldr	r3, [r0, #4]
   4:	460a      	mov	r2, r1
   6:	f013 0102 	ands.w	r1, r3, #2
   a:	4604      	mov	r4, r0
   c:	d03f      	beq.n	8e <xmodemProcess+0x8e>
   e:	f013 0f04 	tst.w	r3, #4
  12:	d022      	beq.n	5a <xmodemProcess+0x5a>
  14:	f890 1098 	ldrb.w	r1, [r0, #152]	; 0x98
  18:	1845      	adds	r5, r0, r1
  1a:	752a      	strb	r2, [r5, #20]
  1c:	1c4a      	adds	r2, r1, #1
  1e:	b2d2      	uxtb	r2, r2
  20:	2a83      	cmp	r2, #131	; 0x83
  22:	f880 2098 	strb.w	r2, [r0, #152]	; 0x98
  26:	d16f      	bne.n	108 <xmodemProcess+0x108>
  28:	f023 0304 	bic.w	r3, r3, #4
  2c:	6043      	str	r3, [r0, #4]
  2e:	6905      	ldr	r5, [r0, #16]
  30:	7d03      	ldrb	r3, [r0, #20]
  32:	429d      	cmp	r5, r3
  34:	d10d      	bne.n	52 <xmodemProcess+0x52>
  36:	f7ff fffe 	bl	0 <xmodemProcess>
  3a:	b150      	cbz	r0, 52 <xmodemProcess+0x52>
  3c:	2dff      	cmp	r5, #255	; 0xff
  3e:	d102      	bne.n	46 <xmodemProcess+0x46>
  40:	2300      	movs	r3, #0
  42:	6123      	str	r3, [r4, #16]
  44:	e001      	b.n	4a <xmodemProcess+0x4a>
  46:	3501      	adds	r5, #1
  48:	6125      	str	r5, [r4, #16]
  4a:	2001      	movs	r0, #1
  4c:	4930      	ldr	r1, [pc, #192]	; (110 <xmodemProcess+0x110>)
  4e:	2206      	movs	r2, #6
  50:	e058      	b.n	104 <xmodemProcess+0x104>
  52:	2001      	movs	r0, #1
  54:	492e      	ldr	r1, [pc, #184]	; (110 <xmodemProcess+0x110>)
  56:	2215      	movs	r2, #21
  58:	e054      	b.n	104 <xmodemProcess+0x104>
  5a:	2a01      	cmp	r2, #1
  5c:	d108      	bne.n	70 <xmodemProcess+0x70>
  5e:	f043 0304 	orr.w	r3, r3, #4
  62:	6043      	str	r3, [r0, #4]
  64:	f44f 737a 	mov.w	r3, #1000	; 0x3e8
  68:	6083      	str	r3, [r0, #8]
  6a:	230a      	movs	r3, #10
  6c:	60c3      	str	r3, [r0, #12]
  6e:	e00a      	b.n	86 <xmodemProcess+0x86>
  70:	2a04      	cmp	r2, #4
  72:	d001      	beq.n	78 <xmodemProcess+0x78>
  74:	2a18      	cmp	r2, #24
  76:	d106      	bne.n	86 <xmodemProcess+0x86>
  78:	2300      	movs	r3, #0
  7a:	6063      	str	r3, [r4, #4]
  7c:	2001      	movs	r0, #1
  7e:	4924      	ldr	r1, [pc, #144]	; (110 <xmodemProcess+0x110>)
  80:	2206      	movs	r2, #6
  82:	f7ff fffe 	bl	0 <print>
  86:	2300      	movs	r3, #0
  88:	f884 3098 	strb.w	r3, [r4, #152]	; 0x98
  8c:	e03c      	b.n	108 <xmodemProcess+0x108>
  8e:	f013 0508 	ands.w	r5, r3, #8
  92:	d03a      	beq.n	10a <xmodemProcess+0x10a>
  94:	2a06      	cmp	r2, #6
  96:	d11a      	bne.n	ce <xmodemProcess+0xce>
  98:	f013 0220 	ands.w	r2, r3, #32
  9c:	d001      	beq.n	a2 <xmodemProcess+0xa2>
  9e:	6041      	str	r1, [r0, #4]
  a0:	bd38      	pop	{r3, r4, r5, pc}
  a2:	f44f 717a 	mov.w	r1, #1000	; 0x3e8
  a6:	6081      	str	r1, [r0, #8]
  a8:	210a      	movs	r1, #10
  aa:	60c1      	str	r1, [r0, #12]
  ac:	6801      	ldr	r1, [r0, #0]
  ae:	f991 1024 	ldrsb.w	r1, [r1, #36]	; 0x24
  b2:	2900      	cmp	r1, #0
  b4:	da06      	bge.n	c4 <xmodemProcess+0xc4>
  b6:	f043 0320 	orr.w	r3, r3, #32
  ba:	6043      	str	r3, [r0, #4]
  bc:	4914      	ldr	r1, [pc, #80]	; (110 <xmodemProcess+0x110>)
  be:	2001      	movs	r0, #1
  c0:	2204      	movs	r2, #4
  c2:	e01f      	b.n	104 <xmodemProcess+0x104>
  c4:	6903      	ldr	r3, [r0, #16]
  c6:	4611      	mov	r1, r2
  c8:	3301      	adds	r3, #1
  ca:	6103      	str	r3, [r0, #16]
  cc:	e011      	b.n	f2 <xmodemProcess+0xf2>
  ce:	2a15      	cmp	r2, #21
  d0:	d112      	bne.n	f8 <xmodemProcess+0xf8>
  d2:	f44f 727a 	mov.w	r2, #1000	; 0x3e8
  d6:	6082      	str	r2, [r0, #8]
  d8:	220a      	movs	r2, #10
  da:	f013 0f10 	tst.w	r3, #16
  de:	60c2      	str	r2, [r0, #12]
  e0:	d006      	beq.n	f0 <xmodemProcess+0xf0>
  e2:	f7ff fffe 	bl	0 <xmodemProcess>
  e6:	6863      	ldr	r3, [r4, #4]
  e8:	f023 0310 	bic.w	r3, r3, #16
  ec:	6063      	str	r3, [r4, #4]
  ee:	e00b      	b.n	108 <xmodemProcess+0x108>
  f0:	2101      	movs	r1, #1
  f2:	f7ff fffe 	bl	0 <xmodemProcess>
  f6:	e007      	b.n	108 <xmodemProcess+0x108>
  f8:	2a18      	cmp	r2, #24
  fa:	d105      	bne.n	108 <xmodemProcess+0x108>
  fc:	6041      	str	r1, [r0, #4]
  fe:	4904      	ldr	r1, [pc, #16]	; (110 <xmodemProcess+0x110>)
 100:	2001      	movs	r0, #1
 102:	3a12      	subs	r2, #18
 104:	f7ff fffe 	bl	0 <print>
 108:	2501      	movs	r5, #1
 10a:	4628      	mov	r0, r5
 10c:	bd38      	pop	{r3, r4, r5, pc}
 10e:	bf00      	nop
 110:	00000000 	.word	0x00000000
