
C:\Users\MightyDubster\Documents\Projects\pygmyos.code\bootv2\pygmy_socket.o:     file format elf32-littlearm
C:\Users\MightyDubster\Documents\Projects\pygmyos.code\bootv2\pygmy_socket.o


Disassembly of section .text.socketGetID:

00000000 <socketGetID>:
socketGetID():
   0:	4b01      	ldr	r3, [pc, #4]	; (8 <socketGetID+0x8>)
   2:	6818      	ldr	r0, [r3, #0]
   4:	4770      	bx	lr
   6:	bf00      	nop
   8:	00000000 	.word	0x00000000

Disassembly of section .text.putsSOCKET:

00000000 <putsSOCKET>:
putsSOCKET():
   0:	4770      	bx	lr

Disassembly of section .text.socketInit:

00000000 <socketInit>:
socketInit():
   0:	b570      	push	{r4, r5, r6, lr}
   2:	f7ff fffe 	bl	0 <sysGetID>
   6:	2101      	movs	r1, #1
   8:	4605      	mov	r5, r0
   a:	4a11      	ldr	r2, [pc, #68]	; (50 <socketInit+0x50>)
   c:	2000      	movs	r0, #0
   e:	f7ff fffe 	bl	0 <pdiaEncode>
  12:	2400      	movs	r4, #0
  14:	5d28      	ldrb	r0, [r5, r4]
  16:	2102      	movs	r1, #2
  18:	4a0d      	ldr	r2, [pc, #52]	; (50 <socketInit+0x50>)
  1a:	3401      	adds	r4, #1
  1c:	f7ff fffe 	bl	0 <pdiaEncode>
  20:	2c0c      	cmp	r4, #12
  22:	d1f7      	bne.n	14 <socketInit+0x14>
  24:	2104      	movs	r1, #4
  26:	4a0a      	ldr	r2, [pc, #40]	; (50 <socketInit+0x50>)
  28:	2000      	movs	r0, #0
  2a:	f7ff fffe 	bl	0 <pdiaEncode>
  2e:	2074      	movs	r0, #116	; 0x74
  30:	f7ff fffe 	bl	0 <sysAllocate>
  34:	4b07      	ldr	r3, [pc, #28]	; (54 <socketInit+0x54>)
  36:	2200      	movs	r2, #0
  38:	6018      	str	r0, [r3, #0]
  3a:	4b07      	ldr	r3, [pc, #28]	; (58 <socketInit+0x58>)
  3c:	4807      	ldr	r0, [pc, #28]	; (5c <socketInit+0x5c>)
  3e:	701a      	strb	r2, [r3, #0]
  40:	4a07      	ldr	r2, [pc, #28]	; (60 <socketInit+0x60>)
  42:	f241 3188 	movw	r1, #5000	; 0x1388
  46:	e8bd 4070 	ldmia.w	sp!, {r4, r5, r6, lr}
  4a:	f7ff bffe 	b.w	0 <taskNewSimple>
  4e:	bf00      	nop
	...

Disassembly of section .text.socketResend:

00000000 <socketResend>:
socketResend():
   0:	4b06      	ldr	r3, [pc, #24]	; (1c <socketResend+0x1c>)
   2:	f64a 22aa 	movw	r2, #43690	; 0xaaaa
   6:	601a      	str	r2, [r3, #0]
   8:	4601      	mov	r1, r0
   a:	f890 0042 	ldrb.w	r0, [r0, #66]	; 0x42
   e:	2820      	cmp	r0, #32
  10:	d802      	bhi.n	18 <socketResend+0x18>
  12:	3150      	adds	r1, #80	; 0x50
  14:	f7ff bffe 	b.w	0 <rfPutTXBuffer>
  18:	4770      	bx	lr
  1a:	bf00      	nop
  1c:	40003000 	.word	0x40003000

Disassembly of section .text.socketGet:

00000000 <socketGet>:
socketGet():
   0:	b570      	push	{r4, r5, r6, lr}
   2:	4a0e      	ldr	r2, [pc, #56]	; (3c <socketGet+0x3c>)
   4:	4603      	mov	r3, r0
   6:	f64a 20aa 	movw	r0, #43690	; 0xaaaa
   a:	6010      	str	r0, [r2, #0]
   c:	4a0c      	ldr	r2, [pc, #48]	; (40 <socketGet+0x40>)
   e:	2400      	movs	r4, #0
  10:	7816      	ldrb	r6, [r2, #0]
  12:	4a0c      	ldr	r2, [pc, #48]	; (44 <socketGet+0x44>)
  14:	6812      	ldr	r2, [r2, #0]
  16:	e00d      	b.n	34 <socketGet+0x34>
  18:	6b55      	ldr	r5, [r2, #52]	; 0x34
  1a:	4610      	mov	r0, r2
  1c:	429d      	cmp	r5, r3
  1e:	d00c      	beq.n	3a <socketGet+0x3a>
  20:	428d      	cmp	r5, r1
  22:	d00a      	beq.n	3a <socketGet+0x3a>
  24:	6b95      	ldr	r5, [r2, #56]	; 0x38
  26:	429d      	cmp	r5, r3
  28:	d007      	beq.n	3a <socketGet+0x3a>
  2a:	3274      	adds	r2, #116	; 0x74
  2c:	428d      	cmp	r5, r1
  2e:	d004      	beq.n	3a <socketGet+0x3a>
  30:	3401      	adds	r4, #1
  32:	b2e4      	uxtb	r4, r4
  34:	42b4      	cmp	r4, r6
  36:	d3ef      	bcc.n	18 <socketGet+0x18>
  38:	2000      	movs	r0, #0
  3a:	bd70      	pop	{r4, r5, r6, pc}
  3c:	40003000 	.word	0x40003000
	...

Disassembly of section .text.socketOpenFromPacket:

00000000 <socketOpenFromPacket>:
socketOpenFromPacket():
   0:	4b2d      	ldr	r3, [pc, #180]	; (b8 <socketOpenFromPacket+0xb8>)
   2:	f64a 22aa 	movw	r2, #43690	; 0xaaaa
   6:	e92d 41f0 	stmdb	sp!, {r4, r5, r6, r7, r8, lr}
   a:	601a      	str	r2, [r3, #0]
   c:	4606      	mov	r6, r0
   e:	6871      	ldr	r1, [r6, #4]
  10:	6800      	ldr	r0, [r0, #0]
  12:	f7ff fffe 	bl	0 <socketOpenFromPacket>
  16:	4605      	mov	r5, r0
  18:	2800      	cmp	r0, #0
  1a:	d149      	bne.n	b0 <socketOpenFromPacket+0xb0>
  1c:	4f27      	ldr	r7, [pc, #156]	; (bc <socketOpenFromPacket+0xbc>)
  1e:	f8df 80a4 	ldr.w	r8, [pc, #164]	; c4 <socketOpenFromPacket+0xc4>
  22:	783b      	ldrb	r3, [r7, #0]
  24:	2174      	movs	r1, #116	; 0x74
  26:	3301      	adds	r3, #1
  28:	f8d8 0000 	ldr.w	r0, [r8]
  2c:	4359      	muls	r1, r3
  2e:	f7ff fffe 	bl	0 <sysReallocate>
  32:	4604      	mov	r4, r0
  34:	2800      	cmp	r0, #0
  36:	d03c      	beq.n	b2 <socketOpenFromPacket+0xb2>
  38:	f8c8 0000 	str.w	r0, [r8]
  3c:	f7ff fffe 	bl	0 <timeGet>
  40:	4a1f      	ldr	r2, [pc, #124]	; (c0 <socketOpenFromPacket+0xc0>)
  42:	6833      	ldr	r3, [r6, #0]
  44:	6812      	ldr	r2, [r2, #0]
  46:	6363      	str	r3, [r4, #52]	; 0x34
  48:	f022 02ff 	bic.w	r2, r2, #255	; 0xff
  4c:	f003 03ff 	and.w	r3, r3, #255	; 0xff
  50:	62a0      	str	r0, [r4, #40]	; 0x28
  52:	62e0      	str	r0, [r4, #44]	; 0x2c
  54:	4313      	orrs	r3, r2
  56:	300a      	adds	r0, #10
  58:	6320      	str	r0, [r4, #48]	; 0x30
  5a:	63a3      	str	r3, [r4, #56]	; 0x38
  5c:	7ab3      	ldrb	r3, [r6, #10]
  5e:	f884 303c 	strb.w	r3, [r4, #60]	; 0x3c
  62:	7b73      	ldrb	r3, [r6, #13]
  64:	f884 503e 	strb.w	r5, [r4, #62]	; 0x3e
  68:	f884 303d 	strb.w	r3, [r4, #61]	; 0x3d
  6c:	2304      	movs	r3, #4
  6e:	f884 5040 	strb.w	r5, [r4, #64]	; 0x40
  72:	f884 3041 	strb.w	r3, [r4, #65]	; 0x41
  76:	6465      	str	r5, [r4, #68]	; 0x44
  78:	f884 5048 	strb.w	r5, [r4, #72]	; 0x48
  7c:	f884 5049 	strb.w	r5, [r4, #73]	; 0x49
  80:	f884 5070 	strb.w	r5, [r4, #112]	; 0x70
  84:	7b73      	ldrb	r3, [r6, #13]
  86:	2b04      	cmp	r3, #4
  88:	d10d      	bne.n	a6 <socketOpenFromPacket+0xa6>
  8a:	360e      	adds	r6, #14
  8c:	4630      	mov	r0, r6
  8e:	f7ff fffe 	bl	0 <len>
  92:	3001      	adds	r0, #1
  94:	f7ff fffe 	bl	0 <sysAllocate>
  98:	4601      	mov	r1, r0
  9a:	64e0      	str	r0, [r4, #76]	; 0x4c
  9c:	b120      	cbz	r0, a8 <socketOpenFromPacket+0xa8>
  9e:	4630      	mov	r0, r6
  a0:	f7ff fffe 	bl	0 <copyString>
  a4:	e000      	b.n	a8 <socketOpenFromPacket+0xa8>
  a6:	64e5      	str	r5, [r4, #76]	; 0x4c
  a8:	783b      	ldrb	r3, [r7, #0]
  aa:	3301      	adds	r3, #1
  ac:	703b      	strb	r3, [r7, #0]
  ae:	e000      	b.n	b2 <socketOpenFromPacket+0xb2>
  b0:	2400      	movs	r4, #0
  b2:	4620      	mov	r0, r4
  b4:	e8bd 81f0 	ldmia.w	sp!, {r4, r5, r6, r7, r8, pc}
  b8:	40003000 	.word	0x40003000
	...

Disassembly of section .text.socketOpen:

00000000 <socketOpen>:
socketOpen():
   0:	b500      	push	{lr}
   2:	b08b      	sub	sp, #44	; 0x2c
   4:	9000      	str	r0, [sp, #0]
   6:	2300      	movs	r3, #0
   8:	4668      	mov	r0, sp
   a:	9301      	str	r3, [sp, #4]
   c:	f88d 100d 	strb.w	r1, [sp, #13]
  10:	f7ff fffe 	bl	0 <socketOpen>
  14:	b00b      	add	sp, #44	; 0x2c
  16:	bd00      	pop	{pc}

Disassembly of section .text.socketCopy:

00000000 <socketCopy>:
socketCopy():
   0:	b538      	push	{r3, r4, r5, lr}
   2:	4b23      	ldr	r3, [pc, #140]	; (90 <socketCopy+0x90>)
   4:	f64a 22aa 	movw	r2, #43690	; 0xaaaa
   8:	4605      	mov	r5, r0
   a:	601a      	str	r2, [r3, #0]
   c:	460c      	mov	r4, r1
   e:	f7ff fffe 	bl	0 <fileCopyHandle>
  12:	6aab      	ldr	r3, [r5, #40]	; 0x28
  14:	62a3      	str	r3, [r4, #40]	; 0x28
  16:	6aeb      	ldr	r3, [r5, #44]	; 0x2c
  18:	62e3      	str	r3, [r4, #44]	; 0x2c
  1a:	6b2b      	ldr	r3, [r5, #48]	; 0x30
  1c:	6323      	str	r3, [r4, #48]	; 0x30
  1e:	6b6b      	ldr	r3, [r5, #52]	; 0x34
  20:	6363      	str	r3, [r4, #52]	; 0x34
  22:	6bab      	ldr	r3, [r5, #56]	; 0x38
  24:	63a3      	str	r3, [r4, #56]	; 0x38
  26:	f895 303c 	ldrb.w	r3, [r5, #60]	; 0x3c
  2a:	f884 303c 	strb.w	r3, [r4, #60]	; 0x3c
  2e:	f895 303d 	ldrb.w	r3, [r5, #61]	; 0x3d
  32:	f884 303d 	strb.w	r3, [r4, #61]	; 0x3d
  36:	f895 303e 	ldrb.w	r3, [r5, #62]	; 0x3e
  3a:	f884 303e 	strb.w	r3, [r4, #62]	; 0x3e
  3e:	f895 303f 	ldrb.w	r3, [r5, #63]	; 0x3f
  42:	f884 303f 	strb.w	r3, [r4, #63]	; 0x3f
  46:	f895 3040 	ldrb.w	r3, [r5, #64]	; 0x40
  4a:	f884 3040 	strb.w	r3, [r4, #64]	; 0x40
  4e:	f895 3041 	ldrb.w	r3, [r5, #65]	; 0x41
  52:	f884 3041 	strb.w	r3, [r4, #65]	; 0x41
  56:	f895 3042 	ldrb.w	r3, [r5, #66]	; 0x42
  5a:	f884 3042 	strb.w	r3, [r4, #66]	; 0x42
  5e:	6c6b      	ldr	r3, [r5, #68]	; 0x44
  60:	6463      	str	r3, [r4, #68]	; 0x44
  62:	f895 3048 	ldrb.w	r3, [r5, #72]	; 0x48
  66:	f884 3048 	strb.w	r3, [r4, #72]	; 0x48
  6a:	f895 3049 	ldrb.w	r3, [r5, #73]	; 0x49
  6e:	f884 3049 	strb.w	r3, [r4, #73]	; 0x49
  72:	f895 3070 	ldrb.w	r3, [r5, #112]	; 0x70
  76:	f884 3070 	strb.w	r3, [r4, #112]	; 0x70
  7a:	2300      	movs	r3, #0
  7c:	18e9      	adds	r1, r5, r3
  7e:	18e2      	adds	r2, r4, r3
  80:	f891 1050 	ldrb.w	r1, [r1, #80]	; 0x50
  84:	3301      	adds	r3, #1
  86:	2b20      	cmp	r3, #32
  88:	f882 1050 	strb.w	r1, [r2, #80]	; 0x50
  8c:	d1f6      	bne.n	7c <socketCopy+0x7c>
  8e:	bd38      	pop	{r3, r4, r5, pc}
  90:	40003000 	.word	0x40003000

Disassembly of section .text.socketClose:

00000000 <socketClose>:
socketClose():
   0:	4b1cb5f8 	.word	0x4b1cb5f8
   4:	f64a 22aa 	movw	r2, #43690	; 0xaaaa
   8:	601a      	str	r2, [r3, #0]
   a:	f890 303d 	ldrb.w	r3, [r0, #61]	; 0x3d
   e:	4604      	mov	r4, r0
  10:	f003 037f 	and.w	r3, r3, #127	; 0x7f
  14:	2b02      	cmp	r3, #2
  16:	d101      	bne.n	1c <socketClose+0x1c>
  18:	f7ff fffe 	bl	0 <fileClose>
  1c:	6ce0      	ldr	r0, [r4, #76]	; 0x4c
  1e:	2300      	movs	r3, #0
  20:	6363      	str	r3, [r4, #52]	; 0x34
  22:	63a3      	str	r3, [r4, #56]	; 0x38
  24:	b108      	cbz	r0, 2a <socketClose+0x2a>
  26:	f7ff fffe 	bl	0 <sysFree>
  2a:	6c60      	ldr	r0, [r4, #68]	; 0x44
  2c:	b108      	cbz	r0, 32 <socketClose+0x32>
  2e:	f7ff fffe 	bl	0 <sysFree>
  32:	4e11      	ldr	r6, [pc, #68]	; (78 <socketClose+0x78>)
  34:	7830      	ldrb	r0, [r6, #0]
  36:	b1e0      	cbz	r0, 72 <socketClose+0x72>
  38:	2374      	movs	r3, #116	; 0x74
  3a:	3801      	subs	r0, #1
  3c:	4358      	muls	r0, r3
  3e:	f7ff fffe 	bl	0 <sysAllocate>
  42:	4605      	mov	r5, r0
  44:	b1a8      	cbz	r0, 72 <socketClose+0x72>
  46:	7833      	ldrb	r3, [r6, #0]
  48:	2400      	movs	r4, #0
  4a:	3b01      	subs	r3, #1
  4c:	7033      	strb	r3, [r6, #0]
  4e:	e008      	b.n	62 <socketClose+0x62>
  50:	2174      	movs	r1, #116	; 0x74
  52:	4361      	muls	r1, r4
  54:	6838      	ldr	r0, [r7, #0]
  56:	3401      	adds	r4, #1
  58:	1840      	adds	r0, r0, r1
  5a:	1869      	adds	r1, r5, r1
  5c:	f7ff fffe 	bl	0 <socketClose>
  60:	b2e4      	uxtb	r4, r4
  62:	7833      	ldrb	r3, [r6, #0]
  64:	4f05      	ldr	r7, [pc, #20]	; (7c <socketClose+0x7c>)
  66:	42a3      	cmp	r3, r4
  68:	d8f2      	bhi.n	50 <socketClose+0x50>
  6a:	6838      	ldr	r0, [r7, #0]
  6c:	f7ff fffe 	bl	0 <sysFree>
  70:	603d      	str	r5, [r7, #0]
  72:	bdf8      	pop	{r3, r4, r5, r6, r7, pc}
  74:	40003000 	.word	0x40003000
	...

Disassembly of section .text.threadSocketMonitor:

00000000 <threadSocketMonitor>:
threadSocketMonitor():
   0:	2400b570 	.word	0x2400b570
   4:	e02e      	b.n	64 <threadSocketMonitor+0x64>
   6:	2574      	movs	r5, #116	; 0x74
   8:	4365      	muls	r5, r4
   a:	4e19      	ldr	r6, [pc, #100]	; (70 <threadSocketMonitor+0x70>)
   c:	6830      	ldr	r0, [r6, #0]
   e:	1940      	adds	r0, r0, r5
  10:	f890 3070 	ldrb.w	r3, [r0, #112]	; 0x70
  14:	f013 0f01 	tst.w	r3, #1
  18:	d122      	bne.n	60 <threadSocketMonitor+0x60>
  1a:	8f83      	ldrh	r3, [r0, #60]	; 0x3c
  1c:	f5b3 6fb0 	cmp.w	r3, #1408	; 0x580
  20:	d01e      	beq.n	60 <threadSocketMonitor+0x60>
  22:	f890 3040 	ldrb.w	r3, [r0, #64]	; 0x40
  26:	2bff      	cmp	r3, #255	; 0xff
  28:	d007      	beq.n	3a <threadSocketMonitor+0x3a>
  2a:	f890 2041 	ldrb.w	r2, [r0, #65]	; 0x41
  2e:	429a      	cmp	r2, r3
  30:	d903      	bls.n	3a <threadSocketMonitor+0x3a>
  32:	6ac2      	ldr	r2, [r0, #44]	; 0x2c
  34:	6b03      	ldr	r3, [r0, #48]	; 0x30
  36:	429a      	cmp	r2, r3
  38:	d302      	bcc.n	40 <threadSocketMonitor+0x40>
  3a:	f7ff fffe 	bl	0 <threadSocketMonitor>
  3e:	e00f      	b.n	22 <timeGet+0x22>
  40:	f7ff fffe 	bl	0 <timeGet>
  44:	6833      	ldr	r3, [r6, #0]
  46:	195b      	adds	r3, r3, r5
  48:	6ada      	ldr	r2, [r3, #44]	; 0x2c
  4a:	3203      	adds	r2, #3
  4c:	4290      	cmp	r0, r2
  4e:	d907      	bls.n	60 <threadSocketMonitor+0x60>
  50:	f893 2040 	ldrb.w	r2, [r3, #64]	; 0x40
  54:	4618      	mov	r0, r3
  56:	3201      	adds	r2, #1
  58:	f883 2040 	strb.w	r2, [r3, #64]	; 0x40
  5c:	f7ff fffe 	bl	0 <threadSocketMonitor>
  60:	3401      	adds	r4, #1
  62:	b2e4      	uxtb	r4, r4
  64:	4b03      	ldr	r3, [pc, #12]	; (74 <threadSocketMonitor+0x74>)
  66:	781b      	ldrb	r3, [r3, #0]
  68:	42a3      	cmp	r3, r4
  6a:	d8cc      	bhi.n	6 <threadSocketMonitor+0x6>
  6c:	bd70      	pop	{r4, r5, r6, pc}
  6e:	bf00      	nop
	...

Disassembly of section .text.socketFile:

00000000 <socketFile>:
socketFile():
   0:	e92d 41f0 	stmdb	sp!, {r4, r5, r6, r7, r8, lr}
   4:	4b2b      	ldr	r3, [pc, #172]	; (b4 <socketFile+0xb4>)
   6:	4690      	mov	r8, r2
   8:	f64a 22aa 	movw	r2, #43690	; 0xaaaa
   c:	601a      	str	r2, [r3, #0]
   e:	f890 3070 	ldrb.w	r3, [r0, #112]	; 0x70
  12:	4604      	mov	r4, r0
  14:	f023 0301 	bic.w	r3, r3, #1
  18:	f880 3070 	strb.w	r3, [r0, #112]	; 0x70
  1c:	2320      	movs	r3, #32
  1e:	f880 303c 	strb.w	r3, [r0, #60]	; 0x3c
  22:	4608      	mov	r0, r1
  24:	460f      	mov	r7, r1
  26:	f7ff fffe 	bl	0 <len>
  2a:	3001      	adds	r0, #1
  2c:	b2c5      	uxtb	r5, r0
  2e:	f7ff fffe 	bl	0 <timeGet>
  32:	f104 0650 	add.w	r6, r4, #80	; 0x50
  36:	62e0      	str	r0, [r4, #44]	; 0x2c
  38:	4631      	mov	r1, r6
  3a:	6b60      	ldr	r0, [r4, #52]	; 0x34
  3c:	2201      	movs	r2, #1
  3e:	f7ff fffe 	bl	0 <convertU32ToBuffer>
  42:	1d6b      	adds	r3, r5, #5
  44:	f043 0320 	orr.w	r3, r3, #32
  48:	f884 3054 	strb.w	r3, [r4, #84]	; 0x54
  4c:	f894 303e 	ldrb.w	r3, [r4, #62]	; 0x3e
  50:	f048 0802 	orr.w	r8, r8, #2
  54:	f884 3055 	strb.w	r3, [r4, #85]	; 0x55
  58:	4b17      	ldr	r3, [pc, #92]	; (b8 <socketFile+0xb8>)
  5a:	f884 8056 	strb.w	r8, [r4, #86]	; 0x56
  5e:	681b      	ldr	r3, [r3, #0]
  60:	f894 0034 	ldrb.w	r0, [r4, #52]	; 0x34
  64:	f023 03ff 	bic.w	r3, r3, #255	; 0xff
  68:	4318      	orrs	r0, r3
  6a:	2201      	movs	r2, #1
  6c:	f104 0157 	add.w	r1, r4, #87	; 0x57
  70:	f7ff fffe 	bl	0 <convertU32ToBuffer>
  74:	4622      	mov	r2, r4
  76:	2300      	movs	r3, #0
  78:	e003      	b.n	82 <socketFile+0x82>
  7a:	5cf9      	ldrb	r1, [r7, r3]
  7c:	3301      	adds	r3, #1
  7e:	f882 105a 	strb.w	r1, [r2, #90]	; 0x5a
  82:	b2d9      	uxtb	r1, r3
  84:	3201      	adds	r2, #1
  86:	42a9      	cmp	r1, r5
  88:	d3f7      	bcc.n	7a <socketFile+0x7a>
  8a:	f105 010b 	add.w	r1, r5, #11
  8e:	4630      	mov	r0, r6
  90:	f7ff fffe 	bl	0 <sysCRC16>
  94:	f105 015b 	add.w	r1, r5, #91	; 0x5b
  98:	1861      	adds	r1, r4, r1
  9a:	2201      	movs	r2, #1
  9c:	f7ff fffe 	bl	0 <convertU16ToBuffer>
  a0:	f105 000d 	add.w	r0, r5, #13
  a4:	4631      	mov	r1, r6
  a6:	f884 0042 	strb.w	r0, [r4, #66]	; 0x42
  aa:	e8bd 41f0 	ldmia.w	sp!, {r4, r5, r6, r7, r8, lr}
  ae:	f7ff bffe 	b.w	0 <rfPutTXBuffer>
  b2:	bf00      	nop
  b4:	40003000 	.word	0x40003000
  b8:	00000000 	.word	0x00000000

Disassembly of section .text.socketSaveData:

00000000 <socketSaveData>:
socketSaveData():
   0:	460a4b06 	.word	0x460a4b06
   4:	f64a 21aa 	movw	r1, #43690	; 0xaaaa
   8:	6019      	str	r1, [r3, #0]
   a:	7b13      	ldrb	r3, [r2, #12]
   c:	3301      	adds	r3, #1
   e:	f880 303e 	strb.w	r3, [r0, #62]	; 0x3e
  12:	7ad1      	ldrb	r1, [r2, #11]
  14:	320e      	adds	r2, #14
  16:	f7ff bffe 	b.w	0 <filePutBuffer>
  1a:	bf00      	nop
  1c:	40003000 	.word	0x40003000

Disassembly of section .text.socketSendFile:

00000000 <socketSendFile>:
socketSendFile():
   0:	b530      	push	{r4, r5, lr}
   2:	4b0f      	ldr	r3, [pc, #60]	; (40 <socketSendFile+0x40>)
   4:	f64a 22aa 	movw	r2, #43690	; 0xaaaa
   8:	b08b      	sub	sp, #44	; 0x2c
   a:	4605      	mov	r5, r0
   c:	601a      	str	r2, [r3, #0]
   e:	4668      	mov	r0, sp
  10:	2201      	movs	r2, #1
  12:	460c      	mov	r4, r1
  14:	f7ff fffe 	bl	0 <fileOpen>
  18:	b180      	cbz	r0, 3c <socketSendFile+0x3c>
  1a:	4628      	mov	r0, r5
  1c:	2102      	movs	r1, #2
  1e:	f7ff fffe 	bl	0 <socketSendFile>
  22:	4605      	mov	r5, r0
  24:	b150      	cbz	r0, 3c <socketSendFile+0x3c>
  26:	4668      	mov	r0, sp
  28:	4629      	mov	r1, r5
  2a:	f7ff fffe 	bl	0 <fileCopyHandle>
  2e:	4628      	mov	r0, r5
  30:	4621      	mov	r1, r4
  32:	2200      	movs	r2, #0
  34:	f7ff fffe 	bl	0 <socketSendFile>
  38:	2001      	movs	r0, #1
  3a:	e7ff      	b.n	3c <socketSendFile+0x3c>
  3c:	b00b      	add	sp, #44	; 0x2c
  3e:	bd30      	pop	{r4, r5, pc}
  40:	40003000 	.word	0x40003000

Disassembly of section .text.socketRequestFile:

00000000 <socketRequestFile>:
socketRequestFile():
   0:	b530      	push	{r4, r5, lr}
   2:	4b0f      	ldr	r3, [pc, #60]	; (40 <socketRequestFile+0x40>)
   4:	f64a 22aa 	movw	r2, #43690	; 0xaaaa
   8:	b08b      	sub	sp, #44	; 0x2c
   a:	4605      	mov	r5, r0
   c:	601a      	str	r2, [r3, #0]
   e:	4668      	mov	r0, sp
  10:	2202      	movs	r2, #2
  12:	460c      	mov	r4, r1
  14:	f7ff fffe 	bl	0 <fileOpen>
  18:	b180      	cbz	r0, 3c <socketRequestFile+0x3c>
  1a:	4628      	mov	r0, r5
  1c:	2182      	movs	r1, #130	; 0x82
  1e:	f7ff fffe 	bl	0 <socketRequestFile>
  22:	4605      	mov	r5, r0
  24:	b150      	cbz	r0, 3c <socketRequestFile+0x3c>
  26:	4668      	mov	r0, sp
  28:	4629      	mov	r1, r5
  2a:	f7ff fffe 	bl	0 <fileCopyHandle>
  2e:	4628      	mov	r0, r5
  30:	4621      	mov	r1, r4
  32:	2280      	movs	r2, #128	; 0x80
  34:	f7ff fffe 	bl	0 <socketRequestFile>
  38:	2001      	movs	r0, #1
  3a:	e7ff      	b.n	3c <socketRequestFile+0x3c>
  3c:	b00b      	add	sp, #44	; 0x2c
  3e:	bd30      	pop	{r4, r5, pc}
  40:	40003000 	.word	0x40003000

Disassembly of section .text.socketRequestCommandLine:

00000000 <socketRequestCommandLine>:
socketRequestCommandLine():
   0:	4770      	bx	lr

Disassembly of section .text.socketCommandLine:

00000000 <socketCommandLine>:
socketCommandLine():
   0:	b570      	push	{r4, r5, r6, lr}
   2:	4b20      	ldr	r3, [pc, #128]	; (84 <socketCommandLine+0x84>)
   4:	f64a 22aa 	movw	r2, #43690	; 0xaaaa
   8:	601a      	str	r2, [r3, #0]
   a:	f890 3070 	ldrb.w	r3, [r0, #112]	; 0x70
   e:	4604      	mov	r4, r0
  10:	f023 0301 	bic.w	r3, r3, #1
  14:	f880 3070 	strb.w	r3, [r0, #112]	; 0x70
  18:	2320      	movs	r3, #32
  1a:	f880 303c 	strb.w	r3, [r0, #60]	; 0x3c
  1e:	460e      	mov	r6, r1
  20:	f7ff fffe 	bl	0 <timeGet>
  24:	f104 0550 	add.w	r5, r4, #80	; 0x50
  28:	62e0      	str	r0, [r4, #44]	; 0x2c
  2a:	4629      	mov	r1, r5
  2c:	6b60      	ldr	r0, [r4, #52]	; 0x34
  2e:	2201      	movs	r2, #1
  30:	f7ff fffe 	bl	0 <convertU32ToBuffer>
  34:	2325      	movs	r3, #37	; 0x25
  36:	f884 3054 	strb.w	r3, [r4, #84]	; 0x54
  3a:	f894 303e 	ldrb.w	r3, [r4, #62]	; 0x3e
  3e:	f046 0605 	orr.w	r6, r6, #5
  42:	f884 3055 	strb.w	r3, [r4, #85]	; 0x55
  46:	4b10      	ldr	r3, [pc, #64]	; (88 <socketCommandLine+0x88>)
  48:	f884 6056 	strb.w	r6, [r4, #86]	; 0x56
  4c:	681b      	ldr	r3, [r3, #0]
  4e:	f894 0034 	ldrb.w	r0, [r4, #52]	; 0x34
  52:	f023 03ff 	bic.w	r3, r3, #255	; 0xff
  56:	4318      	orrs	r0, r3
  58:	2201      	movs	r2, #1
  5a:	f104 0157 	add.w	r1, r4, #87	; 0x57
  5e:	f7ff fffe 	bl	0 <convertU32ToBuffer>
  62:	210b      	movs	r1, #11
  64:	4628      	mov	r0, r5
  66:	f7ff fffe 	bl	0 <sysCRC16>
  6a:	f104 015b 	add.w	r1, r4, #91	; 0x5b
  6e:	2201      	movs	r2, #1
  70:	f7ff fffe 	bl	0 <convertU16ToBuffer>
  74:	200d      	movs	r0, #13
  76:	4629      	mov	r1, r5
  78:	f884 0042 	strb.w	r0, [r4, #66]	; 0x42
  7c:	e8bd 4070 	ldmia.w	sp!, {r4, r5, r6, lr}
  80:	f7ff bffe 	b.w	0 <rfPutTXBuffer>
  84:	40003000 	.word	0x40003000
  88:	00000000 	.word	0x00000000

Disassembly of section .text.socketOpenCommandLine:

00000000 <socketOpenCommandLine>:
socketOpenCommandLine():
   0:	f64a4b0e 	.word	0xf64a4b0e
   4:	22aa      	movs	r2, #170	; 0xaa
   6:	b510      	push	{r4, lr}
   8:	2105      	movs	r1, #5
   a:	601a      	str	r2, [r3, #0]
   c:	f7ff fffe 	bl	0 <socketOpenCommandLine>
  10:	4604      	mov	r4, r0
  12:	b188      	cbz	r0, 38 <socketOpenCommandLine+0x38>
  14:	2040      	movs	r0, #64	; 0x40
  16:	f7ff fffe 	bl	0 <sysAllocate>
  1a:	2340      	movs	r3, #64	; 0x40
  1c:	6460      	str	r0, [r4, #68]	; 0x44
  1e:	f884 3048 	strb.w	r3, [r4, #72]	; 0x48
  22:	b120      	cbz	r0, 2e <socketOpenCommandLine+0x2e>
  24:	4620      	mov	r0, r4
  26:	2100      	movs	r1, #0
  28:	f7ff fffe 	bl	0 <socketOpenCommandLine>
  2c:	e002      	b.n	34 <socketOpenCommandLine+0x34>
  2e:	4620      	mov	r0, r4
  30:	f7ff fffe 	bl	0 <socketOpenCommandLine>
  34:	2001      	movs	r0, #1
  36:	bd10      	pop	{r4, pc}
  38:	bd10      	pop	{r4, pc}
  3a:	bf00      	nop
  3c:	40003000 	.word	0x40003000

Disassembly of section .text.socketControl:

00000000 <socketControl>:
socketControl():
   0:	e92d 41f0 	stmdb	sp!, {r4, r5, r6, r7, r8, lr}
   4:	4b2b      	ldr	r3, [pc, #172]	; (b4 <socketControl+0xb4>)
   6:	4690      	mov	r8, r2
   8:	f64a 22aa 	movw	r2, #43690	; 0xaaaa
   c:	601a      	str	r2, [r3, #0]
   e:	f890 3070 	ldrb.w	r3, [r0, #112]	; 0x70
  12:	4604      	mov	r4, r0
  14:	f023 0301 	bic.w	r3, r3, #1
  18:	f880 3070 	strb.w	r3, [r0, #112]	; 0x70
  1c:	2320      	movs	r3, #32
  1e:	f880 303c 	strb.w	r3, [r0, #60]	; 0x3c
  22:	4608      	mov	r0, r1
  24:	460f      	mov	r7, r1
  26:	f7ff fffe 	bl	0 <len>
  2a:	3001      	adds	r0, #1
  2c:	b2c5      	uxtb	r5, r0
  2e:	f7ff fffe 	bl	0 <timeGet>
  32:	f104 0650 	add.w	r6, r4, #80	; 0x50
  36:	62e0      	str	r0, [r4, #44]	; 0x2c
  38:	4631      	mov	r1, r6
  3a:	6b60      	ldr	r0, [r4, #52]	; 0x34
  3c:	2201      	movs	r2, #1
  3e:	f7ff fffe 	bl	0 <convertU32ToBuffer>
  42:	1d6b      	adds	r3, r5, #5
  44:	f043 0320 	orr.w	r3, r3, #32
  48:	f884 3054 	strb.w	r3, [r4, #84]	; 0x54
  4c:	f894 303e 	ldrb.w	r3, [r4, #62]	; 0x3e
  50:	f048 0804 	orr.w	r8, r8, #4
  54:	f884 3055 	strb.w	r3, [r4, #85]	; 0x55
  58:	4b17      	ldr	r3, [pc, #92]	; (b8 <socketControl+0xb8>)
  5a:	f884 8056 	strb.w	r8, [r4, #86]	; 0x56
  5e:	681b      	ldr	r3, [r3, #0]
  60:	f894 0034 	ldrb.w	r0, [r4, #52]	; 0x34
  64:	f023 03ff 	bic.w	r3, r3, #255	; 0xff
  68:	4318      	orrs	r0, r3
  6a:	2201      	movs	r2, #1
  6c:	f104 0157 	add.w	r1, r4, #87	; 0x57
  70:	f7ff fffe 	bl	0 <convertU32ToBuffer>
  74:	4622      	mov	r2, r4
  76:	2300      	movs	r3, #0
  78:	e003      	b.n	82 <socketControl+0x82>
  7a:	5cf9      	ldrb	r1, [r7, r3]
  7c:	3301      	adds	r3, #1
  7e:	f882 105a 	strb.w	r1, [r2, #90]	; 0x5a
  82:	b2d9      	uxtb	r1, r3
  84:	3201      	adds	r2, #1
  86:	42a9      	cmp	r1, r5
  88:	d3f7      	bcc.n	7a <socketControl+0x7a>
  8a:	f105 010b 	add.w	r1, r5, #11
  8e:	4630      	mov	r0, r6
  90:	f7ff fffe 	bl	0 <sysCRC16>
  94:	f105 015b 	add.w	r1, r5, #91	; 0x5b
  98:	1861      	adds	r1, r4, r1
  9a:	2201      	movs	r2, #1
  9c:	f7ff fffe 	bl	0 <convertU16ToBuffer>
  a0:	f105 000d 	add.w	r0, r5, #13
  a4:	4631      	mov	r1, r6
  a6:	f884 0042 	strb.w	r0, [r4, #66]	; 0x42
  aa:	e8bd 41f0 	ldmia.w	sp!, {r4, r5, r6, r7, r8, lr}
  ae:	f7ff bffe 	b.w	0 <rfPutTXBuffer>
  b2:	bf00      	nop
  b4:	40003000 	.word	0x40003000
  b8:	00000000 	.word	0x00000000

Disassembly of section .text.socketRequestControl:

00000000 <socketRequestControl>:
socketRequestControl():
   0:	4b0bb538 	.word	0x4b0bb538
   4:	f64a 22aa 	movw	r2, #43690	; 0xaaaa
   8:	4605      	mov	r5, r0
   a:	460c      	mov	r4, r1
   c:	4608      	mov	r0, r1
   e:	601a      	str	r2, [r3, #0]
  10:	2100      	movs	r1, #0
  12:	f7ff fffe 	bl	0 <taskIsRunning>
  16:	b150      	cbz	r0, 2e <socketRequestControl+0x2e>
  18:	4628      	mov	r0, r5
  1a:	2184      	movs	r1, #132	; 0x84
  1c:	f7ff fffe 	bl	0 <socketRequestControl>
  20:	b128      	cbz	r0, 2e <socketRequestControl+0x2e>
  22:	4621      	mov	r1, r4
  24:	2280      	movs	r2, #128	; 0x80
  26:	f7ff fffe 	bl	0 <socketRequestControl>
  2a:	2001      	movs	r0, #1
  2c:	bd38      	pop	{r3, r4, r5, pc}
  2e:	bd38      	pop	{r3, r4, r5, pc}
  30:	40003000 	.word	0x40003000

Disassembly of section .text.socketSendControl:

00000000 <socketSendControl>:
socketSendControl():
   0:	b538      	push	{r3, r4, r5, lr}
   2:	4b0b      	ldr	r3, [pc, #44]	; (30 <socketSendControl+0x30>)
   4:	f64a 22aa 	movw	r2, #43690	; 0xaaaa
   8:	4605      	mov	r5, r0
   a:	460c      	mov	r4, r1
   c:	4608      	mov	r0, r1
   e:	601a      	str	r2, [r3, #0]
  10:	2100      	movs	r1, #0
  12:	f7ff fffe 	bl	0 <taskIsRunning>
  16:	b150      	cbz	r0, 2e <socketSendControl+0x2e>
  18:	4628      	mov	r0, r5
  1a:	2104      	movs	r1, #4
  1c:	f7ff fffe 	bl	0 <socketSendControl>
  20:	b128      	cbz	r0, 2e <socketSendControl+0x2e>
  22:	4621      	mov	r1, r4
  24:	2200      	movs	r2, #0
  26:	f7ff fffe 	bl	0 <socketSendControl>
  2a:	2001      	movs	r0, #1
  2c:	bd38      	pop	{r3, r4, r5, pc}
  2e:	bd38      	pop	{r3, r4, r5, pc}
  30:	40003000 	.word	0x40003000

Disassembly of section .text.socketSendClose:

00000000 <socketSendClose>:
socketSendClose():
   0:	b570      	push	{r4, r5, r6, lr}
   2:	4b17      	ldr	r3, [pc, #92]	; (60 <socketSendClose+0x60>)
   4:	f64a 22aa 	movw	r2, #43690	; 0xaaaa
   8:	601a      	str	r2, [r3, #0]
   a:	f890 3070 	ldrb.w	r3, [r0, #112]	; 0x70
   e:	4604      	mov	r4, r0
  10:	f023 0301 	bic.w	r3, r3, #1
  14:	f880 3070 	strb.w	r3, [r0, #112]	; 0x70
  18:	f7ff fffe 	bl	0 <timeGet>
  1c:	f104 0550 	add.w	r5, r4, #80	; 0x50
  20:	2640      	movs	r6, #64	; 0x40
  22:	2201      	movs	r2, #1
  24:	62e0      	str	r0, [r4, #44]	; 0x2c
  26:	4629      	mov	r1, r5
  28:	6b60      	ldr	r0, [r4, #52]	; 0x34
  2a:	f884 603c 	strb.w	r6, [r4, #60]	; 0x3c
  2e:	f7ff fffe 	bl	0 <convertU32ToBuffer>
  32:	f894 303e 	ldrb.w	r3, [r4, #62]	; 0x3e
  36:	2106      	movs	r1, #6
  38:	f884 3055 	strb.w	r3, [r4, #85]	; 0x55
  3c:	f884 6054 	strb.w	r6, [r4, #84]	; 0x54
  40:	4628      	mov	r0, r5
  42:	f7ff fffe 	bl	0 <sysCRC16>
  46:	f104 0156 	add.w	r1, r4, #86	; 0x56
  4a:	2201      	movs	r2, #1
  4c:	f7ff fffe 	bl	0 <convertU16ToBuffer>
  50:	2008      	movs	r0, #8
  52:	4629      	mov	r1, r5
  54:	f884 0042 	strb.w	r0, [r4, #66]	; 0x42
  58:	e8bd 4070 	ldmia.w	sp!, {r4, r5, r6, lr}
  5c:	f7ff bffe 	b.w	0 <rfPutTXBuffer>
  60:	40003000 	.word	0x40003000

Disassembly of section .text.socketSendDataFromString:

00000000 <socketSendDataFromString>:
socketSendDataFromString():
   0:	b570      	push	{r4, r5, r6, lr}
   2:	4b2b      	ldr	r3, [pc, #172]	; (b0 <socketSendDataFromString+0xb0>)
   4:	f64a 22aa 	movw	r2, #43690	; 0xaaaa
   8:	601a      	str	r2, [r3, #0]
   a:	f890 3070 	ldrb.w	r3, [r0, #112]	; 0x70
   e:	4604      	mov	r4, r0
  10:	f023 0301 	bic.w	r3, r3, #1
  14:	f880 3070 	strb.w	r3, [r0, #112]	; 0x70
  18:	460d      	mov	r5, r1
  1a:	f7ff fffe 	bl	0 <timeGet>
  1e:	62e0      	str	r0, [r4, #44]	; 0x2c
  20:	4628      	mov	r0, r5
  22:	f7ff fffe 	bl	0 <len>
  26:	3001      	adds	r0, #1
  28:	b2c0      	uxtb	r0, r0
  2a:	2816      	cmp	r0, #22
  2c:	f884 003f 	strb.w	r0, [r4, #63]	; 0x3f
  30:	d83d      	bhi.n	ae <socketSendDataFromString+0xae>
  32:	2360      	movs	r3, #96	; 0x60
  34:	f884 303c 	strb.w	r3, [r4, #60]	; 0x3c
  38:	b110      	cbz	r0, 40 <socketSendDataFromString+0x40>
  3a:	4622      	mov	r2, r4
  3c:	3b60      	subs	r3, #96	; 0x60
  3e:	e008      	b.n	52 <socketSendDataFromString+0x52>
  40:	4620      	mov	r0, r4
  42:	e8bd 4070 	ldmia.w	sp!, {r4, r5, r6, lr}
  46:	f7ff bffe 	b.w	0 <socketSendDataFromString>
  4a:	5ce9      	ldrb	r1, [r5, r3]
  4c:	3301      	adds	r3, #1
  4e:	f882 1055 	strb.w	r1, [r2, #85]	; 0x55
  52:	b299      	uxth	r1, r3
  54:	3201      	adds	r2, #1
  56:	4281      	cmp	r1, r0
  58:	d3f7      	bcc.n	4a <socketSendDataFromString+0x4a>
  5a:	f104 0550 	add.w	r5, r4, #80	; 0x50
  5e:	f040 0060 	orr.w	r0, r0, #96	; 0x60
  62:	2201      	movs	r2, #1
  64:	f884 0054 	strb.w	r0, [r4, #84]	; 0x54
  68:	4629      	mov	r1, r5
  6a:	6b60      	ldr	r0, [r4, #52]	; 0x34
  6c:	f7ff fffe 	bl	0 <convertU32ToBuffer>
  70:	f894 303e 	ldrb.w	r3, [r4, #62]	; 0x3e
  74:	f894 103f 	ldrb.w	r1, [r4, #63]	; 0x3f
  78:	f884 3055 	strb.w	r3, [r4, #85]	; 0x55
  7c:	3301      	adds	r3, #1
  7e:	f884 303e 	strb.w	r3, [r4, #62]	; 0x3e
  82:	3106      	adds	r1, #6
  84:	4628      	mov	r0, r5
  86:	f7ff fffe 	bl	0 <sysCRC16>
  8a:	f894 103f 	ldrb.w	r1, [r4, #63]	; 0x3f
  8e:	2201      	movs	r2, #1
  90:	3156      	adds	r1, #86	; 0x56
  92:	1861      	adds	r1, r4, r1
  94:	f7ff fffe 	bl	0 <convertU16ToBuffer>
  98:	f894 003f 	ldrb.w	r0, [r4, #63]	; 0x3f
  9c:	4629      	mov	r1, r5
  9e:	3008      	adds	r0, #8
  a0:	b2c0      	uxtb	r0, r0
  a2:	f884 0042 	strb.w	r0, [r4, #66]	; 0x42
  a6:	e8bd 4070 	ldmia.w	sp!, {r4, r5, r6, lr}
  aa:	f7ff bffe 	b.w	0 <rfPutTXBuffer>
  ae:	bd70      	pop	{r4, r5, r6, pc}
  b0:	40003000 	.word	0x40003000

Disassembly of section .text.socketSendData:

00000000 <socketSendData>:
socketSendData():
   0:	4b25b570 	.word	0x4b25b570
   4:	f64a 22aa 	movw	r2, #43690	; 0xaaaa
   8:	601a      	str	r2, [r3, #0]
   a:	f890 3070 	ldrb.w	r3, [r0, #112]	; 0x70
   e:	4604      	mov	r4, r0
  10:	f023 0301 	bic.w	r3, r3, #1
  14:	f880 3070 	strb.w	r3, [r0, #112]	; 0x70
  18:	f7ff fffe 	bl	0 <timeGet>
  1c:	2118      	movs	r1, #24
  1e:	62e0      	str	r0, [r4, #44]	; 0x2c
  20:	f104 0256 	add.w	r2, r4, #86	; 0x56
  24:	4620      	mov	r0, r4
  26:	f7ff fffe 	bl	0 <fileGetBuffer>
  2a:	2360      	movs	r3, #96	; 0x60
  2c:	b2c0      	uxtb	r0, r0
  2e:	f884 003f 	strb.w	r0, [r4, #63]	; 0x3f
  32:	f884 303c 	strb.w	r3, [r4, #60]	; 0x3c
  36:	b920      	cbnz	r0, 42 <socketSendData+0x42>
  38:	4620      	mov	r0, r4
  3a:	e8bd 4070 	ldmia.w	sp!, {r4, r5, r6, lr}
  3e:	f7ff bffe 	b.w	0 <socketSendData>
  42:	f104 0550 	add.w	r5, r4, #80	; 0x50
  46:	f040 0060 	orr.w	r0, r0, #96	; 0x60
  4a:	2201      	movs	r2, #1
  4c:	f884 0054 	strb.w	r0, [r4, #84]	; 0x54
  50:	4629      	mov	r1, r5
  52:	6b60      	ldr	r0, [r4, #52]	; 0x34
  54:	f7ff fffe 	bl	0 <convertU32ToBuffer>
  58:	f894 303e 	ldrb.w	r3, [r4, #62]	; 0x3e
  5c:	f894 103f 	ldrb.w	r1, [r4, #63]	; 0x3f
  60:	f884 3055 	strb.w	r3, [r4, #85]	; 0x55
  64:	3301      	adds	r3, #1
  66:	f884 303e 	strb.w	r3, [r4, #62]	; 0x3e
  6a:	3106      	adds	r1, #6
  6c:	4628      	mov	r0, r5
  6e:	f7ff fffe 	bl	0 <sysCRC16>
  72:	f894 103f 	ldrb.w	r1, [r4, #63]	; 0x3f
  76:	2201      	movs	r2, #1
  78:	3156      	adds	r1, #86	; 0x56
  7a:	1861      	adds	r1, r4, r1
  7c:	f7ff fffe 	bl	0 <convertU16ToBuffer>
  80:	f894 003f 	ldrb.w	r0, [r4, #63]	; 0x3f
  84:	4629      	mov	r1, r5
  86:	3008      	adds	r0, #8
  88:	b2c0      	uxtb	r0, r0
  8a:	f884 0042 	strb.w	r0, [r4, #66]	; 0x42
  8e:	e8bd 4070 	ldmia.w	sp!, {r4, r5, r6, lr}
  92:	f7ff bffe 	b.w	0 <rfPutTXBuffer>
  96:	bf00      	nop
  98:	40003000 	.word	0x40003000

Disassembly of section .text.socketSendAck:

00000000 <socketSendAck>:
socketSendAck():
   0:	f64a4b14 	.word	0xf64a4b14
   4:	22aa      	movs	r2, #170	; 0xaa
   6:	b570      	push	{r4, r5, r6, lr}
   8:	601a      	str	r2, [r3, #0]
   a:	4604      	mov	r4, r0
   c:	f7ff fffe 	bl	0 <timeGet>
  10:	f104 0550 	add.w	r5, r4, #80	; 0x50
  14:	2680      	movs	r6, #128	; 0x80
  16:	2201      	movs	r2, #1
  18:	62e0      	str	r0, [r4, #44]	; 0x2c
  1a:	4629      	mov	r1, r5
  1c:	6b60      	ldr	r0, [r4, #52]	; 0x34
  1e:	f884 603c 	strb.w	r6, [r4, #60]	; 0x3c
  22:	f7ff fffe 	bl	0 <convertU32ToBuffer>
  26:	f894 303e 	ldrb.w	r3, [r4, #62]	; 0x3e
  2a:	2106      	movs	r1, #6
  2c:	f884 3055 	strb.w	r3, [r4, #85]	; 0x55
  30:	f884 6054 	strb.w	r6, [r4, #84]	; 0x54
  34:	4628      	mov	r0, r5
  36:	f7ff fffe 	bl	0 <sysCRC16>
  3a:	f104 0156 	add.w	r1, r4, #86	; 0x56
  3e:	2201      	movs	r2, #1
  40:	f7ff fffe 	bl	0 <convertU16ToBuffer>
  44:	2008      	movs	r0, #8
  46:	4629      	mov	r1, r5
  48:	f884 0042 	strb.w	r0, [r4, #66]	; 0x42
  4c:	e8bd 4070 	ldmia.w	sp!, {r4, r5, r6, lr}
  50:	f7ff bffe 	b.w	0 <rfPutTXBuffer>
  54:	40003000 	.word	0x40003000

Disassembly of section .text.socketHandler:

00000000 <socketHandler>:
socketHandler():
   0:	b530      	push	{r4, r5, lr}
   2:	4b65      	ldr	r3, [pc, #404]	; (198 <socketHandler+0x198>)
   4:	f64a 22aa 	movw	r2, #43690	; 0xaaaa
   8:	b08b      	sub	sp, #44	; 0x2c
   a:	601a      	str	r2, [r3, #0]
   c:	4605      	mov	r5, r0
   e:	f7ff fffe 	bl	0 <convertBufferToU32>
  12:	9000      	str	r0, [sp, #0]
  14:	7928      	ldrb	r0, [r5, #4]
  16:	f020 031f 	bic.w	r3, r0, #31
  1a:	f000 001f 	and.w	r0, r0, #31
  1e:	f88d 000b 	strb.w	r0, [sp, #11]
  22:	f88d 300a 	strb.w	r3, [sp, #10]
  26:	796b      	ldrb	r3, [r5, #5]
  28:	3006      	adds	r0, #6
  2a:	1828      	adds	r0, r5, r0
  2c:	f88d 300c 	strb.w	r3, [sp, #12]
  30:	f7ff fffe 	bl	0 <convertBufferToU16>
  34:	f89d 100b 	ldrb.w	r1, [sp, #11]
  38:	f8ad 0008 	strh.w	r0, [sp, #8]
  3c:	3106      	adds	r1, #6
  3e:	4628      	mov	r0, r5
  40:	f7ff fffe 	bl	0 <sysCRC16>
  44:	f8bd 3008 	ldrh.w	r3, [sp, #8]
  48:	4283      	cmp	r3, r0
  4a:	f040 80a2 	bne.w	192 <socketHandler+0x192>
  4e:	f89d 300a 	ldrb.w	r3, [sp, #10]
  52:	1da9      	adds	r1, r5, #6
  54:	2b20      	cmp	r3, #32
  56:	d108      	bne.n	6a <socketHandler+0x6a>
  58:	79ab      	ldrb	r3, [r5, #6]
  5a:	1de8      	adds	r0, r5, #7
  5c:	f88d 300d 	strb.w	r3, [sp, #13]
  60:	f7ff fffe 	bl	0 <convertBufferToU32>
  64:	f105 010b 	add.w	r1, r5, #11
  68:	9001      	str	r0, [sp, #4]
  6a:	f89d 000b 	ldrb.w	r0, [sp, #11]
  6e:	f10d 020d 	add.w	r2, sp, #13
  72:	2300      	movs	r3, #0
  74:	e003      	b.n	7e <socketHandler+0x7e>
  76:	5ccd      	ldrb	r5, [r1, r3]
  78:	3301      	adds	r3, #1
  7a:	f802 5f01 	strb.w	r5, [r2, #1]!
  7e:	b29d      	uxth	r5, r3
  80:	4285      	cmp	r5, r0
  82:	d3f8      	bcc.n	76 <socketHandler+0x76>
  84:	f89d 300a 	ldrb.w	r3, [sp, #10]
  88:	f003 03e0 	and.w	r3, r3, #224	; 0xe0
  8c:	2b20      	cmp	r3, #32
  8e:	d135      	bne.n	fc <socketHandler+0xfc>
  90:	9b01      	ldr	r3, [sp, #4]
  92:	a80a      	add	r0, sp, #40	; 0x28
  94:	9d00      	ldr	r5, [sp, #0]
  96:	f840 3d28 	str.w	r3, [r0, #-40]!
  9a:	4668      	mov	r0, sp
  9c:	f7ff fffe 	bl	0 <socketHandler>
  a0:	4604      	mov	r4, r0
  a2:	2800      	cmp	r0, #0
  a4:	d073      	beq.n	18e <socketHandler+0x18e>
  a6:	6385      	str	r5, [r0, #56]	; 0x38
  a8:	f7ff fffe 	bl	0 <timeGet>
  ac:	f89d 300d 	ldrb.w	r3, [sp, #13]
  b0:	62e0      	str	r0, [r4, #44]	; 0x2c
  b2:	f003 027f 	and.w	r2, r3, #127	; 0x7f
  b6:	2a02      	cmp	r2, #2
  b8:	f884 303d 	strb.w	r3, [r4, #61]	; 0x3d
  bc:	d11e      	bne.n	fc <socketHandler+0xfc>
  be:	f013 0f80 	tst.w	r3, #128	; 0x80
  c2:	d00b      	beq.n	dc <socketHandler+0xdc>
  c4:	4620      	mov	r0, r4
  c6:	f10d 010e 	add.w	r1, sp, #14
  ca:	3a01      	subs	r2, #1
  cc:	f7ff fffe 	bl	0 <fileOpen>
  d0:	4605      	mov	r5, r0
  d2:	b170      	cbz	r0, f2 <socketHandler+0xf2>
  d4:	4620      	mov	r0, r4
  d6:	f7ff fffe 	bl	0 <socketHandler>
  da:	e00f      	b.n	fc <socketHandler+0xfc>
  dc:	4620      	mov	r0, r4
  de:	f10d 010e 	add.w	r1, sp, #14
  e2:	f7ff fffe 	bl	0 <fileOpen>
  e6:	4605      	mov	r5, r0
  e8:	b118      	cbz	r0, f2 <socketHandler+0xf2>
  ea:	4620      	mov	r0, r4
  ec:	f7ff fffe 	bl	0 <socketHandler>
  f0:	e004      	b.n	fc <socketHandler+0xfc>
  f2:	4620      	mov	r0, r4
  f4:	f7ff fffe 	bl	0 <socketHandler>
  f8:	462c      	mov	r4, r5
  fa:	e048      	b.n	18e <socketHandler+0x18e>
  fc:	6ba1      	ldr	r1, [r4, #56]	; 0x38
  fe:	9800      	ldr	r0, [sp, #0]
 100:	f7ff fffe 	bl	0 <socketHandler>
 104:	4604      	mov	r4, r0
 106:	2800      	cmp	r0, #0
 108:	d041      	beq.n	18e <socketHandler+0x18e>
 10a:	f89d 300a 	ldrb.w	r3, [sp, #10]
 10e:	f003 03e0 	and.w	r3, r3, #224	; 0xe0
 112:	2b40      	cmp	r3, #64	; 0x40
 114:	d105      	bne.n	122 <socketHandler+0x122>
 116:	f7ff fffe 	bl	0 <socketHandler>
 11a:	4620      	mov	r0, r4
 11c:	f7ff fffe 	bl	0 <socketHandler>
 120:	e034      	b.n	18c <socketHandler+0x18c>
 122:	2b60      	cmp	r3, #96	; 0x60
 124:	d111      	bne.n	14a <socketHandler+0x14a>
 126:	f890 303d 	ldrb.w	r3, [r0, #61]	; 0x3d
 12a:	f003 037f 	and.w	r3, r3, #127	; 0x7f
 12e:	2b02      	cmp	r3, #2
 130:	d12c      	bne.n	18c <socketHandler+0x18c>
 132:	4669      	mov	r1, sp
 134:	f7ff fffe 	bl	0 <socketHandler>
 138:	b918      	cbnz	r0, 142 <socketHandler+0x142>
 13a:	4620      	mov	r0, r4
 13c:	f7ff fffe 	bl	0 <socketHandler>
 140:	e024      	b.n	18c <socketHandler+0x18c>
 142:	4620      	mov	r0, r4
 144:	f7ff fffe 	bl	0 <socketHandler>
 148:	e020      	b.n	18c <socketHandler+0x18c>
 14a:	2b80      	cmp	r3, #128	; 0x80
 14c:	f890 303c 	ldrb.w	r3, [r0, #60]	; 0x3c
 150:	d116      	bne.n	180 <socketHandler+0x180>
 152:	f890 2070 	ldrb.w	r2, [r0, #112]	; 0x70
 156:	f003 03e0 	and.w	r3, r3, #224	; 0xe0
 15a:	f042 0201 	orr.w	r2, r2, #1
 15e:	2b40      	cmp	r3, #64	; 0x40
 160:	f880 2070 	strb.w	r2, [r0, #112]	; 0x70
 164:	d103      	bne.n	a <socketHandler+0xa>
 166:	f7ff fffe 	bl	0 <socketHandler>
 16a:	2400      	movs	r4, #0
 16c:	e00f      	b.n	18e <socketHandler+0x18e>
 16e:	f890 303d 	ldrb.w	r3, [r0, #61]	; 0x3d
 172:	f003 037f 	and.w	r3, r3, #127	; 0x7f
 176:	2b02      	cmp	r3, #2
 178:	d108      	bne.n	18c <socketHandler+0x18c>
 17a:	f7ff fffe 	bl	0 <socketHandler>
 17e:	e005      	b.n	18c <socketHandler+0x18c>
 180:	f003 03e0 	and.w	r3, r3, #224	; 0xe0
 184:	2ba0      	cmp	r3, #160	; 0xa0
 186:	d101      	bne.n	18c <socketHandler+0x18c>
 188:	f7ff fffe 	bl	0 <socketHandler>
 18c:	2401      	movs	r4, #1
 18e:	4620      	mov	r0, r4
 190:	e7ff      	b.n	192 <socketHandler+0x192>
 192:	b00b      	add	sp, #44	; 0x2c
 194:	bd30      	pop	{r4, r5, pc}
 196:	bf00      	nop
 198:	40003000 	.word	0x40003000

Disassembly of section .text.socketSendNack:

00000000 <socketSendNack>:
socketSendNack():
   0:	4b17b570 	.word	0x4b17b570
   4:	f64a 22aa 	movw	r2, #43690	; 0xaaaa
   8:	601a      	str	r2, [r3, #0]
   a:	f890 3070 	ldrb.w	r3, [r0, #112]	; 0x70
   e:	4604      	mov	r4, r0
  10:	f023 0301 	bic.w	r3, r3, #1
  14:	f880 3070 	strb.w	r3, [r0, #112]	; 0x70
  18:	f7ff fffe 	bl	0 <timeGet>
  1c:	f104 0550 	add.w	r5, r4, #80	; 0x50
  20:	26a0      	movs	r6, #160	; 0xa0
  22:	2201      	movs	r2, #1
  24:	62e0      	str	r0, [r4, #44]	; 0x2c
  26:	4629      	mov	r1, r5
  28:	6b60      	ldr	r0, [r4, #52]	; 0x34
  2a:	f884 603c 	strb.w	r6, [r4, #60]	; 0x3c
  2e:	f7ff fffe 	bl	0 <convertU32ToBuffer>
  32:	f894 303e 	ldrb.w	r3, [r4, #62]	; 0x3e
  36:	2106      	movs	r1, #6
  38:	f884 3055 	strb.w	r3, [r4, #85]	; 0x55
  3c:	f884 6054 	strb.w	r6, [r4, #84]	; 0x54
  40:	4628      	mov	r0, r5
  42:	f7ff fffe 	bl	0 <sysCRC16>
  46:	f104 0156 	add.w	r1, r4, #86	; 0x56
  4a:	2201      	movs	r2, #1
  4c:	f7ff fffe 	bl	0 <convertU16ToBuffer>
  50:	2008      	movs	r0, #8
  52:	4629      	mov	r1, r5
  54:	f884 0042 	strb.w	r0, [r4, #66]	; 0x42
  58:	e8bd 4070 	ldmia.w	sp!, {r4, r5, r6, lr}
  5c:	f7ff bffe 	b.w	0 <rfPutTXBuffer>
  60:	40003000 	.word	0x40003000
