
C:\Users\MightyDubster\Documents\Projects\pygmyos.code\Gems\gems.o:     file format elf32-littlearm
C:\Users\MightyDubster\Documents\Projects\pygmyos.code\Gems\gems.o


Disassembly of section .text.gemJoyUp:

00000000 <gemJoyUp>:
gemJoyUp():
   0:	4770      	bx	lr

Disassembly of section .text.gemJoyDown:

00000000 <gemJoyDown>:
gemJoyDown():
   0:	4770      	bx	lr

Disassembly of section .text.gemDrawEndMenu:

00000000 <gemDrawEndMenu>:
gemDrawEndMenu():
   0:	b500      	push	{lr}
   2:	4849      	ldr	r0, [pc, #292]	; (128 <gemDrawEndMenu+0x128>)
   4:	b093      	sub	sp, #76	; 0x4c
   6:	f7ff fffe 	bl	0 <taskIsRunning>
   a:	b110      	cbz	r0, 12 <gemDrawEndMenu+0x12>
   c:	4846      	ldr	r0, [pc, #280]	; (128 <gemDrawEndMenu+0x128>)
   e:	f7ff fffe 	bl	0 <taskDelete>
  12:	f7ff fffe 	bl	0 <guiInitSprites>
  16:	2100      	movs	r1, #0
  18:	2202      	movs	r2, #2
  1a:	2301      	movs	r3, #1
  1c:	4843      	ldr	r0, [pc, #268]	; (12c <gemDrawEndMenu+0x12c>)
  1e:	f7ff fffe 	bl	0 <pinInterrupt>
  22:	2128      	movs	r1, #40	; 0x28
  24:	2202      	movs	r2, #2
  26:	2301      	movs	r3, #1
  28:	4841      	ldr	r0, [pc, #260]	; (130 <gemDrawEndMenu+0x130>)
  2a:	f7ff fffe 	bl	0 <pinInterrupt>
  2e:	2106      	movs	r1, #6
  30:	2202      	movs	r2, #2
  32:	2301      	movs	r3, #1
  34:	483f      	ldr	r0, [pc, #252]	; (134 <gemDrawEndMenu+0x134>)
  36:	f7ff fffe 	bl	0 <pinInterrupt>
  3a:	2104      	movs	r1, #4
  3c:	2202      	movs	r2, #2
  3e:	2301      	movs	r3, #1
  40:	483d      	ldr	r0, [pc, #244]	; (138 <gemDrawEndMenu+0x138>)
  42:	f7ff fffe 	bl	0 <pinInterrupt>
  46:	2105      	movs	r1, #5
  48:	2202      	movs	r2, #2
  4a:	2301      	movs	r3, #1
  4c:	483b      	ldr	r0, [pc, #236]	; (13c <gemDrawEndMenu+0x13c>)
  4e:	f7ff fffe 	bl	0 <pinInterrupt>
  52:	2102      	movs	r1, #2
  54:	460a      	mov	r2, r1
  56:	2301      	movs	r3, #1
  58:	4839      	ldr	r0, [pc, #228]	; (140 <gemDrawEndMenu+0x140>)
  5a:	f7ff fffe 	bl	0 <pinInterrupt>
  5e:	2103      	movs	r1, #3
  60:	2202      	movs	r2, #2
  62:	2301      	movs	r3, #1
  64:	4837      	ldr	r0, [pc, #220]	; (144 <gemDrawEndMenu+0x144>)
  66:	f7ff fffe 	bl	0 <pinInterrupt>
  6a:	f7ff fffe 	bl	0 <colorGetRootColor>
  6e:	2165      	movs	r1, #101	; 0x65
  70:	22be      	movs	r2, #190	; 0xbe
  72:	23ff      	movs	r3, #255	; 0xff
  74:	f7ff fffe 	bl	0 <colorSetRGB>
  78:	f7ff fffe 	bl	0 <colorGetRootBackColor>
  7c:	2165      	movs	r1, #101	; 0x65
  7e:	460a      	mov	r2, r1
  80:	460b      	mov	r3, r1
  82:	f7ff fffe 	bl	0 <colorSetRGB>
  86:	f7ff fffe 	bl	0 <colorGetRootFocusColor>
  8a:	2165      	movs	r1, #101	; 0x65
  8c:	460a      	mov	r2, r1
  8e:	460b      	mov	r3, r1
  90:	f7ff fffe 	bl	0 <colorSetRGB>
  94:	f7ff fffe 	bl	0 <colorGetRootFocusBackColor>
  98:	2165      	movs	r1, #101	; 0x65
  9a:	228e      	movs	r2, #142	; 0x8e
  9c:	23df      	movs	r3, #223	; 0xdf
  9e:	f7ff fffe 	bl	0 <colorSetRGB>
  a2:	f7ff fffe 	bl	0 <colorGetRootClearColor>
  a6:	21ff      	movs	r1, #255	; 0xff
  a8:	220e      	movs	r2, #14
  aa:	23e0      	movs	r3, #224	; 0xe0
  ac:	f7ff fffe 	bl	0 <colorSetRGB>
  b0:	2008      	movs	r0, #8
  b2:	f7ff fffe 	bl	0 <guiSetRadius>
  b6:	4824      	ldr	r0, [pc, #144]	; (94 <guiSetStyle+0x94>)
  b8:	f7ff fffe 	bl	0 <guiSetStyle>
  bc:	f7ff fffe 	bl	0 <formFreeAll>
  c0:	2280      	movs	r2, #128	; 0x80
  c2:	2000      	movs	r0, #0
  c4:	4613      	mov	r3, r2
  c6:	4601      	mov	r1, r0
  c8:	f7ff fffe 	bl	0 <formNew>
  cc:	4b1f      	ldr	r3, [pc, #124]	; (14c <gemDrawEndMenu+0x14c>)
  ce:	4668      	mov	r0, sp
  d0:	9307      	str	r3, [sp, #28]
  d2:	2305      	movs	r3, #5
  d4:	f88d 3020 	strb.w	r3, [sp, #32]
  d8:	2300      	movs	r3, #0
  da:	f8ad 3014 	strh.w	r3, [sp, #20]
  de:	2306      	movs	r3, #6
  e0:	f8ad 3016 	strh.w	r3, [sp, #22]
  e4:	237f      	movs	r3, #127	; 0x7f
  e6:	f8ad 3018 	strh.w	r3, [sp, #24]
  ea:	2324      	movs	r3, #36	; 0x24
  ec:	f8ad 301a 	strh.w	r3, [sp, #26]
  f0:	4b17      	ldr	r3, [pc, #92]	; (150 <gemDrawEndMenu+0x150>)
  f2:	9309      	str	r3, [sp, #36]	; 0x24
  f4:	f7ff fffe 	bl	0 <formAddWidget>
  f8:	f7ff fffe 	bl	0 <widgetGetCurrent>
  fc:	4915      	ldr	r1, [pc, #84]	; (154 <gemDrawEndMenu+0x154>)
  fe:	220b      	movs	r2, #11
 100:	f7ff fffe 	bl	0 <widgetAddEventHandler>
 104:	232e      	movs	r3, #46	; 0x2e
 106:	f8ad 3016 	strh.w	r3, [sp, #22]
 10a:	4b13      	ldr	r3, [pc, #76]	; (158 <gemDrawEndMenu+0x158>)
 10c:	4668      	mov	r0, sp
 10e:	9309      	str	r3, [sp, #36]	; 0x24
 110:	f7ff fffe 	bl	0 <formAddWidget>
 114:	f7ff fffe 	bl	0 <widgetGetCurrent>
 118:	4910      	ldr	r1, [pc, #64]	; (15c <gemDrawEndMenu+0x15c>)
 11a:	220b      	movs	r2, #11
 11c:	f7ff fffe 	bl	0 <widgetAddEventHandler>
 120:	f7ff fffe 	bl	0 <drawForms>
 124:	b013      	add	sp, #76	; 0x4c
 126:	bd00      	pop	{pc}
	...
 148:	00010055 	.word	0x00010055
 14c:	00110151 	.word	0x00110151
 150:	00000008 	.word	0x00000008
 154:	00000000 	.word	0x00000000
 158:	00000011 	.word	0x00000011
 15c:	00000000 	.word	0x00000000

Disassembly of section .text.gemDetectRows:

00000000 <gemDetectRows>:
gemDetectRows():
   0:	4770      	bx	lr

Disassembly of section .text.gemDrawGameOver:

00000000 <gemDrawGameOver>:
gemDrawGameOver():
   0:	b513      	push	{r0, r1, r4, lr}
   2:	2300      	movs	r3, #0
   4:	9301      	str	r3, [sp, #4]
   6:	33ff      	adds	r3, #255	; 0xff
   8:	f88d 3004 	strb.w	r3, [sp, #4]
   c:	4813      	ldr	r0, [pc, #76]	; (5c <gemDrawGameOver+0x5c>)
   e:	3bdf      	subs	r3, #223	; 0xdf
  10:	f88d 3006 	strb.w	r3, [sp, #6]
  14:	f7ff fffe 	bl	0 <taskDelete>
  18:	f7ff fffe 	bl	0 <guiInitSprites>
  1c:	a801      	add	r0, sp, #4
  1e:	f7ff fffe 	bl	0 <guiClearScreen>
  22:	2137      	movs	r1, #55	; 0x37
  24:	2008      	movs	r0, #8
  26:	f7ff fffe 	bl	0 <guiSetCursor>
  2a:	f7ff fffe 	bl	0 <fontGetActive>
  2e:	4604      	mov	r4, r0
  30:	f7ff fffe 	bl	0 <colorGetRootColor>
  34:	4601      	mov	r1, r0
  36:	4620      	mov	r0, r4
  38:	f7ff fffe 	bl	0 <fontSetColor>
  3c:	4908      	ldr	r1, [pc, #32]	; (60 <gemDrawGameOver+0x60>)
  3e:	2003      	movs	r0, #3
  40:	f7ff fffe 	bl	0 <print>
  44:	f247 5030 	movw	r0, #30000	; 0x7530
  48:	f7ff fffe 	bl	0 <delay>
  4c:	f7ff fffe 	bl	0 <gemDrawGameOver>
  50:	4b04      	ldr	r3, [pc, #16]	; (64 <gemDrawGameOver+0x64>)
  52:	f64a 22aa 	movw	r2, #43690	; 0xaaaa
  56:	601a      	str	r2, [r3, #0]
  58:	bd1c      	pop	{r2, r3, r4, pc}
  5a:	bf00      	nop
  5c:	00000000 	.word	0x00000000
  60:	0000001b 	.word	0x0000001b
  64:	40003000 	.word	0x40003000

Disassembly of section .text.gemResetCursor:

00000000 <gemResetCursor>:
gemResetCursor():
   0:	2107b538 	.word	0x2107b538
   4:	2004      	movs	r0, #4
   6:	f7ff fffe 	bl	0 <sysRandom>
   a:	4d0b      	ldr	r5, [pc, #44]	; (38 <gemResetCursor+0x38>)
   c:	7028      	strb	r0, [r5, #0]
   e:	2001      	movs	r0, #1
  10:	f7ff fffe 	bl	0 <guiGetSprite>
  14:	4604      	mov	r4, r0
  16:	7828      	ldrb	r0, [r5, #0]
  18:	f7ff fffe 	bl	0 <guiGetSprite>
  1c:	f104 011c 	add.w	r1, r4, #28
  20:	301c      	adds	r0, #28
  22:	f7ff fffe 	bl	0 <fileCopyHandle>
  26:	6922      	ldr	r2, [r4, #16]
  28:	2330      	movs	r3, #48	; 0x30
  2a:	8013      	strh	r3, [r2, #0]
  2c:	2300      	movs	r3, #0
  2e:	8053      	strh	r3, [r2, #2]
  30:	8323      	strh	r3, [r4, #24]
  32:	2302      	movs	r3, #2
  34:	82a3      	strh	r3, [r4, #20]
  36:	bd38      	pop	{r3, r4, r5, pc}
  38:	00000000 	.word	0x00000000

Disassembly of section .text.gemInit:

00000000 <gemInit>:
gemInit():
   0:	b573      	push	{r0, r1, r4, r5, r6, lr}
   2:	f7ff fffe 	bl	0 <colorGetRootColor>
   6:	2165      	movs	r1, #101	; 0x65
   8:	22be      	movs	r2, #190	; 0xbe
   a:	23ff      	movs	r3, #255	; 0xff
   c:	f7ff fffe 	bl	0 <colorSetRGB>
  10:	f7ff fffe 	bl	0 <colorGetRootBackColor>
  14:	21ff      	movs	r1, #255	; 0xff
  16:	460a      	mov	r2, r1
  18:	460b      	mov	r3, r1
  1a:	f7ff fffe 	bl	0 <colorSetRGB>
  1e:	f7ff fffe 	bl	0 <colorGetRootFocusColor>
  22:	21ff      	movs	r1, #255	; 0xff
  24:	460a      	mov	r2, r1
  26:	460b      	mov	r3, r1
  28:	f7ff fffe 	bl	0 <colorSetRGB>
  2c:	f7ff fffe 	bl	0 <colorGetRootFocusBackColor>
  30:	21ff      	movs	r1, #255	; 0xff
  32:	460a      	mov	r2, r1
  34:	460b      	mov	r3, r1
  36:	f7ff fffe 	bl	0 <colorSetRGB>
  3a:	f7ff fffe 	bl	0 <colorGetRootClearColor>
  3e:	21ff      	movs	r1, #255	; 0xff
  40:	460a      	mov	r2, r1
  42:	460b      	mov	r3, r1
  44:	f7ff fffe 	bl	0 <colorSetRGB>
  48:	f7ff fffe 	bl	0 <fontGetActive>
  4c:	4604      	mov	r4, r0
  4e:	f7ff fffe 	bl	0 <colorGetRootColor>
  52:	4601      	mov	r1, r0
  54:	4620      	mov	r0, r4
  56:	f7ff fffe 	bl	0 <fontSetColor>
  5a:	f7ff fffe 	bl	0 <fontGetActive>
  5e:	4604      	mov	r4, r0
  60:	f7ff fffe 	bl	0 <colorGetRootBackColor>
  64:	4601      	mov	r1, r0
  66:	4620      	mov	r0, r4
  68:	f7ff fffe 	bl	0 <fontSetBackColor>
  6c:	f7ff fffe 	bl	0 <formFreeAll>
  70:	f7ff fffe 	bl	0 <colorGetRootClearColor>
  74:	2100      	movs	r1, #0
  76:	460a      	mov	r2, r1
  78:	2380      	movs	r3, #128	; 0x80
  7a:	9300      	str	r3, [sp, #0]
  7c:	f7ff fffe 	bl	0 <guiClearArea>
  80:	f7ff fffe 	bl	0 <guiInitSprites>
  84:	4b42      	ldr	r3, [pc, #264]	; (190 <gemInit+0x190>)
  86:	2604      	movs	r6, #4
  88:	701e      	strb	r6, [r3, #0]
  8a:	4942      	ldr	r1, [pc, #264]	; (194 <gemInit+0x194>)
  8c:	4842      	ldr	r0, [pc, #264]	; (198 <gemInit+0x198>)
  8e:	f7ff fffe 	bl	0 <fileOpenResource>
  92:	4942      	ldr	r1, [pc, #264]	; (19c <gemInit+0x19c>)
  94:	4842      	ldr	r0, [pc, #264]	; (1a0 <gemInit+0x1a0>)
  96:	f7ff fffe 	bl	0 <fileOpenResource>
  9a:	4942      	ldr	r1, [pc, #264]	; (1a4 <gemInit+0x1a4>)
  9c:	4842      	ldr	r0, [pc, #264]	; (1a8 <gemInit+0x1a8>)
  9e:	f7ff fffe 	bl	0 <fileOpenResource>
  a2:	4942      	ldr	r1, [pc, #264]	; (1ac <gemInit+0x1ac>)
  a4:	4842      	ldr	r0, [pc, #264]	; (1b0 <gemInit+0x1b0>)
  a6:	f7ff fffe 	bl	0 <fileOpenResource>
  aa:	4942      	ldr	r1, [pc, #264]	; (1b4 <gemInit+0x1b4>)
  ac:	4842      	ldr	r0, [pc, #264]	; (1b8 <gemInit+0x1b8>)
  ae:	2400      	movs	r4, #0
  b0:	f7ff fffe 	bl	0 <fileOpenResource>
  b4:	2564      	movs	r5, #100	; 0x64
  b6:	2101      	movs	r1, #1
  b8:	4a40      	ldr	r2, [pc, #256]	; (1bc <gemInit+0x1bc>)
  ba:	2302      	movs	r3, #2
  bc:	4836      	ldr	r0, [pc, #216]	; (198 <gemInit+0x198>)
  be:	9500      	str	r5, [sp, #0]
  c0:	9401      	str	r4, [sp, #4]
  c2:	f7ff fffe 	bl	0 <guiCreateSprite>
  c6:	4631      	mov	r1, r6
  c8:	4a3d      	ldr	r2, [pc, #244]	; (1c0 <gemInit+0x1c0>)
  ca:	4623      	mov	r3, r4
  cc:	4832      	ldr	r0, [pc, #200]	; (198 <gemInit+0x198>)
  ce:	9500      	str	r5, [sp, #0]
  d0:	9401      	str	r4, [sp, #4]
  d2:	f7ff fffe 	bl	0 <guiCreateSprite>
  d6:	2105      	movs	r1, #5
  d8:	4a3a      	ldr	r2, [pc, #232]	; (1c4 <gemInit+0x1c4>)
  da:	4623      	mov	r3, r4
  dc:	4830      	ldr	r0, [pc, #192]	; (1a0 <gemInit+0x1a0>)
  de:	9500      	str	r5, [sp, #0]
  e0:	9401      	str	r4, [sp, #4]
  e2:	f7ff fffe 	bl	0 <guiCreateSprite>
  e6:	2106      	movs	r1, #6
  e8:	4a37      	ldr	r2, [pc, #220]	; (1c8 <gemInit+0x1c8>)
  ea:	4623      	mov	r3, r4
  ec:	482e      	ldr	r0, [pc, #184]	; (1a8 <gemInit+0x1a8>)
  ee:	9500      	str	r5, [sp, #0]
  f0:	9401      	str	r4, [sp, #4]
  f2:	f7ff fffe 	bl	0 <guiCreateSprite>
  f6:	2107      	movs	r1, #7
  f8:	4a34      	ldr	r2, [pc, #208]	; (1cc <gemInit+0x1cc>)
  fa:	4623      	mov	r3, r4
  fc:	482c      	ldr	r0, [pc, #176]	; (1b0 <gemInit+0x1b0>)
  fe:	9500      	str	r5, [sp, #0]
 100:	9401      	str	r4, [sp, #4]
 102:	f7ff fffe 	bl	0 <guiCreateSprite>
 106:	4a32      	ldr	r2, [pc, #200]	; (1d0 <gemInit+0x1d0>)
 108:	4623      	mov	r3, r4
 10a:	482b      	ldr	r0, [pc, #172]	; (1b8 <gemInit+0x1b8>)
 10c:	2108      	movs	r1, #8
 10e:	9500      	str	r5, [sp, #0]
 110:	9401      	str	r4, [sp, #4]
 112:	f7ff fffe 	bl	0 <guiCreateSprite>
 116:	4b2f      	ldr	r3, [pc, #188]	; (1d4 <gemInit+0x1d4>)
 118:	f103 0240 	add.w	r2, r3, #64	; 0x40
 11c:	2100      	movs	r1, #0
 11e:	f803 1c01 	strb.w	r1, [r3, #-1]
 122:	7019      	strb	r1, [r3, #0]
 124:	7059      	strb	r1, [r3, #1]
 126:	7099      	strb	r1, [r3, #2]
 128:	70d9      	strb	r1, [r3, #3]
 12a:	7119      	strb	r1, [r3, #4]
 12c:	7159      	strb	r1, [r3, #5]
 12e:	7199      	strb	r1, [r3, #6]
 130:	3308      	adds	r3, #8
 132:	4293      	cmp	r3, r2
 134:	d1f2      	bne.n	11c <gemInit+0x11c>
 136:	2202      	movs	r2, #2
 138:	2301      	movs	r3, #1
 13a:	4827      	ldr	r0, [pc, #156]	; (1d8 <gemInit+0x1d8>)
 13c:	f7ff fffe 	bl	0 <pinInterrupt>
 140:	2128      	movs	r1, #40	; 0x28
 142:	2202      	movs	r2, #2
 144:	2301      	movs	r3, #1
 146:	4825      	ldr	r0, [pc, #148]	; (1dc <gemInit+0x1dc>)
 148:	f7ff fffe 	bl	0 <pinInterrupt>
 14c:	2104      	movs	r1, #4
 14e:	2202      	movs	r2, #2
 150:	2301      	movs	r3, #1
 152:	4823      	ldr	r0, [pc, #140]	; (1e0 <gemInit+0x1e0>)
 154:	f7ff fffe 	bl	0 <pinInterrupt>
 158:	2106      	movs	r1, #6
 15a:	2202      	movs	r2, #2
 15c:	2301      	movs	r3, #1
 15e:	4821      	ldr	r0, [pc, #132]	; (1e4 <gemInit+0x1e4>)
 160:	f7ff fffe 	bl	0 <pinInterrupt>
 164:	2102      	movs	r1, #2
 166:	460a      	mov	r2, r1
 168:	2301      	movs	r3, #1
 16a:	481f      	ldr	r0, [pc, #124]	; (1e8 <gemInit+0x1e8>)
 16c:	f7ff fffe 	bl	0 <pinInterrupt>
 170:	2103      	movs	r1, #3
 172:	2202      	movs	r2, #2
 174:	481c      	ldr	r0, [pc, #112]	; (1e8 <gemInit+0x1e8>)
 176:	2301      	movs	r3, #1
 178:	f7ff fffe 	bl	0 <pinInterrupt>
 17c:	f7ff fffe 	bl	0 <gemInit>
 180:	481a      	ldr	r0, [pc, #104]	; (1ec <gemInit+0x1ec>)
 182:	4a1b      	ldr	r2, [pc, #108]	; (1f0 <gemInit+0x1f0>)
 184:	21c8      	movs	r1, #200	; 0xc8
 186:	b002      	add	sp, #8
 188:	e8bd 4070 	ldmia.w	sp!, {r4, r5, r6, lr}
 18c:	f7ff bffe 	b.w	0 <taskNewSimple>
	...
 19c:	00000af7 	.word	0x00000af7
 1a0:	00000000 	.word	0x00000000
 1a4:	0000169c 	.word	0x0000169c
 1a8:	00000000 	.word	0x00000000
 1ac:	000020e5 	.word	0x000020e5
 1b0:	00000000 	.word	0x00000000
 1b4:	00002c75 	.word	0x00002c75
	...
 1d4:	00000001 	.word	0x00000001
	...

Disassembly of section .text.gemProcess:

00000000 <gemProcess>:
gemProcess():
   0:	4770      	bx	lr

Disassembly of section .text.gemCollision:

00000000 <gemCollision>:
gemCollision():
   0:	4a07      	ldr	r2, [pc, #28]	; (20 <gemCollision+0x20>)
   2:	eb01 03c0 	add.w	r3, r1, r0, lsl #3
   6:	5cd3      	ldrb	r3, [r2, r3]
   8:	b933      	cbnz	r3, 18 <gemCollision+0x18>
   a:	2807      	cmp	r0, #7
   c:	d806      	bhi.n	1c <gemCollision+0x1c>
   e:	2907      	cmp	r1, #7
  10:	bf94      	ite	ls
  12:	2000      	movls	r0, #0
  14:	2001      	movhi	r0, #1
  16:	4770      	bx	lr
  18:	2001      	movs	r0, #1
  1a:	4770      	bx	lr
  1c:	2001      	movs	r0, #1
  1e:	4770      	bx	lr
  20:	00000000 	.word	0x00000000

Disassembly of section .text.gemJoyRight:

00000000 <gemJoyRight>:
gemJoyRight():
   0:	b5f0      	push	{r4, r5, r6, r7, lr}
   2:	4c12      	ldr	r4, [pc, #72]	; (4c <gemJoyRight+0x4c>)
   4:	b085      	sub	sp, #20
   6:	8827      	ldrh	r7, [r4, #0]
   8:	2300      	movs	r3, #0
   a:	f107 0510 	add.w	r5, r7, #16
   e:	0928      	lsrs	r0, r5, #4
  10:	9303      	str	r3, [sp, #12]
  12:	33ff      	adds	r3, #255	; 0xff
  14:	2807      	cmp	r0, #7
  16:	f88d 300c 	strb.w	r3, [sp, #12]
  1a:	f88d 300d 	strb.w	r3, [sp, #13]
  1e:	f88d 300e 	strb.w	r3, [sp, #14]
  22:	8866      	ldrh	r6, [r4, #2]
  24:	d810      	bhi.n	48 <gemJoyRight+0x48>
  26:	0931      	lsrs	r1, r6, #4
  28:	f7ff fffe 	bl	0 <gemJoyRight>
  2c:	b960      	cbnz	r0, 48 <gemJoyRight+0x48>
  2e:	f106 0310 	add.w	r3, r6, #16
  32:	b29b      	uxth	r3, r3
  34:	9300      	str	r3, [sp, #0]
  36:	a803      	add	r0, sp, #12
  38:	b2ab      	uxth	r3, r5
  3a:	4639      	mov	r1, r7
  3c:	4632      	mov	r2, r6
  3e:	f7ff fffe 	bl	0 <guiClearArea>
  42:	8823      	ldrh	r3, [r4, #0]
  44:	3310      	adds	r3, #16
  46:	8023      	strh	r3, [r4, #0]
  48:	b005      	add	sp, #20
  4a:	bdf0      	pop	{r4, r5, r6, r7, pc}
  4c:	00000000 	.word	0x00000000

Disassembly of section .text.gemJoyLeft:

00000000 <gemJoyLeft>:
gemJoyLeft():
   0:	b57f      	push	{r0, r1, r2, r3, r4, r5, r6, lr}
   2:	4c13      	ldr	r4, [pc, #76]	; (50 <gemJoyLeft+0x50>)
   4:	2300      	movs	r3, #0
   6:	8825      	ldrh	r5, [r4, #0]
   8:	9303      	str	r3, [sp, #12]
   a:	33ff      	adds	r3, #255	; 0xff
   c:	2d0f      	cmp	r5, #15
   e:	f88d 300c 	strb.w	r3, [sp, #12]
  12:	f88d 300d 	strb.w	r3, [sp, #13]
  16:	f88d 300e 	strb.w	r3, [sp, #14]
  1a:	d917      	bls.n	4c <gemJoyLeft+0x4c>
  1c:	8866      	ldrh	r6, [r4, #2]
  1e:	f1a5 0010 	sub.w	r0, r5, #16
  22:	1100      	asrs	r0, r0, #4
  24:	b280      	uxth	r0, r0
  26:	0931      	lsrs	r1, r6, #4
  28:	f7ff fffe 	bl	0 <gemJoyLeft>
  2c:	b970      	cbnz	r0, 4c <gemJoyLeft+0x4c>
  2e:	f106 0210 	add.w	r2, r6, #16
  32:	b292      	uxth	r2, r2
  34:	f105 0310 	add.w	r3, r5, #16
  38:	9200      	str	r2, [sp, #0]
  3a:	b29b      	uxth	r3, r3
  3c:	a803      	add	r0, sp, #12
  3e:	4629      	mov	r1, r5
  40:	4632      	mov	r2, r6
  42:	f7ff fffe 	bl	0 <guiClearArea>
  46:	8823      	ldrh	r3, [r4, #0]
  48:	3b10      	subs	r3, #16
  4a:	8023      	strh	r3, [r4, #0]
  4c:	bd7f      	pop	{r0, r1, r2, r3, r4, r5, r6, pc}
  4e:	bf00      	nop
  50:	00000000 	.word	0x00000000

Disassembly of section .text.gemAdd:

00000000 <gemAdd>:
gemAdd():
   0:	4604b570 	.word	0x4604b570
   4:	4615      	mov	r5, r2
   6:	460e      	mov	r6, r1
   8:	b1a1      	cbz	r1, 34 <gemAdd+0x34>
   a:	4610      	mov	r0, r2
   c:	f7ff fffe 	bl	0 <guiGetSprite>
  10:	4a09      	ldr	r2, [pc, #36]	; (38 <gemAdd+0x38>)
  12:	eb06 03c4 	add.w	r3, r6, r4, lsl #3
  16:	54d5      	strb	r5, [r2, r3]
  18:	8a83      	ldrh	r3, [r0, #20]
  1a:	6902      	ldr	r2, [r0, #16]
  1c:	0124      	lsls	r4, r4, #4
  1e:	f822 4013 	strh.w	r4, [r2, r3, lsl #1]
  22:	3301      	adds	r3, #1
  24:	b29b      	uxth	r3, r3
  26:	0136      	lsls	r6, r6, #4
  28:	f822 6013 	strh.w	r6, [r2, r3, lsl #1]
  2c:	3301      	adds	r3, #1
  2e:	8283      	strh	r3, [r0, #20]
  30:	2001      	movs	r0, #1
  32:	bd70      	pop	{r4, r5, r6, pc}
  34:	4608      	mov	r0, r1
  36:	bd70      	pop	{r4, r5, r6, pc}
  38:	00000000 	.word	0x00000000

Disassembly of section .text.gemDetectRowsY:

00000000 <gemDetectRowsY>:
gemDetectRowsY():
   0:	e92d 4ff7 	stmdb	sp!, {r0, r1, r2, r4, r5, r6, r7, r8, r9, sl, fp, lr}
   4:	2600      	movs	r6, #0
   6:	4635      	mov	r5, r6
   8:	46b2      	mov	sl, r6
   a:	e03e      	b.n	8a <gemDetectRowsY+0x8a>
   c:	f812 1f01 	ldrb.w	r1, [r2, #1]!
  10:	b141      	cbz	r1, 24 <gemDetectRowsY+0x24>
  12:	7850      	ldrb	r0, [r2, #1]
  14:	4288      	cmp	r0, r1
  16:	d105      	bne.n	24 <gemDetectRowsY+0x24>
  18:	b90c      	cbnz	r4, 1e <gemDetectRowsY+0x1e>
  1a:	4698      	mov	r8, r3
  1c:	3401      	adds	r4, #1
  1e:	3401      	adds	r4, #1
  20:	b2a4      	uxth	r4, r4
  22:	e002      	b.n	2a <gemDetectRowsY+0x2a>
  24:	2c02      	cmp	r4, #2
  26:	d806      	bhi.n	36 <gemDetectRowsY+0x36>
  28:	2400      	movs	r4, #0
  2a:	3301      	adds	r3, #1
  2c:	b29b      	uxth	r3, r3
  2e:	2b07      	cmp	r3, #7
  30:	d1ec      	bne.n	c <gemDetectRowsY+0xc>
  32:	2c02      	cmp	r4, #2
  34:	d924      	bls.n	80 <gemDetectRowsY+0x80>
  36:	44a2      	add	sl, r4
  38:	ea4f 1908 	mov.w	r9, r8, lsl #4
  3c:	fa1f fa8a 	uxth.w	sl, sl
  40:	fa1f f989 	uxth.w	r9, r9
  44:	4647      	mov	r7, r8
  46:	e017      	b.n	78 <gemDetectRowsY+0x78>
  48:	4a16      	ldr	r2, [pc, #88]	; (a4 <gemDetectRowsY+0xa4>)
  4a:	eb07 0bc5 	add.w	fp, r7, r5, lsl #3
  4e:	f812 000b 	ldrb.w	r0, [r2, fp]
  52:	4631      	mov	r1, r6
  54:	464a      	mov	r2, r9
  56:	f7ff fffe 	bl	0 <guiRemoveSpriteCoords>
  5a:	4a12      	ldr	r2, [pc, #72]	; (a4 <gemDetectRowsY+0xa4>)
  5c:	2300      	movs	r3, #0
  5e:	f802 300b 	strb.w	r3, [r2, fp]
  62:	4639      	mov	r1, r7
  64:	9801      	ldr	r0, [sp, #4]
  66:	2208      	movs	r2, #8
  68:	f7ff fffe 	bl	0 <gemDetectRowsY>
  6c:	3701      	adds	r7, #1
  6e:	f109 0910 	add.w	r9, r9, #16
  72:	b2bf      	uxth	r7, r7
  74:	fa1f f989 	uxth.w	r9, r9
  78:	eb04 0308 	add.w	r3, r4, r8
  7c:	429f      	cmp	r7, r3
  7e:	dbe3      	blt.n	48 <gemDetectRowsY+0x48>
  80:	3501      	adds	r5, #1
  82:	3610      	adds	r6, #16
  84:	2d08      	cmp	r5, #8
  86:	b2b6      	uxth	r6, r6
  88:	d008      	beq.n	9c <gemDetectRowsY+0x9c>
  8a:	00ea      	lsls	r2, r5, #3
  8c:	4905      	ldr	r1, [pc, #20]	; (a4 <gemDetectRowsY+0xa4>)
  8e:	b2ab      	uxth	r3, r5
  90:	3a01      	subs	r2, #1
  92:	2400      	movs	r4, #0
  94:	9301      	str	r3, [sp, #4]
  96:	1852      	adds	r2, r2, r1
  98:	4623      	mov	r3, r4
  9a:	e7b7      	b.n	c <gemDetectRowsY+0xc>
  9c:	4650      	mov	r0, sl
  9e:	e8bd 8ffe 	ldmia.w	sp!, {r1, r2, r3, r4, r5, r6, r7, r8, r9, sl, fp, pc}
  a2:	bf00      	nop
  a4:	00000000 	.word	0x00000000

Disassembly of section .text.gemDetectRowsX:

00000000 <gemDetectRowsX>:
gemDetectRowsX():
   0:	e92d 4ff0 	stmdb	sp!, {r4, r5, r6, r7, r8, r9, sl, fp, lr}
   4:	23ff      	movs	r3, #255	; 0xff
   6:	b089      	sub	sp, #36	; 0x24
   8:	2600      	movs	r6, #0
   a:	9607      	str	r6, [sp, #28]
   c:	4635      	mov	r5, r6
   e:	f88d 301c 	strb.w	r3, [sp, #28]
  12:	f88d 301d 	strb.w	r3, [sp, #29]
  16:	f88d 301e 	strb.w	r3, [sp, #30]
  1a:	46b2      	mov	sl, r6
  1c:	e03f      	b.n	9e <gemDetectRowsX+0x9e>
  1e:	f812 1c08 	ldrb.w	r1, [r2, #-8]
  22:	b141      	cbz	r1, 36 <gemDetectRowsX+0x36>
  24:	7810      	ldrb	r0, [r2, #0]
  26:	4288      	cmp	r0, r1
  28:	d105      	bne.n	36 <gemDetectRowsX+0x36>
  2a:	b90c      	cbnz	r4, 30 <gemDetectRowsX+0x30>
  2c:	4698      	mov	r8, r3
  2e:	3401      	adds	r4, #1
  30:	3401      	adds	r4, #1
  32:	b2a4      	uxth	r4, r4
  34:	e002      	b.n	3c <gemDetectRowsX+0x3c>
  36:	2c02      	cmp	r4, #2
  38:	d807      	bhi.n	4a <gemDetectRowsX+0x4a>
  3a:	2400      	movs	r4, #0
  3c:	3301      	adds	r3, #1
  3e:	b29b      	uxth	r3, r3
  40:	3208      	adds	r2, #8
  42:	2b07      	cmp	r3, #7
  44:	d1eb      	bne.n	1e <gemDetectRowsX+0x1e>
  46:	2c02      	cmp	r4, #2
  48:	d924      	bls.n	94 <gemDetectRowsX+0x94>
  4a:	44a2      	add	sl, r4
  4c:	ea4f 1908 	mov.w	r9, r8, lsl #4
  50:	fa1f fa8a 	uxth.w	sl, sl
  54:	fa1f f989 	uxth.w	r9, r9
  58:	4647      	mov	r7, r8
  5a:	e017      	b.n	8c <gemDetectRowsX+0x8c>
  5c:	4a2e      	ldr	r2, [pc, #184]	; (118 <gemDetectRowsX+0x118>)
  5e:	eb05 0bc7 	add.w	fp, r5, r7, lsl #3
  62:	4649      	mov	r1, r9
  64:	f812 000b 	ldrb.w	r0, [r2, fp]
  68:	4632      	mov	r2, r6
  6a:	f7ff fffe 	bl	0 <guiRemoveSpriteCoords>
  6e:	4a2a      	ldr	r2, [pc, #168]	; (118 <gemDetectRowsX+0x118>)
  70:	2300      	movs	r3, #0
  72:	f802 300b 	strb.w	r3, [r2, fp]
  76:	4638      	mov	r0, r7
  78:	9905      	ldr	r1, [sp, #20]
  7a:	2208      	movs	r2, #8
  7c:	f7ff fffe 	bl	0 <gemDetectRowsX>
  80:	3701      	adds	r7, #1
  82:	f109 0910 	add.w	r9, r9, #16
  86:	b2bf      	uxth	r7, r7
  88:	fa1f f989 	uxth.w	r9, r9
  8c:	eb04 0308 	add.w	r3, r4, r8
  90:	429f      	cmp	r7, r3
  92:	dbe3      	blt.n	5c <gemDetectRowsX+0x5c>
  94:	3501      	adds	r5, #1
  96:	3610      	adds	r6, #16
  98:	2d08      	cmp	r5, #8
  9a:	b2b6      	uxth	r6, r6
  9c:	d008      	beq.n	b0 <gemDetectRowsX+0xb0>
  9e:	491e      	ldr	r1, [pc, #120]	; (118 <gemDetectRowsX+0x118>)
  a0:	b2ab      	uxth	r3, r5
  a2:	f105 0208 	add.w	r2, r5, #8
  a6:	2400      	movs	r4, #0
  a8:	9305      	str	r3, [sp, #20]
  aa:	1852      	adds	r2, r2, r1
  ac:	4623      	mov	r3, r4
  ae:	e7b6      	b.n	1e <gemDetectRowsX+0x1e>
  b0:	f7ff fffe 	bl	0 <gemDetectRowsX>
  b4:	2100      	movs	r1, #0
  b6:	4482      	add	sl, r0
  b8:	2050      	movs	r0, #80	; 0x50
  ba:	f7ff fffe 	bl	0 <guiSetCursor>
  be:	2412      	movs	r4, #18
  c0:	2200      	movs	r2, #0
  c2:	2150      	movs	r1, #80	; 0x50
  c4:	a807      	add	r0, sp, #28
  c6:	237f      	movs	r3, #127	; 0x7f
  c8:	9400      	str	r4, [sp, #0]
  ca:	f7ff fffe 	bl	0 <guiClearArea>
  ce:	23ff      	movs	r3, #255	; 0xff
  d0:	f88d 301c 	strb.w	r3, [sp, #28]
  d4:	3bf1      	subs	r3, #241	; 0xf1
  d6:	f88d 301d 	strb.w	r3, [sp, #29]
  da:	33d2      	adds	r3, #210	; 0xd2
  dc:	f88d 301e 	strb.w	r3, [sp, #30]
  e0:	f7ff fffe 	bl	0 <fontGetActive>
  e4:	a907      	add	r1, sp, #28
  e6:	f7ff fffe 	bl	0 <fontSetColor>
  ea:	2341      	movs	r3, #65	; 0x41
  ec:	9301      	str	r3, [sp, #4]
  ee:	3b3d      	subs	r3, #61	; 0x3d
  f0:	fa1f fa8a 	uxth.w	sl, sl
  f4:	9302      	str	r3, [sp, #8]
  f6:	a807      	add	r0, sp, #28
  f8:	2150      	movs	r1, #80	; 0x50
  fa:	2200      	movs	r2, #0
  fc:	337b      	adds	r3, #123	; 0x7b
  fe:	9400      	str	r4, [sp, #0]
 100:	f7ff fffe 	bl	0 <drawRect>
 104:	2003      	movs	r0, #3
 106:	4905      	ldr	r1, [pc, #20]	; (11c <gemDetectRowsX+0x11c>)
 108:	4652      	mov	r2, sl
 10a:	f7ff fffe 	bl	0 <print>
 10e:	4650      	mov	r0, sl
 110:	b009      	add	sp, #36	; 0x24
 112:	e8bd 8ff0 	ldmia.w	sp!, {r4, r5, r6, r7, r8, r9, sl, fp, pc}
 116:	bf00      	nop
 118:	00000000 	.word	0x00000000
 11c:	00000025 	.word	0x00000025

Disassembly of section .text.gemGravity:

00000000 <gemGravity>:
gemGravity():
   0:	41ffe92d 	.word	0x41ffe92d
   4:	4c18      	ldr	r4, [pc, #96]	; (68 <gemGravity+0x68>)
   6:	23ff      	movs	r3, #255	; 0xff
   8:	8826      	ldrh	r6, [r4, #0]
   a:	8865      	ldrh	r5, [r4, #2]
   c:	0937      	lsrs	r7, r6, #4
   e:	f105 0810 	add.w	r8, r5, #16
  12:	4638      	mov	r0, r7
  14:	ea4f 1118 	mov.w	r1, r8, lsr #4
  18:	f88d 300c 	strb.w	r3, [sp, #12]
  1c:	f88d 300d 	strb.w	r3, [sp, #13]
  20:	f88d 300e 	strb.w	r3, [sp, #14]
  24:	f7ff fffe 	bl	0 <gemGravity>
  28:	b970      	cbnz	r0, 48 <gemGravity+0x48>
  2a:	fa1f f288 	uxth.w	r2, r8
  2e:	f106 0310 	add.w	r3, r6, #16
  32:	9200      	str	r2, [sp, #0]
  34:	b29b      	uxth	r3, r3
  36:	a803      	add	r0, sp, #12
  38:	4631      	mov	r1, r6
  3a:	462a      	mov	r2, r5
  3c:	f7ff fffe 	bl	0 <guiClearArea>
  40:	8863      	ldrh	r3, [r4, #2]
  42:	3310      	adds	r3, #16
  44:	8063      	strh	r3, [r4, #2]
  46:	e00d      	b.n	64 <gemGravity+0x64>
  48:	4b08      	ldr	r3, [pc, #32]	; (6c <gemGravity+0x6c>)
  4a:	4638      	mov	r0, r7
  4c:	0929      	lsrs	r1, r5, #4
  4e:	781a      	ldrb	r2, [r3, #0]
  50:	f7ff fffe 	bl	0 <gemGravity>
  54:	b910      	cbnz	r0, 8 <gemGravity+0x8>
  56:	f7ff fffe 	bl	0 <gemGravity>
  5a:	e003      	b.n	a <gemGravity+0xa>
  5c:	f7ff fffe 	bl	0 <gemGravity>
  60:	f7ff fffe 	bl	0 <gemGravity>
  64:	e8bd 81ff 	ldmia.w	sp!, {r0, r1, r2, r3, r4, r5, r6, r7, r8, pc}
	...

Disassembly of section .text.gemJoyClick:

00000000 <gemJoyClick>:
gemJoyClick():
   0:	4770      	bx	lr

Disassembly of section .text.gemButton1:

00000000 <gemButton1>:
gemButton1():
   0:	4770      	bx	lr

Disassembly of section .text.gemButton2:

00000000 <gemButton2>:
gemButton2():
   0:	f7ff bffe 	b.w	0 <gemButton2>

Disassembly of section .text.gemClickMenu:

00000000 <gemClickMenu>:
gemClickMenu():
   0:	b510      	push	{r4, lr}
   2:	2005      	movs	r0, #5
   4:	f7ff fffe 	bl	0 <pinGet>
   8:	4b07      	ldr	r3, [pc, #28]	; (28 <gemClickMenu+0x28>)
   a:	b118      	cbz	r0, 14 <gemClickMenu+0x14>
   c:	69da      	ldr	r2, [r3, #28]
   e:	f422 6280 	bic.w	r2, r2, #1024	; 0x400
  12:	e002      	b.n	1a <gemClickMenu+0x1a>
  14:	69da      	ldr	r2, [r3, #28]
  16:	f442 6280 	orr.w	r2, r2, #1024	; 0x400
  1a:	4803      	ldr	r0, [pc, #12]	; (28 <gemClickMenu+0x28>)
  1c:	61da      	str	r2, [r3, #28]
  1e:	e8bd 4010 	ldmia.w	sp!, {r4, lr}
  22:	f7ff bffe 	b.w	0 <drawWidget>
  26:	bf00      	nop
  28:	00000000 	.word	0x00000000
