
C:\Users\MightyDubster\Documents\Projects\pygmyos.code\Gems\hih5030.o:     file format elf32-littlearm
C:\Users\MightyDubster\Documents\Projects\pygmyos.code\Gems\hih5030.o


Disassembly of section .text.hih5030Read:

00000000 <hih5030Read>:
hih5030Read():
   0:	b510      	push	{r4, lr}
   2:	4b25      	ldr	r3, [pc, #148]	; (98 <hih5030Read+0x98>)
   4:	781b      	ldrb	r3, [r3, #0]
   6:	2b00      	cmp	r3, #0
   8:	d031      	beq.n	6e <hih5030Read+0x6e>
   a:	4c24      	ldr	r4, [pc, #144]	; (9c <hih5030Read+0x9c>)
   c:	7820      	ldrb	r0, [r4, #0]
   e:	b130      	cbz	r0, 1e <hih5030Read+0x1e>
  10:	f7ff fffe 	bl	0 <pinGet>
  14:	b918      	cbnz	r0, 1e <hih5030Read+0x1e>
  16:	7820      	ldrb	r0, [r4, #0]
  18:	2101      	movs	r1, #1
  1a:	f7ff fffe 	bl	0 <pinSet>
  1e:	2001      	movs	r0, #1
  20:	f7ff fffe 	bl	0 <delayms>
  24:	4b1e      	ldr	r3, [pc, #120]	; (a0 <hih5030Read+0xa0>)
  26:	7818      	ldrb	r0, [r3, #0]
  28:	f7ff fffe 	bl	0 <pinAnalog>
  2c:	f7ff fffe 	bl	0 <__aeabi_ui2d>
  30:	a311      	add	r3, pc, #68	; (adr r3, 78 <hih5030Read+0x78>)
  32:	e9d3 2300 	ldrd	r2, r3, [r3]
  36:	f7ff fffe 	bl	0 <__aeabi_ddiv>
  3a:	a311      	add	r3, pc, #68	; (adr r3, 80 <hih5030Read+0x80>)
  3c:	e9d3 2300 	ldrd	r2, r3, [r3]
  40:	f7ff fffe 	bl	0 <__aeabi_dmul>
  44:	f7ff fffe 	bl	0 <__aeabi_d2f>
  48:	f7ff fffe 	bl	0 <__aeabi_f2d>
  4c:	a30e      	add	r3, pc, #56	; (adr r3, 88 <hih5030Read+0x88>)
  4e:	e9d3 2300 	ldrd	r2, r3, [r3]
  52:	f7ff fffe 	bl	0 <__aeabi_dsub>
  56:	a30e      	add	r3, pc, #56	; (adr r3, 90 <hih5030Read+0x90>)
  58:	e9d3 2300 	ldrd	r2, r3, [r3]
  5c:	f7ff fffe 	bl	0 <__aeabi_ddiv>
  60:	2200      	movs	r2, #0
  62:	4b10      	ldr	r3, [pc, #64]	; (a4 <hih5030Read+0xa4>)
  64:	f7ff fffe 	bl	0 <__aeabi_dmul>
  68:	f7ff fffe 	bl	0 <__aeabi_d2f>
  6c:	bd10      	pop	{r4, pc}
  6e:	2000      	movs	r0, #0
  70:	bd10      	pop	{r4, pc}
  72:	bf00      	nop
  74:	f3af 8000 	nop.w
  78:	00000000 	.word	0x00000000
  7c:	40a9c800 	.word	0x40a9c800
  80:	66666666 	.word	0x66666666
  84:	400a6666 	.word	0x400a6666
  88:	4189374c 	.word	0x4189374c
  8c:	3fe0e560 	.word	0x3fe0e560
  90:	e0000000 	.word	0xe0000000
  94:	3ffd3851 	.word	0x3ffd3851
	...
  a4:	40590000 	.word	0x40590000

Disassembly of section .text.hih5030Init:

00000000 <hih5030Init>:
hih5030Init():
   0:	b5704b0c 	.word	0xb5704b0c
   4:	2501      	movs	r5, #1
   6:	701d      	strb	r5, [r3, #0]
   8:	4b0b      	ldr	r3, [pc, #44]	; (38 <hih5030Init+0x38>)
   a:	460c      	mov	r4, r1
   c:	7018      	strb	r0, [r3, #0]
   e:	4b0b      	ldr	r3, [pc, #44]	; (3c <hih5030Init+0x3c>)
  10:	7019      	strb	r1, [r3, #0]
  12:	2100      	movs	r1, #0
  14:	f7ff fffe 	bl	0 <pinConfig>
  18:	2cff      	cmp	r4, #255	; 0xff
  1a:	d009      	beq.n	30 <hih5030Init+0x30>
  1c:	4620      	mov	r0, r4
  1e:	2103      	movs	r1, #3
  20:	f7ff fffe 	bl	0 <pinConfig>
  24:	4620      	mov	r0, r4
  26:	4629      	mov	r1, r5
  28:	e8bd 4070 	ldmia.w	sp!, {r4, r5, r6, lr}
  2c:	f7ff bffe 	b.w	0 <pinSet>
  30:	bd70      	pop	{r4, r5, r6, pc}
  32:	bf00      	nop
	...

Disassembly of section .text.hih5030Disable:

00000000 <hih5030Disable>:
hih5030Disable():
   0:	4b03      	ldr	r3, [pc, #12]	; (10 <hih5030Disable+0x10>)
   2:	7818      	ldrb	r0, [r3, #0]
   4:	b110      	cbz	r0, c <hih5030Disable+0xc>
   6:	2100      	movs	r1, #0
   8:	f7ff bffe 	b.w	0 <pinSet>
   c:	4770      	bx	lr
   e:	bf00      	nop
  10:	00000000 	.word	0x00000000
