
C:\Users\MightyDubster\Documents\Projects\pygmyos.code\Gems\main.o:     file format elf32-littlearm
C:\Users\MightyDubster\Documents\Projects\pygmyos.code\Gems\main.o


Disassembly of section .text.drawRFTest:

00000000 <drawRFTest>:
drawRFTest():
   0:	b5f0      	push	{r4, r5, r6, r7, lr}
   2:	b093      	sub	sp, #76	; 0x4c
   4:	f7ff fffe 	bl	0 <colorGetRootColor>
   8:	2165      	movs	r1, #101	; 0x65
   a:	22be      	movs	r2, #190	; 0xbe
   c:	23ff      	movs	r3, #255	; 0xff
   e:	f7ff fffe 	bl	0 <colorSetRGB>
  12:	f7ff fffe 	bl	0 <colorGetRootBackColor>
  16:	2165      	movs	r1, #101	; 0x65
  18:	460a      	mov	r2, r1
  1a:	460b      	mov	r3, r1
  1c:	f7ff fffe 	bl	0 <colorSetRGB>
  20:	f7ff fffe 	bl	0 <colorGetRootFocusColor>
  24:	2165      	movs	r1, #101	; 0x65
  26:	460a      	mov	r2, r1
  28:	460b      	mov	r3, r1
  2a:	f7ff fffe 	bl	0 <colorSetRGB>
  2e:	f7ff fffe 	bl	0 <colorGetRootFocusBackColor>
  32:	2165      	movs	r1, #101	; 0x65
  34:	228e      	movs	r2, #142	; 0x8e
  36:	23df      	movs	r3, #223	; 0xdf
  38:	f7ff fffe 	bl	0 <colorSetRGB>
  3c:	f7ff fffe 	bl	0 <colorGetRootClearColor>
  40:	21ff      	movs	r1, #255	; 0xff
  42:	220e      	movs	r2, #14
  44:	23e0      	movs	r3, #224	; 0xe0
  46:	f7ff fffe 	bl	0 <colorSetRGB>
  4a:	2008      	movs	r0, #8
  4c:	f7ff fffe 	bl	0 <guiSetRadius>
  50:	4829      	ldr	r0, [pc, #164]	; (a8 <guiSetStyle+0xa8>)
  52:	f7ff fffe 	bl	0 <guiSetStyle>
  56:	f7ff fffe 	bl	0 <formFreeAll>
  5a:	2280      	movs	r2, #128	; 0x80
  5c:	2000      	movs	r0, #0
  5e:	4613      	mov	r3, r2
  60:	4601      	mov	r1, r0
  62:	f7ff fffe 	bl	0 <formNew>
  66:	4b25      	ldr	r3, [pc, #148]	; (fc <drawRFTest+0xfc>)
  68:	2705      	movs	r7, #5
  6a:	9307      	str	r3, [sp, #28]
  6c:	2306      	movs	r3, #6
  6e:	f8ad 3016 	strh.w	r3, [sp, #22]
  72:	4b23      	ldr	r3, [pc, #140]	; (100 <drawRFTest+0x100>)
  74:	2600      	movs	r6, #0
  76:	257f      	movs	r5, #127	; 0x7f
  78:	2424      	movs	r4, #36	; 0x24
  7a:	4668      	mov	r0, sp
  7c:	9309      	str	r3, [sp, #36]	; 0x24
  7e:	f88d 7020 	strb.w	r7, [sp, #32]
  82:	f8ad 6014 	strh.w	r6, [sp, #20]
  86:	f8ad 5018 	strh.w	r5, [sp, #24]
  8a:	f8ad 401a 	strh.w	r4, [sp, #26]
  8e:	f7ff fffe 	bl	0 <formAddWidget>
  92:	4b1c      	ldr	r3, [pc, #112]	; (104 <drawRFTest+0x104>)
  94:	491c      	ldr	r1, [pc, #112]	; (108 <drawRFTest+0x108>)
  96:	9307      	str	r3, [sp, #28]
  98:	481c      	ldr	r0, [pc, #112]	; (10c <drawRFTest+0x10c>)
  9a:	232e      	movs	r3, #46	; 0x2e
  9c:	f8ad 3016 	strh.w	r3, [sp, #22]
  a0:	f88d 7020 	strb.w	r7, [sp, #32]
  a4:	f8ad 6014 	strh.w	r6, [sp, #20]
  a8:	f8ad 5018 	strh.w	r5, [sp, #24]
  ac:	f8ad 401a 	strh.w	r4, [sp, #26]
  b0:	f7ff fffe 	bl	0 <copyString>
  b4:	4b14      	ldr	r3, [pc, #80]	; (108 <drawRFTest+0x108>)
  b6:	4668      	mov	r0, sp
  b8:	9309      	str	r3, [sp, #36]	; 0x24
  ba:	f7ff fffe 	bl	0 <formAddWidget>
  be:	4b14      	ldr	r3, [pc, #80]	; (110 <drawRFTest+0x110>)
  c0:	4668      	mov	r0, sp
  c2:	9307      	str	r3, [sp, #28]
  c4:	2304      	movs	r3, #4
  c6:	f88d 3020 	strb.w	r3, [sp, #32]
  ca:	2356      	movs	r3, #86	; 0x56
  cc:	f8ad 3016 	strh.w	r3, [sp, #22]
  d0:	4b10      	ldr	r3, [pc, #64]	; (114 <drawRFTest+0x114>)
  d2:	9309      	str	r3, [sp, #36]	; 0x24
  d4:	f7ff fffe 	bl	0 <formAddWidget>
  d8:	f7ff fffe 	bl	0 <formGetWidgetCount>
  dc:	3801      	subs	r0, #1
  de:	b280      	uxth	r0, r0
  e0:	f7ff fffe 	bl	0 <formSetFocus>
  e4:	f7ff fffe 	bl	0 <widgetGetCurrent>
  e8:	490b      	ldr	r1, [pc, #44]	; (118 <drawRFTest+0x118>)
  ea:	220b      	movs	r2, #11
  ec:	f7ff fffe 	bl	0 <widgetAddEventHandler>
  f0:	f7ff fffe 	bl	0 <drawForms>
  f4:	b013      	add	sp, #76	; 0x4c
  f6:	bdf0      	pop	{r4, r5, r6, r7, pc}
  f8:	00010055 	.word	0x00010055
  fc:	00110051 	.word	0x00110051
 100:	00000000 	.word	0x00000000
 104:	00100041 	.word	0x00100041
 108:	00000000 	.word	0x00000000
 10c:	00000009 	.word	0x00000009
 110:	00110151 	.word	0x00110151
 114:	00000014 	.word	0x00000014
 118:	00000000 	.word	0x00000000

Disassembly of section .text.drawMainMenu:

00000000 <drawMainMenu>:
drawMainMenu():
   0:	b500      	push	{lr}
   2:	2100      	movs	r1, #0
   4:	b093      	sub	sp, #76	; 0x4c
   6:	2202      	movs	r2, #2
   8:	2301      	movs	r3, #1
   a:	4847      	ldr	r0, [pc, #284]	; (128 <drawMainMenu+0x128>)
   c:	f7ff fffe 	bl	0 <pinInterrupt>
  10:	2128      	movs	r1, #40	; 0x28
  12:	2202      	movs	r2, #2
  14:	2301      	movs	r3, #1
  16:	4845      	ldr	r0, [pc, #276]	; (12c <drawMainMenu+0x12c>)
  18:	f7ff fffe 	bl	0 <pinInterrupt>
  1c:	2106      	movs	r1, #6
  1e:	2202      	movs	r2, #2
  20:	2301      	movs	r3, #1
  22:	4843      	ldr	r0, [pc, #268]	; (130 <drawMainMenu+0x130>)
  24:	f7ff fffe 	bl	0 <pinInterrupt>
  28:	2104      	movs	r1, #4
  2a:	2202      	movs	r2, #2
  2c:	2301      	movs	r3, #1
  2e:	4841      	ldr	r0, [pc, #260]	; (134 <drawMainMenu+0x134>)
  30:	f7ff fffe 	bl	0 <pinInterrupt>
  34:	2105      	movs	r1, #5
  36:	2202      	movs	r2, #2
  38:	2301      	movs	r3, #1
  3a:	483f      	ldr	r0, [pc, #252]	; (138 <drawMainMenu+0x138>)
  3c:	f7ff fffe 	bl	0 <pinInterrupt>
  40:	2102      	movs	r1, #2
  42:	460a      	mov	r2, r1
  44:	2301      	movs	r3, #1
  46:	483d      	ldr	r0, [pc, #244]	; (13c <drawMainMenu+0x13c>)
  48:	f7ff fffe 	bl	0 <pinInterrupt>
  4c:	2103      	movs	r1, #3
  4e:	2202      	movs	r2, #2
  50:	2301      	movs	r3, #1
  52:	483b      	ldr	r0, [pc, #236]	; (140 <drawMainMenu+0x140>)
  54:	f7ff fffe 	bl	0 <pinInterrupt>
  58:	f7ff fffe 	bl	0 <colorGetRootColor>
  5c:	22be      	movs	r2, #190	; 0xbe
  5e:	23ff      	movs	r3, #255	; 0xff
  60:	2165      	movs	r1, #101	; 0x65
  62:	f7ff fffe 	bl	0 <colorSetRGB>
  66:	f7ff fffe 	bl	0 <colorGetRootBackColor>
  6a:	2165      	movs	r1, #101	; 0x65
  6c:	460a      	mov	r2, r1
  6e:	460b      	mov	r3, r1
  70:	f7ff fffe 	bl	0 <colorSetRGB>
  74:	f7ff fffe 	bl	0 <colorGetRootFocusColor>
  78:	2165      	movs	r1, #101	; 0x65
  7a:	460a      	mov	r2, r1
  7c:	460b      	mov	r3, r1
  7e:	f7ff fffe 	bl	0 <colorSetRGB>
  82:	f7ff fffe 	bl	0 <colorGetRootFocusBackColor>
  86:	2165      	movs	r1, #101	; 0x65
  88:	228e      	movs	r2, #142	; 0x8e
  8a:	23df      	movs	r3, #223	; 0xdf
  8c:	f7ff fffe 	bl	0 <colorSetRGB>
  90:	f7ff fffe 	bl	0 <colorGetRootClearColor>
  94:	21ff      	movs	r1, #255	; 0xff
  96:	220e      	movs	r2, #14
  98:	23e0      	movs	r3, #224	; 0xe0
  9a:	f7ff fffe 	bl	0 <colorSetRGB>
  9e:	2008      	movs	r0, #8
  a0:	f7ff fffe 	bl	0 <guiSetRadius>
  a4:	4827      	ldr	r0, [pc, #156]	; (a0 <guiSetStyle+0xa0>)
  a6:	f7ff fffe 	bl	0 <guiSetStyle>
  aa:	f7ff fffe 	bl	0 <formFreeAll>
  ae:	2280      	movs	r2, #128	; 0x80
  b0:	2000      	movs	r0, #0
  b2:	4613      	mov	r3, r2
  b4:	4601      	mov	r1, r0
  b6:	f7ff fffe 	bl	0 <formNew>
  ba:	4b23      	ldr	r3, [pc, #140]	; (148 <drawMainMenu+0x148>)
  bc:	4668      	mov	r0, sp
  be:	9307      	str	r3, [sp, #28]
  c0:	2304      	movs	r3, #4
  c2:	f88d 3020 	strb.w	r3, [sp, #32]
  c6:	2300      	movs	r3, #0
  c8:	f8ad 3014 	strh.w	r3, [sp, #20]
  cc:	2306      	movs	r3, #6
  ce:	f8ad 3016 	strh.w	r3, [sp, #22]
  d2:	237f      	movs	r3, #127	; 0x7f
  d4:	f8ad 3018 	strh.w	r3, [sp, #24]
  d8:	2324      	movs	r3, #36	; 0x24
  da:	f8ad 301a 	strh.w	r3, [sp, #26]
  de:	4b1b      	ldr	r3, [pc, #108]	; (14c <drawMainMenu+0x14c>)
  e0:	9309      	str	r3, [sp, #36]	; 0x24
  e2:	f7ff fffe 	bl	0 <formAddWidget>
  e6:	f7ff fffe 	bl	0 <widgetGetCurrent>
  ea:	4919      	ldr	r1, [pc, #100]	; (150 <drawMainMenu+0x150>)
  ec:	220b      	movs	r2, #11
  ee:	f7ff fffe 	bl	0 <widgetAddEventHandler>
  f2:	232e      	movs	r3, #46	; 0x2e
  f4:	f8ad 3016 	strh.w	r3, [sp, #22]
  f8:	4b16      	ldr	r3, [pc, #88]	; (154 <drawMainMenu+0x154>)
  fa:	4668      	mov	r0, sp
  fc:	9309      	str	r3, [sp, #36]	; 0x24
  fe:	f7ff fffe 	bl	0 <formAddWidget>
 102:	f7ff fffe 	bl	0 <widgetGetCurrent>
 106:	4914      	ldr	r1, [pc, #80]	; (158 <drawMainMenu+0x158>)
 108:	220b      	movs	r2, #11
 10a:	f7ff fffe 	bl	0 <widgetAddEventHandler>
 10e:	2356      	movs	r3, #86	; 0x56
 110:	f8ad 3016 	strh.w	r3, [sp, #22]
 114:	4b11      	ldr	r3, [pc, #68]	; (15c <drawMainMenu+0x15c>)
 116:	4668      	mov	r0, sp
 118:	9309      	str	r3, [sp, #36]	; 0x24
 11a:	f7ff fffe 	bl	0 <formAddWidget>
 11e:	f7ff fffe 	bl	0 <drawForms>
 122:	b013      	add	sp, #76	; 0x4c
 124:	bd00      	pop	{pc}
 126:	bf00      	nop
	...
 144:	00010055 	.word	0x00010055
 148:	00110151 	.word	0x00110151
 14c:	00000019 	.word	0x00000019
 150:	00000000 	.word	0x00000000
 154:	00000024 	.word	0x00000024
 158:	00000000 	.word	0x00000000
 15c:	0000002c 	.word	0x0000002c

Disassembly of section .text.eventRFBack:

00000000 <eventRFBack>:
eventRFBack():
   0:	2100b510 	.word	0x2100b510
   4:	4803      	ldr	r0, [pc, #12]	; (10 <taskDelete+0x10>)
   6:	f7ff fffe 	bl	0 <taskDelete>
   a:	e8bd 4010 	ldmia.w	sp!, {r4, lr}
   e:	f7ff bffe 	b.w	0 <eventRFBack>
  12:	bf00      	nop
  14:	00000035 	.word	0x00000035

Disassembly of section .text.main:

00000000 <main>:
main():
   0:	b530      	push	{r4, r5, lr}
   2:	b087      	sub	sp, #28
   4:	f7ff fffe 	bl	0 <sysInit>
   8:	f7ff fffe 	bl	0 <socketInit>
   c:	f7ff fffe 	bl	0 <rfInit>
  10:	f7ff fffe 	bl	0 <socketGetID>
  14:	4c42      	ldr	r4, [pc, #264]	; (120 <main+0x120>)
  16:	4602      	mov	r2, r0
  18:	4942      	ldr	r1, [pc, #264]	; (124 <main+0x124>)
  1a:	2001      	movs	r0, #1
  1c:	f7ff fffe 	bl	0 <print>
  20:	8aa3      	ldrh	r3, [r4, #20]
  22:	f5b3 6f86 	cmp.w	r3, #1072	; 0x430
  26:	d103      	bne.n	30 <main+0x30>
  28:	2001      	movs	r0, #1
  2a:	493f      	ldr	r1, [pc, #252]	; (128 <main+0x128>)
  2c:	f7ff fffe 	bl	0 <print>
  30:	6822      	ldr	r2, [r4, #0]
  32:	4b3e      	ldr	r3, [pc, #248]	; (12c <main+0x12c>)
  34:	429a      	cmp	r2, r3
  36:	d103      	bne.n	40 <main+0x40>
  38:	2001      	movs	r0, #1
  3a:	493d      	ldr	r1, [pc, #244]	; (130 <main+0x130>)
  3c:	f7ff fffe 	bl	0 <print>
  40:	7de3      	ldrb	r3, [r4, #23]
  42:	2b09      	cmp	r3, #9
  44:	d103      	bne.n	4e <main+0x4e>
  46:	2001      	movs	r0, #1
  48:	493a      	ldr	r1, [pc, #232]	; (134 <main+0x134>)
  4a:	f7ff fffe 	bl	0 <print>
  4e:	7e23      	ldrb	r3, [r4, #24]
  50:	2b0a      	cmp	r3, #10
  52:	d103      	bne.n	5c <main+0x5c>
  54:	2001      	movs	r0, #1
  56:	4938      	ldr	r1, [pc, #224]	; (138 <main+0x138>)
  58:	f7ff fffe 	bl	0 <print>
  5c:	220a      	movs	r2, #10
  5e:	23ff      	movs	r3, #255	; 0xff
  60:	2109      	movs	r1, #9
  62:	2051      	movs	r0, #81	; 0x51
  64:	f7ff fffe 	bl	0 <eepromOpen>
  68:	2144      	movs	r1, #68	; 0x44
  6a:	2000      	movs	r0, #0
  6c:	f7ff fffe 	bl	0 <eepromPutChar>
  70:	2155      	movs	r1, #85	; 0x55
  72:	2001      	movs	r0, #1
  74:	f7ff fffe 	bl	0 <eepromPutChar>
  78:	2142      	movs	r1, #66	; 0x42
  7a:	2002      	movs	r0, #2
  7c:	f7ff fffe 	bl	0 <eepromPutChar>
  80:	2001      	movs	r0, #1
  82:	492e      	ldr	r1, [pc, #184]	; (13c <main+0x13c>)
  84:	f7ff fffe 	bl	0 <print>
  88:	2400      	movs	r4, #0
  8a:	4620      	mov	r0, r4
  8c:	f7ff fffe 	bl	0 <eepromGetChar>
  90:	b2c5      	uxtb	r5, r0
  92:	4628      	mov	r0, r5
  94:	f7ff fffe 	bl	0 <isAlphaOrNumeric>
  98:	b110      	cbz	r0, a0 <main+0xa0>
  9a:	2001      	movs	r0, #1
  9c:	4928      	ldr	r1, [pc, #160]	; (140 <main+0x140>)
  9e:	e001      	b.n	a4 <main+0xa4>
  a0:	4928      	ldr	r1, [pc, #160]	; (144 <main+0x144>)
  a2:	2001      	movs	r0, #1
  a4:	462a      	mov	r2, r5
  a6:	3401      	adds	r4, #1
  a8:	f7ff fffe 	bl	0 <print>
  ac:	2c03      	cmp	r4, #3
  ae:	d1ec      	bne.n	8a <main+0x8a>
  b0:	a801      	add	r0, sp, #4
  b2:	4925      	ldr	r1, [pc, #148]	; (148 <main+0x148>)
  b4:	f7ff fffe 	bl	0 <isStringSame>
  b8:	b368      	cbz	r0, 116 <main+0x116>
  ba:	2001      	movs	r0, #1
  bc:	4923      	ldr	r1, [pc, #140]	; (14c <main+0x14c>)
  be:	f7ff fffe 	bl	0 <print>
  c2:	4923      	ldr	r1, [pc, #140]	; (150 <main+0x150>)
  c4:	4823      	ldr	r0, [pc, #140]	; (154 <main+0x154>)
  c6:	f7ff fffe 	bl	0 <fileOpenResource>
  ca:	4923      	ldr	r1, [pc, #140]	; (158 <main+0x158>)
  cc:	4821      	ldr	r0, [pc, #132]	; (154 <main+0x154>)
  ce:	f7ff fffe 	bl	0 <fontLoad>
  d2:	4821      	ldr	r0, [pc, #132]	; (88 <fontSetAll+0x88>)
  d4:	f7ff fffe 	bl	0 <fontSetAll>
  d8:	2000      	movs	r0, #0
  da:	2118      	movs	r1, #24
  dc:	f7ff fffe 	bl	0 <pinConfig>
  e0:	2028      	movs	r0, #40	; 0x28
  e2:	2118      	movs	r1, #24
  e4:	f7ff fffe 	bl	0 <pinConfig>
  e8:	2006      	movs	r0, #6
  ea:	2118      	movs	r1, #24
  ec:	f7ff fffe 	bl	0 <pinConfig>
  f0:	2004      	movs	r0, #4
  f2:	2118      	movs	r1, #24
  f4:	f7ff fffe 	bl	0 <pinConfig>
  f8:	2005      	movs	r0, #5
  fa:	2118      	movs	r1, #24
  fc:	f7ff fffe 	bl	0 <pinConfig>
 100:	2002      	movs	r0, #2
 102:	2118      	movs	r1, #24
 104:	f7ff fffe 	bl	0 <pinConfig>
 108:	4620      	mov	r0, r4
 10a:	2118      	movs	r1, #24
 10c:	f7ff fffe 	bl	0 <pinConfig>
 110:	f7ff fffe 	bl	0 <main>
 114:	e003      	b.n	11e <main+0x11e>
 116:	2020      	movs	r0, #32
 118:	2121      	movs	r1, #33	; 0x21
 11a:	f7ff fffe 	bl	0 <humidityInit>
 11e:	e7fe      	b.n	0 <pygmyGlobalData>
 120:	00000000 	.word	0x00000000
 124:	0000003e 	.word	0x0000003e
 128:	0000004d 	.word	0x0000004d
 12c:	044aa200 	.word	0x044aa200
 130:	00000079 	.word	0x00000079
 134:	000000a1 	.word	0x000000a1
 138:	000000cd 	.word	0x000000cd
 13c:	000000f8 	.word	0x000000f8
 140:	0000010e 	.word	0x0000010e
 144:	00000111 	.word	0x00000111
 148:	00000116 	.word	0x00000116
 14c:	00000121 	.word	0x00000121
	...

Disassembly of section .text.threadRFHumidity:

00000000 <threadRFHumidity>:
threadRFHumidity():
   0:	4824b510 	.word	0x4824b510
   4:	b08a      	sub	sp, #40	; 0x28
   6:	f04f 31ff 	mov.w	r1, #4294967295
   a:	f7ff fffe 	bl	0 <socketGet>
   e:	4604      	mov	r4, r0
  10:	2800      	cmp	r0, #0
  12:	d12e      	bne.n	72 <threadRFHumidity+0x72>
  14:	4668      	mov	r0, sp
  16:	4920      	ldr	r1, [pc, #128]	; (98 <threadRFHumidity+0x98>)
  18:	2201      	movs	r2, #1
  1a:	f7ff fffe 	bl	0 <fileOpen>
  1e:	b1e8      	cbz	r0, 5c <threadRFHumidity+0x5c>
  20:	2001      	movs	r0, #1
  22:	491e      	ldr	r1, [pc, #120]	; (9c <threadRFHumidity+0x9c>)
  24:	f7ff fffe 	bl	0 <print>
  28:	2114      	movs	r1, #20
  2a:	4a1d      	ldr	r2, [pc, #116]	; (a0 <threadRFHumidity+0xa0>)
  2c:	4668      	mov	r0, sp
  2e:	f7ff fffe 	bl	0 <fileGetBuffer>
  32:	1e43      	subs	r3, r0, #1
  34:	b29b      	uxth	r3, r3
  36:	2b06      	cmp	r3, #6
  38:	bf98      	it	ls
  3a:	4b19      	ldrls	r3, [pc, #100]	; (a0 <threadRFHumidity+0xa0>)
  3c:	4919      	ldr	r1, [pc, #100]	; (a4 <threadRFHumidity+0xa4>)
  3e:	bf98      	it	ls
  40:	541c      	strbls	r4, [r3, r0]
  42:	4a17      	ldr	r2, [pc, #92]	; (a0 <threadRFHumidity+0xa0>)
  44:	2001      	movs	r0, #1
  46:	f7ff fffe 	bl	0 <print>
  4a:	4813      	ldr	r0, [pc, #76]	; (50 <fileDelete+0x50>)
  4c:	f7ff fffe 	bl	0 <fileDelete>
  50:	2001      	movs	r0, #1
  52:	4915      	ldr	r1, [pc, #84]	; (a8 <threadRFHumidity+0xa8>)
  54:	f7ff fffe 	bl	0 <print>
  58:	f7ff fffe 	bl	0 <drawForms>
  5c:	2001      	movs	r0, #1
  5e:	4913      	ldr	r1, [pc, #76]	; (ac <threadRFHumidity+0xac>)
  60:	f7ff fffe 	bl	0 <print>
  64:	490c      	ldr	r1, [pc, #48]	; (98 <threadRFHumidity+0x98>)
  66:	480b      	ldr	r0, [pc, #44]	; (94 <threadRFHumidity+0x94>)
  68:	f7ff fffe 	bl	0 <socketRequestFile>
  6c:	2001      	movs	r0, #1
  6e:	4910      	ldr	r1, [pc, #64]	; (b0 <threadRFHumidity+0xb0>)
  70:	e00b      	b.n	8a <threadRFHumidity+0x8a>
  72:	4b10      	ldr	r3, [pc, #64]	; (b4 <threadRFHumidity+0xb4>)
  74:	681a      	ldr	r2, [r3, #0]
  76:	b932      	cbnz	r2, 86 <threadRFHumidity+0x86>
  78:	3201      	adds	r2, #1
  7a:	601a      	str	r2, [r3, #0]
  7c:	4906      	ldr	r1, [pc, #24]	; (98 <threadRFHumidity+0x98>)
  7e:	4805      	ldr	r0, [pc, #20]	; (94 <threadRFHumidity+0x94>)
  80:	f7ff fffe 	bl	0 <socketRequestFile>
  84:	e003      	b.n	8e <threadRFHumidity+0x8e>
  86:	490c      	ldr	r1, [pc, #48]	; (b8 <threadRFHumidity+0xb8>)
  88:	2001      	movs	r0, #1
  8a:	f7ff fffe 	bl	0 <print>
  8e:	b00a      	add	sp, #40	; 0x28
  90:	bd10      	pop	{r4, pc}
  92:	bf00      	nop
  94:	13480238 	.word	0x13480238
  98:	00000136 	.word	0x00000136
  9c:	00000143 	.word	0x00000143
  a0:	00000000 	.word	0x00000000
  a4:	00000157 	.word	0x00000157
  a8:	00000169 	.word	0x00000169
  ac:	0000017f 	.word	0x0000017f
  b0:	00000198 	.word	0x00000198
  b4:	00000000 	.word	0x00000000
  b8:	0000019c 	.word	0x0000019c

Disassembly of section .text.threadRFHumiditySave:

00000000 <threadRFHumiditySave>:
threadRFHumiditySave():
   0:	b08ab510 	.word	0xb08ab510
   4:	4820      	ldr	r0, [pc, #128]	; (88 <threadRFHumiditySave+0x88>)
   6:	f24f 0101 	movw	r1, #61441	; 0xf001
   a:	aa05      	add	r2, sp, #20
   c:	f7ff fffe 	bl	0 <msgGet>
  10:	2800      	cmp	r0, #0
  12:	d037      	beq.n	84 <threadRFHumiditySave+0x84>
  14:	2001      	movs	r0, #1
  16:	491d      	ldr	r1, [pc, #116]	; (8c <threadRFHumiditySave+0x8c>)
  18:	f7ff fffe 	bl	0 <print>
  1c:	9807      	ldr	r0, [sp, #28]
  1e:	491c      	ldr	r1, [pc, #112]	; (90 <threadRFHumiditySave+0x90>)
  20:	f7ff fffe 	bl	0 <isStringSame>
  24:	4604      	mov	r4, r0
  26:	b1d8      	cbz	r0, 60 <threadRFHumiditySave+0x60>
  28:	f7ff fffe 	bl	0 <humidityRead>
  2c:	f7ff fffe 	bl	0 <__aeabi_f2lz>
  30:	4a18      	ldr	r2, [pc, #96]	; (94 <threadRFHumiditySave+0x94>)
  32:	466b      	mov	r3, sp
  34:	f7ff fffe 	bl	0 <convertIntToString>
  38:	9808      	ldr	r0, [sp, #32]
  3a:	4601      	mov	r1, r0
  3c:	f7ff fffe 	bl	0 <socketGet>
  40:	4604      	mov	r4, r0
  42:	b140      	cbz	r0, 56 <threadRFHumiditySave+0x56>
  44:	2001      	movs	r0, #1
  46:	4914      	ldr	r1, [pc, #80]	; (98 <threadRFHumiditySave+0x98>)
  48:	f7ff fffe 	bl	0 <print>
  4c:	4620      	mov	r0, r4
  4e:	4669      	mov	r1, sp
  50:	f7ff fffe 	bl	0 <socketSendDataFromString>
  54:	e016      	b.n	84 <threadRFHumiditySave+0x84>
  56:	2001      	movs	r0, #1
  58:	4910      	ldr	r1, [pc, #64]	; (9c <threadRFHumiditySave+0x9c>)
  5a:	f7ff fffe 	bl	0 <print>
  5e:	e011      	b.n	84 <threadRFHumiditySave+0x84>
  60:	9807      	ldr	r0, [sp, #28]
  62:	490f      	ldr	r1, [pc, #60]	; (a0 <threadRFHumiditySave+0xa0>)
  64:	f7ff fffe 	bl	0 <isStringSame>
  68:	b160      	cbz	r0, 84 <threadRFHumiditySave+0x84>
  6a:	2001      	movs	r0, #1
  6c:	490d      	ldr	r1, [pc, #52]	; (a4 <threadRFHumiditySave+0xa4>)
  6e:	9a08      	ldr	r2, [sp, #32]
  70:	f7ff fffe 	bl	0 <print>
  74:	9808      	ldr	r0, [sp, #32]
  76:	4621      	mov	r1, r4
  78:	4a06      	ldr	r2, [pc, #24]	; (94 <threadRFHumiditySave+0x94>)
  7a:	4b0b      	ldr	r3, [pc, #44]	; (a8 <threadRFHumiditySave+0xa8>)
  7c:	f7ff fffe 	bl	0 <convertIntToString>
  80:	f7ff fffe 	bl	0 <drawForms>
  84:	b00a      	add	sp, #40	; 0x28
  86:	bd10      	pop	{r4, pc}
  88:	00000035 	.word	0x00000035
  8c:	000001b0 	.word	0x000001b0
  90:	000001c2 	.word	0x000001c2
  94:	000001c5 	.word	0x000001c5
  98:	000001c8 	.word	0x000001c8
  9c:	000001d6 	.word	0x000001d6
  a0:	000001e7 	.word	0x000001e7
  a4:	000001ea 	.word	0x000001ea
  a8:	00000000 	.word	0x00000000
