
C:\Users\MightyDubster\Documents\Projects\pygmyos.code\Gems\pygmy_gui.o:     file format elf32-littlearm
C:\Users\MightyDubster\Documents\Projects\pygmyos.code\Gems\pygmy_gui.o


Disassembly of section .text.guiSetStyle:

00000000 <guiSetStyle>:
guiSetStyle():
   0:	4b01      	ldr	r3, [pc, #4]	; (8 <guiSetStyle+0x8>)
   2:	63d8      	str	r0, [r3, #60]	; 0x3c
   4:	4770      	bx	lr
   6:	bf00      	nop
   8:	00000000 	.word	0x00000000

Disassembly of section .text.guiGetStyle:

00000000 <guiGetStyle>:
guiGetStyle():
   0:	4b01      	ldr	r3, [pc, #4]	; (8 <guiGetStyle+0x8>)
   2:	6bd8      	ldr	r0, [r3, #60]	; 0x3c
   4:	4770      	bx	lr
   6:	bf00      	nop
   8:	00000000 	.word	0x00000000

Disassembly of section .text.guiSetRadius:

00000000 <guiSetRadius>:
guiSetRadius():
   0:	4b01      	ldr	r3, [pc, #4]	; (8 <guiSetRadius+0x8>)
   2:	f883 0040 	strb.w	r0, [r3, #64]	; 0x40
   6:	4770      	bx	lr
   8:	00000000 	.word	0x00000000

Disassembly of section .text.guiGetRadius:

00000000 <guiGetRadius>:
guiGetRadius():
   0:	4b01      	ldr	r3, [pc, #4]	; (8 <guiGetRadius+0x8>)
   2:	f893 0040 	ldrb.w	r0, [r3, #64]	; 0x40
   6:	4770      	bx	lr
   8:	00000000 	.word	0x00000000

Disassembly of section .text.guiSetCursor:

00000000 <guiSetCursor>:
guiSetCursor():
   0:	4b01      	ldr	r3, [pc, #4]	; (8 <guiSetCursor+0x8>)
   2:	8598      	strh	r0, [r3, #44]	; 0x2c
   4:	85d9      	strh	r1, [r3, #46]	; 0x2e
   6:	4770      	bx	lr
   8:	00000000 	.word	0x00000000

Disassembly of section .text.guiGetCursorX:

00000000 <guiGetCursorX>:
guiGetCursorX():
   0:	4b01      	ldr	r3, [pc, #4]	; (8 <guiGetCursorX+0x8>)
   2:	8d98      	ldrh	r0, [r3, #44]	; 0x2c
   4:	4770      	bx	lr
   6:	bf00      	nop
   8:	00000000 	.word	0x00000000

Disassembly of section .text.guiGetCursorY:

00000000 <guiGetCursorY>:
guiGetCursorY():
   0:	4b01      	ldr	r3, [pc, #4]	; (8 <guiGetCursorY+0x8>)
   2:	8dd8      	ldrh	r0, [r3, #46]	; 0x2e
   4:	4770      	bx	lr
   6:	bf00      	nop
   8:	00000000 	.word	0x00000000

Disassembly of section .text.guiGetCursor:

00000000 <guiGetCursor>:
guiGetCursor():
   0:	47704800 	.word	0x47704800
   4:	0000002c 	.word	0x0000002c

Disassembly of section .text.colorSetRGB:

00000000 <colorSetRGB>:
colorSetRGB():
   0:	7001      	strb	r1, [r0, #0]
   2:	7042      	strb	r2, [r0, #1]
   4:	7083      	strb	r3, [r0, #2]
   6:	4770      	bx	lr

Disassembly of section .text.colorCopy:

00000000 <colorCopy>:
colorCopy():
   0:	7803      	ldrb	r3, [r0, #0]
   2:	700b      	strb	r3, [r1, #0]
   4:	7843      	ldrb	r3, [r0, #1]
   6:	704b      	strb	r3, [r1, #1]
   8:	7883      	ldrb	r3, [r0, #2]
   a:	708b      	strb	r3, [r1, #2]
   c:	4770      	bx	lr

Disassembly of section .text.colorApply:

00000000 <colorApply>:
colorApply():
   0:	4603      	mov	r3, r0
   2:	7859      	ldrb	r1, [r3, #1]
   4:	7800      	ldrb	r0, [r0, #0]
   6:	789a      	ldrb	r2, [r3, #2]
   8:	f7ff bffe 	b.w	0 <lcdSetColor>

Disassembly of section .text.colorGetRootColor:

00000000 <colorGetRootColor>:
colorGetRootColor():
   0:	4800      	ldr	r0, [pc, #0]	; (4 <colorGetRootColor+0x4>)
   2:	4770      	bx	lr
   4:	00000020 	.word	0x00000020

Disassembly of section .text.colorGetRootClearColor:

00000000 <colorGetRootClearColor>:
colorGetRootClearColor():
   0:	4800      	ldr	r0, [pc, #0]	; (4 <colorGetRootClearColor+0x4>)
   2:	4770      	bx	lr
   4:	00000014 	.word	0x00000014

Disassembly of section .text.colorGetRootFocusColor:

00000000 <colorGetRootFocusColor>:
colorGetRootFocusColor():
   0:	4800      	ldr	r0, [pc, #0]	; (4 <colorGetRootFocusColor+0x4>)
   2:	4770      	bx	lr
   4:	00000024 	.word	0x00000024

Disassembly of section .text.colorGetRootFocusBackColor:

00000000 <colorGetRootFocusBackColor>:
colorGetRootFocusBackColor():
   0:	4800      	ldr	r0, [pc, #0]	; (4 <colorGetRootFocusBackColor+0x4>)
   2:	4770      	bx	lr
   4:	00000028 	.word	0x00000028

Disassembly of section .text.colorGetRootAlphaColor:

00000000 <colorGetRootAlphaColor>:
colorGetRootAlphaColor():
   0:	4800      	ldr	r0, [pc, #0]	; (4 <colorGetRootAlphaColor+0x4>)
   2:	4770      	bx	lr
   4:	00000018 	.word	0x00000018

Disassembly of section .text.colorGetRootBackColor:

00000000 <colorGetRootBackColor>:
colorGetRootBackColor():
   0:	4800      	ldr	r0, [pc, #0]	; (4 <colorGetRootBackColor+0x4>)
   2:	4770      	bx	lr
   4:	0000001c 	.word	0x0000001c

Disassembly of section .text.fontSetColor:

00000000 <fontSetColor>:
fontSetColor():
   0:	4603      	mov	r3, r0
   2:	b507      	push	{r0, r1, r2, lr}
   4:	4608      	mov	r0, r1
   6:	4619      	mov	r1, r3
   8:	f7ff fffe 	bl	0 <fontSetColor>
   c:	2001      	movs	r0, #1
   e:	4907      	ldr	r1, [pc, #28]	; (2c <fontSetColor+0x2c>)
  10:	f7ff fffe 	bl	0 <print>
  14:	4b06      	ldr	r3, [pc, #24]	; (30 <fontSetColor+0x30>)
  16:	2001      	movs	r0, #1
  18:	6819      	ldr	r1, [r3, #0]
  1a:	780a      	ldrb	r2, [r1, #0]
  1c:	784b      	ldrb	r3, [r1, #1]
  1e:	7889      	ldrb	r1, [r1, #2]
  20:	9100      	str	r1, [sp, #0]
  22:	4904      	ldr	r1, [pc, #16]	; (34 <fontSetColor+0x34>)
  24:	f7ff fffe 	bl	0 <print>
  28:	bd0e      	pop	{r1, r2, r3, pc}
  2a:	bf00      	nop
	...
  34:	00000019 	.word	0x00000019

Disassembly of section .text.fontSetBackColor:

00000000 <fontSetBackColor>:
fontSetBackColor():
   0:	1d03      	adds	r3, r0, #4
   2:	b507      	push	{r0, r1, r2, lr}
   4:	4608      	mov	r0, r1
   6:	4619      	mov	r1, r3
   8:	f7ff fffe 	bl	0 <fontSetBackColor>
   c:	2001      	movs	r0, #1
   e:	4907      	ldr	r1, [pc, #28]	; (2c <fontSetBackColor+0x2c>)
  10:	f7ff fffe 	bl	0 <print>
  14:	4b06      	ldr	r3, [pc, #24]	; (30 <fontSetBackColor+0x30>)
  16:	2001      	movs	r0, #1
  18:	6819      	ldr	r1, [r3, #0]
  1a:	790a      	ldrb	r2, [r1, #4]
  1c:	794b      	ldrb	r3, [r1, #5]
  1e:	7989      	ldrb	r1, [r1, #6]
  20:	9100      	str	r1, [sp, #0]
  22:	4904      	ldr	r1, [pc, #16]	; (34 <fontSetBackColor+0x34>)
  24:	f7ff fffe 	bl	0 <print>
  28:	bd0e      	pop	{r1, r2, r3, pc}
  2a:	bf00      	nop
  2c:	0000002e 	.word	0x0000002e
  30:	00000000 	.word	0x00000000
  34:	00000019 	.word	0x00000019

Disassembly of section .text.fontGetActive:

00000000 <fontGetActive>:
fontGetActive():
   0:	68184b01 	.word	0x68184b01
   4:	4770      	bx	lr
   6:	bf00      	nop
   8:	00000000 	.word	0x00000000

Disassembly of section .text.fontGetSmall:

00000000 <fontGetSmall>:
fontGetSmall():
   0:	4b01      	ldr	r3, [pc, #4]	; (8 <fontGetSmall+0x8>)
   2:	6858      	ldr	r0, [r3, #4]
   4:	4770      	bx	lr
   6:	bf00      	nop
   8:	00000000 	.word	0x00000000

Disassembly of section .text.fontGetMedium:

00000000 <fontGetMedium>:
fontGetMedium():
   0:	4b01      	ldr	r3, [pc, #4]	; (8 <fontGetMedium+0x8>)
   2:	6898      	ldr	r0, [r3, #8]
   4:	4770      	bx	lr
   6:	bf00      	nop
   8:	00000000 	.word	0x00000000

Disassembly of section .text.fontGetLarge:

00000000 <fontGetLarge>:
fontGetLarge():
   0:	4b01      	ldr	r3, [pc, #4]	; (8 <fontGetLarge+0x8>)
   2:	68d8      	ldr	r0, [r3, #12]
   4:	4770      	bx	lr
   6:	bf00      	nop
   8:	00000000 	.word	0x00000000

Disassembly of section .text.fontSetActive:

00000000 <fontSetActive>:
fontSetActive():
   0:	4b01      	ldr	r3, [pc, #4]	; (8 <fontSetActive+0x8>)
   2:	6018      	str	r0, [r3, #0]
   4:	4770      	bx	lr
   6:	bf00      	nop
   8:	00000000 	.word	0x00000000

Disassembly of section .text.fontSetSmall:

00000000 <fontSetSmall>:
fontSetSmall():
   0:	4b01      	ldr	r3, [pc, #4]	; (8 <fontSetSmall+0x8>)
   2:	6058      	str	r0, [r3, #4]
   4:	4770      	bx	lr
   6:	bf00      	nop
   8:	00000000 	.word	0x00000000

Disassembly of section .text.fontSetMedium:

00000000 <fontSetMedium>:
fontSetMedium():
   0:	4b01      	ldr	r3, [pc, #4]	; (8 <fontSetMedium+0x8>)
   2:	6098      	str	r0, [r3, #8]
   4:	4770      	bx	lr
   6:	bf00      	nop
   8:	00000000 	.word	0x00000000

Disassembly of section .text.fontSetLarge:

00000000 <fontSetLarge>:
fontSetLarge():
   0:	4b01      	ldr	r3, [pc, #4]	; (8 <fontSetLarge+0x8>)
   2:	60d8      	str	r0, [r3, #12]
   4:	4770      	bx	lr
   6:	bf00      	nop
   8:	00000000 	.word	0x00000000

Disassembly of section .text.fontSetAll:

00000000 <fontSetAll>:
fontSetAll():
   0:	4b02      	ldr	r3, [pc, #8]	; (c <fontSetAll+0xc>)
   2:	6018      	str	r0, [r3, #0]
   4:	6058      	str	r0, [r3, #4]
   6:	6098      	str	r0, [r3, #8]
   8:	60d8      	str	r0, [r3, #12]
   a:	4770      	bx	lr
   c:	00000000 	.word	0x00000000

Disassembly of section .text.guiClearArea:

00000000 <guiClearArea>:
guiClearArea():
   0:	e92d 41f0 	stmdb	sp!, {r4, r5, r6, r7, r8, lr}
   4:	460d      	mov	r5, r1
   6:	4617      	mov	r7, r2
   8:	461e      	mov	r6, r3
   a:	f8bd 4018 	ldrh.w	r4, [sp, #24]
   e:	f7ff fffe 	bl	0 <guiClearArea>
  12:	4628      	mov	r0, r5
  14:	4639      	mov	r1, r7
  16:	4632      	mov	r2, r6
  18:	4623      	mov	r3, r4
  1a:	e8bd 41f0 	ldmia.w	sp!, {r4, r5, r6, r7, r8, lr}
  1e:	f7ff bffe 	b.w	0 <lcdClearArea>

Disassembly of section .text.guiClearScreen:

00000000 <guiClearScreen>:
guiClearScreen():
   0:	b510      	push	{r4, lr}
   2:	f7ff fffe 	bl	0 <guiClearScreen>
   6:	e8bd 4010 	ldmia.w	sp!, {r4, lr}
   a:	f7ff bffe 	b.w	0 <lcdClear>

Disassembly of section .text.guiInitSprites:

00000000 <guiInitSprites>:
guiInitSprites():
   0:	4b05      	ldr	r3, [pc, #20]	; (18 <guiInitSprites+0x18>)
   2:	f503 6208 	add.w	r2, r3, #2176	; 0x880
   6:	2100      	movs	r1, #0
   8:	82d9      	strh	r1, [r3, #22]
   a:	3344      	adds	r3, #68	; 0x44
   c:	4293      	cmp	r3, r2
   e:	d1fa      	bne.n	6 <guiInitSprites+0x6>
  10:	4b02      	ldr	r3, [pc, #8]	; (1c <guiInitSprites+0x1c>)
  12:	2201      	movs	r2, #1
  14:	601a      	str	r2, [r3, #0]
  16:	4770      	bx	lr
	...

Disassembly of section .text.guiGetSprite:

00000000 <guiGetSprite>:
guiGetSprite():
   0:	b510      	push	{r4, lr}
   2:	4a08      	ldr	r2, [pc, #32]	; (24 <guiGetSprite+0x24>)
   4:	2300      	movs	r3, #0
   6:	4611      	mov	r1, r2
   8:	8ad4      	ldrh	r4, [r2, #22]
   a:	4284      	cmp	r4, r0
   c:	d103      	bne.n	16 <guiGetSprite+0x16>
   e:	2044      	movs	r0, #68	; 0x44
  10:	fb00 1003 	mla	r0, r0, r3, r1
  14:	bd10      	pop	{r4, pc}
  16:	3301      	adds	r3, #1
  18:	b29b      	uxth	r3, r3
  1a:	3244      	adds	r2, #68	; 0x44
  1c:	2b20      	cmp	r3, #32
  1e:	d1f3      	bne.n	8 <guiGetSprite+0x8>
  20:	2000      	movs	r0, #0
  22:	bd10      	pop	{r4, pc}
  24:	00000000 	.word	0x00000000

Disassembly of section .text.guiCreateSprite:

00000000 <guiCreateSprite>:
guiCreateSprite():
   0:	e92d 47f0 	stmdb	sp!, {r4, r5, r6, r7, r8, r9, sl, lr}
   4:	4614      	mov	r4, r2
   6:	4698      	mov	r8, r3
   8:	460d      	mov	r5, r1
   a:	2900      	cmp	r1, #0
   c:	d030      	beq.n	70 <guiCreateSprite+0x70>
   e:	4b1a      	ldr	r3, [pc, #104]	; (78 <guiCreateSprite+0x78>)
  10:	2600      	movs	r6, #0
  12:	461f      	mov	r7, r3
  14:	8ada      	ldrh	r2, [r3, #22]
  16:	b14a      	cbz	r2, 2c <guiCreateSprite+0x2c>
  18:	42aa      	cmp	r2, r5
  1a:	d007      	beq.n	2c <guiCreateSprite+0x2c>
  1c:	3601      	adds	r6, #1
  1e:	b2b6      	uxth	r6, r6
  20:	3344      	adds	r3, #68	; 0x44
  22:	2e20      	cmp	r6, #32
  24:	d1f6      	bne.n	14 <guiCreateSprite+0x14>
  26:	2000      	movs	r0, #0
  28:	e8bd 87f0 	ldmia.w	sp!, {r4, r5, r6, r7, r8, r9, sl, pc}
  2c:	2344      	movs	r3, #68	; 0x44
  2e:	435e      	muls	r6, r3
  30:	19b9      	adds	r1, r7, r6
  32:	311c      	adds	r1, #28
  34:	eb07 0906 	add.w	r9, r7, r6
  38:	f7ff fffe 	bl	0 <fileCopyHandle>
  3c:	2300      	movs	r3, #0
  3e:	f8a9 3018 	strh.w	r3, [r9, #24]
  42:	9b08      	ldr	r3, [sp, #32]
  44:	f04f 0a01 	mov.w	sl, #1
  48:	f8c9 3004 	str.w	r3, [r9, #4]
  4c:	f847 a006 	str.w	sl, [r7, r6]
  50:	f7ff fffe 	bl	0 <timeGet>
  54:	9b09      	ldr	r3, [sp, #36]	; 0x24
  56:	f8c9 0008 	str.w	r0, [r9, #8]
  5a:	f8c9 300c 	str.w	r3, [r9, #12]
  5e:	f8c9 4010 	str.w	r4, [r9, #16]
  62:	f8a9 8014 	strh.w	r8, [r9, #20]
  66:	f8a9 5016 	strh.w	r5, [r9, #22]
  6a:	4650      	mov	r0, sl
  6c:	e8bd 87f0 	ldmia.w	sp!, {r4, r5, r6, r7, r8, r9, sl, pc}
  70:	4608      	mov	r0, r1
  72:	e8bd 87f0 	ldmia.w	sp!, {r4, r5, r6, r7, r8, r9, sl, pc}
  76:	bf00      	nop
  78:	00000000 	.word	0x00000000

Disassembly of section .text.guiDeleteSprite:

00000000 <guiDeleteSprite>:
guiDeleteSprite():
   0:	4a09b510 	.word	0x4a09b510
   4:	2300      	movs	r3, #0
   6:	4611      	mov	r1, r2
   8:	8ad4      	ldrh	r4, [r2, #22]
   a:	4284      	cmp	r4, r0
   c:	d106      	bne.n	1c <guiDeleteSprite+0x1c>
   e:	2244      	movs	r2, #68	; 0x44
  10:	fb02 1303 	mla	r3, r2, r3, r1
  14:	2200      	movs	r2, #0
  16:	82da      	strh	r2, [r3, #22]
  18:	2001      	movs	r0, #1
  1a:	bd10      	pop	{r4, pc}
  1c:	3301      	adds	r3, #1
  1e:	3244      	adds	r2, #68	; 0x44
  20:	2b20      	cmp	r3, #32
  22:	d1f1      	bne.n	8 <guiDeleteSprite+0x8>
  24:	2000      	movs	r0, #0
  26:	bd10      	pop	{r4, pc}
  28:	00000000 	.word	0x00000000

Disassembly of section .text.guiRemoveSpriteCoords:

00000000 <guiRemoveSpriteCoords>:
guiRemoveSpriteCoords():
   0:	4b19      	ldr	r3, [pc, #100]	; (68 <guiRemoveSpriteCoords+0x68>)
   2:	b5f0      	push	{r4, r5, r6, r7, lr}
   4:	469c      	mov	ip, r3
   6:	2400      	movs	r4, #0
   8:	8add      	ldrh	r5, [r3, #22]
   a:	4285      	cmp	r5, r0
   c:	d125      	bne.n	5a <guiRemoveSpriteCoords+0x5a>
   e:	2500      	movs	r5, #0
  10:	462b      	mov	r3, r5
  12:	e018      	b.n	46 <guiRemoveSpriteCoords+0x46>
  14:	6938      	ldr	r0, [r7, #16]
  16:	005e      	lsls	r6, r3, #1
  18:	f830 7013 	ldrh.w	r7, [r0, r3, lsl #1]
  1c:	428f      	cmp	r7, r1
  1e:	d104      	bne.n	2a <guiRemoveSpriteCoords+0x2a>
  20:	1c5f      	adds	r7, r3, #1
  22:	f830 7017 	ldrh.w	r7, [r0, r7, lsl #1]
  26:	4297      	cmp	r7, r2
  28:	d000      	beq.n	2c <guiRemoveSpriteCoords+0x2c>
  2a:	b155      	cbz	r5, 42 <guiRemoveSpriteCoords+0x42>
  2c:	1c9d      	adds	r5, r3, #2
  2e:	f830 5015 	ldrh.w	r5, [r0, r5, lsl #1]
  32:	5385      	strh	r5, [r0, r6]
  34:	1cde      	adds	r6, r3, #3
  36:	f830 6016 	ldrh.w	r6, [r0, r6, lsl #1]
  3a:	1c5d      	adds	r5, r3, #1
  3c:	f820 6015 	strh.w	r6, [r0, r5, lsl #1]
  40:	2501      	movs	r5, #1
  42:	3302      	adds	r3, #2
  44:	b29b      	uxth	r3, r3
  46:	2744      	movs	r7, #68	; 0x44
  48:	fb07 c704 	mla	r7, r7, r4, ip
  4c:	8abe      	ldrh	r6, [r7, #20]
  4e:	42b3      	cmp	r3, r6
  50:	d3e0      	bcc.n	14 <guiRemoveSpriteCoords+0x14>
  52:	3e02      	subs	r6, #2
  54:	82be      	strh	r6, [r7, #20]
  56:	2001      	movs	r0, #1
  58:	bdf0      	pop	{r4, r5, r6, r7, pc}
  5a:	3401      	adds	r4, #1
  5c:	3344      	adds	r3, #68	; 0x44
  5e:	2c20      	cmp	r4, #32
  60:	d1d2      	bne.n	8 <guiRemoveSpriteCoords+0x8>
  62:	2000      	movs	r0, #0
  64:	bdf0      	pop	{r4, r5, r6, r7, pc}
  66:	bf00      	nop
  68:	00000000 	.word	0x00000000

Disassembly of section .text.guiOutputBMHeader:

00000000 <guiOutputBMHeader>:
guiOutputBMHeader():
   0:	2b20      	cmp	r3, #32
   2:	e92d 41f0 	stmdb	sp!, {r4, r5, r6, r7, r8, lr}
   6:	4604      	mov	r4, r0
   8:	460d      	mov	r5, r1
   a:	4616      	mov	r6, r2
   c:	461f      	mov	r7, r3
   e:	d857      	bhi.n	c0 <guiOutputBMHeader+0xc0>
  10:	f001 0803 	and.w	r8, r1, #3
  14:	4488      	add	r8, r1
  16:	fb02 f808 	mul.w	r8, r2, r8
  1a:	08db      	lsrs	r3, r3, #3
  1c:	fb03 f808 	mul.w	r8, r3, r8
  20:	2142      	movs	r1, #66	; 0x42
  22:	f7ff fffe 	bl	0 <filePutChar>
  26:	214d      	movs	r1, #77	; 0x4d
  28:	4620      	mov	r0, r4
  2a:	f7ff fffe 	bl	0 <filePutChar>
  2e:	4620      	mov	r0, r4
  30:	f108 0136 	add.w	r1, r8, #54	; 0x36
  34:	2200      	movs	r2, #0
  36:	f7ff fffe 	bl	0 <filePutLong>
  3a:	2100      	movs	r1, #0
  3c:	4620      	mov	r0, r4
  3e:	460a      	mov	r2, r1
  40:	f7ff fffe 	bl	0 <filePutLong>
  44:	4620      	mov	r0, r4
  46:	2136      	movs	r1, #54	; 0x36
  48:	2200      	movs	r2, #0
  4a:	f7ff fffe 	bl	0 <filePutLong>
  4e:	4620      	mov	r0, r4
  50:	2128      	movs	r1, #40	; 0x28
  52:	2200      	movs	r2, #0
  54:	f7ff fffe 	bl	0 <filePutLong>
  58:	4620      	mov	r0, r4
  5a:	4629      	mov	r1, r5
  5c:	2200      	movs	r2, #0
  5e:	f7ff fffe 	bl	0 <filePutLong>
  62:	4620      	mov	r0, r4
  64:	4631      	mov	r1, r6
  66:	2200      	movs	r2, #0
  68:	f7ff fffe 	bl	0 <filePutLong>
  6c:	4620      	mov	r0, r4
  6e:	2101      	movs	r1, #1
  70:	2200      	movs	r2, #0
  72:	f7ff fffe 	bl	0 <filePutWord>
  76:	4620      	mov	r0, r4
  78:	4639      	mov	r1, r7
  7a:	2200      	movs	r2, #0
  7c:	f7ff fffe 	bl	0 <filePutWord>
  80:	2100      	movs	r1, #0
  82:	4620      	mov	r0, r4
  84:	460a      	mov	r2, r1
  86:	f7ff fffe 	bl	0 <filePutLong>
  8a:	4620      	mov	r0, r4
  8c:	4641      	mov	r1, r8
  8e:	2200      	movs	r2, #0
  90:	f7ff fffe 	bl	0 <filePutLong>
  94:	2100      	movs	r1, #0
  96:	4620      	mov	r0, r4
  98:	460a      	mov	r2, r1
  9a:	f7ff fffe 	bl	0 <filePutLong>
  9e:	2100      	movs	r1, #0
  a0:	4620      	mov	r0, r4
  a2:	460a      	mov	r2, r1
  a4:	f7ff fffe 	bl	0 <filePutLong>
  a8:	2100      	movs	r1, #0
  aa:	4620      	mov	r0, r4
  ac:	460a      	mov	r2, r1
  ae:	f7ff fffe 	bl	0 <filePutLong>
  b2:	2100      	movs	r1, #0
  b4:	4620      	mov	r0, r4
  b6:	460a      	mov	r2, r1
  b8:	e8bd 41f0 	ldmia.w	sp!, {r4, r5, r6, r7, r8, lr}
  bc:	f7ff bffe 	b.w	0 <filePutLong>
  c0:	e8bd 81f0 	ldmia.w	sp!, {r4, r5, r6, r7, r8, pc}

Disassembly of section .text.guiSaveScreen:

00000000 <guiSaveScreen>:
guiSaveScreen():
   0:	e92d 41f0 	stmdb	sp!, {r4, r5, r6, r7, r8, lr}
   4:	b090      	sub	sp, #64	; 0x40
   6:	f7ff fffe 	bl	0 <lcdGetWidth>
   a:	4606      	mov	r6, r0
   c:	f7ff fffe 	bl	0 <lcdGetHeight>
  10:	4607      	mov	r7, r0
  12:	f7ff fffe 	bl	0 <timeGet>
  16:	4a31      	ldr	r2, [pc, #196]	; (dc <guiSaveScreen+0xdc>)
  18:	ab0c      	add	r3, sp, #48	; 0x30
  1a:	17c1      	asrs	r1, r0, #31
  1c:	f7ff fffe 	bl	0 <convertIntToString>
  20:	482f      	ldr	r0, [pc, #188]	; (e0 <guiSaveScreen+0xe0>)
  22:	a90e      	add	r1, sp, #56	; 0x38
  24:	f7ff fffe 	bl	0 <copyString>
  28:	2001      	movs	r0, #1
  2a:	492e      	ldr	r1, [pc, #184]	; (e4 <guiSaveScreen+0xe4>)
  2c:	aa0c      	add	r2, sp, #48	; 0x30
  2e:	4633      	mov	r3, r6
  30:	9700      	str	r7, [sp, #0]
  32:	f7ff fffe 	bl	0 <print>
  36:	a802      	add	r0, sp, #8
  38:	492b      	ldr	r1, [pc, #172]	; (e8 <guiSaveScreen+0xe8>)
  3a:	2202      	movs	r2, #2
  3c:	f7ff fffe 	bl	0 <fileOpen>
  40:	4604      	mov	r4, r0
  42:	b928      	cbnz	r0, 50 <guiSaveScreen+0x50>
  44:	2001      	movs	r0, #1
  46:	4929      	ldr	r1, [pc, #164]	; (ec <guiSaveScreen+0xec>)
  48:	f7ff fffe 	bl	0 <print>
  4c:	4620      	mov	r0, r4
  4e:	e041      	b.n	d4 <guiSaveScreen+0xd4>
  50:	2180      	movs	r1, #128	; 0x80
  52:	a802      	add	r0, sp, #8
  54:	460a      	mov	r2, r1
  56:	2318      	movs	r3, #24
  58:	f7ff fffe 	bl	0 <guiSaveScreen>
  5c:	f006 0803 	and.w	r8, r6, #3
  60:	2400      	movs	r4, #0
  62:	e02f      	b.n	c4 <guiSaveScreen+0xc4>
  64:	1e79      	subs	r1, r7, #1
  66:	1b09      	subs	r1, r1, r4
  68:	4628      	mov	r0, r5
  6a:	b289      	uxth	r1, r1
  6c:	f7ff fffe 	bl	0 <lcdGetPixel>
  70:	f10d 033d 	add.w	r3, sp, #61	; 0x3d
  74:	f10d 023f 	add.w	r2, sp, #63	; 0x3f
  78:	9300      	str	r3, [sp, #0]
  7a:	b280      	uxth	r0, r0
  7c:	f10d 033e 	add.w	r3, sp, #62	; 0x3e
  80:	2118      	movs	r1, #24
  82:	f7ff fffe 	bl	0 <lcdGetRGB>
  86:	f89d 103f 	ldrb.w	r1, [sp, #63]	; 0x3f
  8a:	a802      	add	r0, sp, #8
  8c:	f7ff fffe 	bl	0 <filePutChar>
  90:	f89d 103e 	ldrb.w	r1, [sp, #62]	; 0x3e
  94:	a802      	add	r0, sp, #8
  96:	f7ff fffe 	bl	0 <filePutChar>
  9a:	a802      	add	r0, sp, #8
  9c:	f89d 103d 	ldrb.w	r1, [sp, #61]	; 0x3d
  a0:	f7ff fffe 	bl	0 <filePutChar>
  a4:	3501      	adds	r5, #1
  a6:	b2ad      	uxth	r5, r5
  a8:	42b5      	cmp	r5, r6
  aa:	d3db      	bcc.n	64 <guiSaveScreen+0x64>
  ac:	2500      	movs	r5, #0
  ae:	e005      	b.n	bc <guiSaveScreen+0xbc>
  b0:	a802      	add	r0, sp, #8
  b2:	2100      	movs	r1, #0
  b4:	f7ff fffe 	bl	0 <filePutChar>
  b8:	3501      	adds	r5, #1
  ba:	b2ad      	uxth	r5, r5
  bc:	4545      	cmp	r5, r8
  be:	d3f7      	bcc.n	b0 <guiSaveScreen+0xb0>
  c0:	3401      	adds	r4, #1
  c2:	b2a4      	uxth	r4, r4
  c4:	42bc      	cmp	r4, r7
  c6:	d201      	bcs.n	cc <guiSaveScreen+0xcc>
  c8:	2500      	movs	r5, #0
  ca:	e7ed      	b.n	a8 <guiSaveScreen+0xa8>
  cc:	a802      	add	r0, sp, #8
  ce:	f7ff fffe 	bl	0 <fileClose>
  d2:	2001      	movs	r0, #1
  d4:	b010      	add	sp, #64	; 0x40
  d6:	e8bd 81f0 	ldmia.w	sp!, {r4, r5, r6, r7, r8, pc}
  da:	bf00      	nop
  dc:	0000004b 	.word	0x0000004b
  e0:	0000004f 	.word	0x0000004f
  e4:	00000054 	.word	0x00000054
  e8:	00000079 	.word	0x00000079
  ec:	00000084 	.word	0x00000084

Disassembly of section .text.drawBitmap:

00000000 <drawBitmap>:
drawBitmap():
   0:	e92d 4ff0 	stmdb	sp!, {r4, r5, r6, r7, r8, r9, sl, fp, lr}
   4:	b085      	sub	sp, #20
   6:	9003      	str	r0, [sp, #12]
   8:	4610      	mov	r0, r2
   a:	468a      	mov	sl, r1
   c:	4614      	mov	r4, r2
   e:	f7ff fffe 	bl	0 <fileGetChar>
  12:	2842      	cmp	r0, #66	; 0x42
  14:	d16f      	bne.n	f6 <drawBitmap+0xf6>
  16:	4620      	mov	r0, r4
  18:	f7ff fffe 	bl	0 <fileGetChar>
  1c:	284d      	cmp	r0, #77	; 0x4d
  1e:	d16a      	bne.n	f6 <drawBitmap+0xf6>
  20:	2208      	movs	r2, #8
  22:	2102      	movs	r1, #2
  24:	4620      	mov	r0, r4
  26:	f7ff fffe 	bl	0 <fileSetPosition>
  2a:	2100      	movs	r1, #0
  2c:	4620      	mov	r0, r4
  2e:	f7ff fffe 	bl	0 <fileGetLong>
  32:	2204      	movs	r2, #4
  34:	4605      	mov	r5, r0
  36:	2102      	movs	r1, #2
  38:	4620      	mov	r0, r4
  3a:	f7ff fffe 	bl	0 <fileSetPosition>
  3e:	2100      	movs	r1, #0
  40:	4620      	mov	r0, r4
  42:	f7ff fffe 	bl	0 <fileGetLong>
  46:	2100      	movs	r1, #0
  48:	4607      	mov	r7, r0
  4a:	4620      	mov	r0, r4
  4c:	f7ff fffe 	bl	0 <fileGetLong>
  50:	2102      	movs	r1, #2
  52:	460a      	mov	r2, r1
  54:	4680      	mov	r8, r0
  56:	4620      	mov	r0, r4
  58:	f7ff fffe 	bl	0 <fileSetPosition>
  5c:	2100      	movs	r1, #0
  5e:	4620      	mov	r0, r4
  60:	f7ff fffe 	bl	0 <fileGetWord>
  64:	4620      	mov	r0, r4
  66:	f7ff fffe 	bl	0 <fileGetChar>
  6a:	462a      	mov	r2, r5
  6c:	4620      	mov	r0, r4
  6e:	2101      	movs	r1, #1
  70:	f7ff fffe 	bl	0 <fileSetPosition>
  74:	f007 0303 	and.w	r3, r7, #3
  78:	9302      	str	r3, [sp, #8]
  7a:	2500      	movs	r5, #0
  7c:	e027      	b.n	ce <drawBitmap+0xce>
  7e:	4620      	mov	r0, r4
  80:	f7ff fffe 	bl	0 <fileGetChar>
  84:	4603      	mov	r3, r0
  86:	4620      	mov	r0, r4
  88:	9301      	str	r3, [sp, #4]
  8a:	f7ff fffe 	bl	0 <fileGetChar>
  8e:	4683      	mov	fp, r0
  90:	4620      	mov	r0, r4
  92:	f7ff fffe 	bl	0 <fileGetChar>
  96:	9b01      	ldr	r3, [sp, #4]
  98:	4602      	mov	r2, r0
  9a:	4659      	mov	r1, fp
  9c:	4618      	mov	r0, r3
  9e:	f7ff fffe 	bl	0 <lcdSetColor>
  a2:	9b03      	ldr	r3, [sp, #12]
  a4:	4649      	mov	r1, r9
  a6:	18f0      	adds	r0, r6, r3
  a8:	b280      	uxth	r0, r0
  aa:	f7ff fffe 	bl	0 <lcdDrawPixel>
  ae:	3601      	adds	r6, #1
  b0:	b2b6      	uxth	r6, r6
  b2:	42be      	cmp	r6, r7
  b4:	d3e3      	bcc.n	7e <drawBitmap+0x7e>
  b6:	2600      	movs	r6, #0
  b8:	e004      	b.n	c4 <drawBitmap+0xc4>
  ba:	4620      	mov	r0, r4
  bc:	f7ff fffe 	bl	0 <fileGetChar>
  c0:	3601      	adds	r6, #1
  c2:	b2b6      	uxth	r6, r6
  c4:	9b02      	ldr	r3, [sp, #8]
  c6:	429e      	cmp	r6, r3
  c8:	d3f7      	bcc.n	ba <drawBitmap+0xba>
  ca:	3501      	adds	r5, #1
  cc:	b2ad      	uxth	r5, r5
  ce:	4545      	cmp	r5, r8
  d0:	d209      	bcs.n	e6 <drawBitmap+0xe6>
  d2:	f108 39ff 	add.w	r9, r8, #4294967295
  d6:	ebc5 0909 	rsb	r9, r5, r9
  da:	fb07 a909 	mla	r9, r7, r9, sl
  de:	2600      	movs	r6, #0
  e0:	fa1f f989 	uxth.w	r9, r9
  e4:	e7e5      	b.n	b2 <drawBitmap+0xb2>
  e6:	4620      	mov	r0, r4
  e8:	2101      	movs	r1, #1
  ea:	2200      	movs	r2, #0
  ec:	b005      	add	sp, #20
  ee:	e8bd 4ff0 	ldmia.w	sp!, {r4, r5, r6, r7, r8, r9, sl, fp, lr}
  f2:	f7ff bffe 	b.w	0 <fileSetPosition>
  f6:	b005      	add	sp, #20
  f8:	e8bd 8ff0 	ldmia.w	sp!, {r4, r5, r6, r7, r8, r9, sl, fp, pc}

Disassembly of section .text.guiGetHeader:

00000000 <guiGetHeader>:
guiGetHeader():
   0:	b538      	push	{r3, r4, r5, lr}
   2:	2101      	movs	r1, #1
   4:	4604      	mov	r4, r0
   6:	2200      	movs	r2, #0
   8:	f7ff fffe 	bl	0 <fileSetPosition>
   c:	4620      	mov	r0, r4
   e:	f7ff fffe 	bl	0 <fileGetChar>
  12:	0200      	lsls	r0, r0, #8
  14:	b285      	uxth	r5, r0
  16:	4620      	mov	r0, r4
  18:	f7ff fffe 	bl	0 <fileGetChar>
  1c:	ea45 0000 	orr.w	r0, r5, r0
  20:	b280      	uxth	r0, r0
  22:	bd38      	pop	{r3, r4, r5, pc}

Disassembly of section .text.guiGetEntries:

00000000 <guiGetEntries>:
guiGetEntries():
   0:	b538      	push	{r3, r4, r5, lr}
   2:	4604      	mov	r4, r0
   4:	f7ff fffe 	bl	0 <guiGetEntries>
   8:	f410 4070 	ands.w	r0, r0, #61440	; 0xf000
   c:	d00a      	beq.n	24 <guiGetEntries+0x24>
   e:	4620      	mov	r0, r4
  10:	f7ff fffe 	bl	0 <fileGetChar>
  14:	0200      	lsls	r0, r0, #8
  16:	b285      	uxth	r5, r0
  18:	4620      	mov	r0, r4
  1a:	f7ff fffe 	bl	0 <fileGetChar>
  1e:	ea45 0000 	orr.w	r0, r5, r0
  22:	b280      	uxth	r0, r0
  24:	bd38      	pop	{r3, r4, r5, pc}

Disassembly of section .text.guiGetImage:

00000000 <guiGetImage>:
guiGetImage():
   0:	b570      	push	{r4, r5, r6, lr}
   2:	4604      	mov	r4, r0
   4:	460d      	mov	r5, r1
   6:	f7ff fffe 	bl	0 <guiGetImage>
   a:	4606      	mov	r6, r0
   c:	4620      	mov	r0, r4
   e:	f7ff fffe 	bl	0 <guiGetImage>
  12:	f416 4370 	ands.w	r3, r6, #61440	; 0xf000
  16:	d01d      	beq.n	54 <guiGetImage+0x54>
  18:	2800      	cmp	r0, #0
  1a:	d01e      	beq.n	5a <guiGetImage+0x5a>
  1c:	4285      	cmp	r5, r0
  1e:	d81b      	bhi.n	58 <guiGetImage+0x58>
  20:	f416 6f80 	tst.w	r6, #1024	; 0x400
  24:	d00b      	beq.n	3e <guiGetImage+0x3e>
  26:	2102      	movs	r1, #2
  28:	fa15 f201 	lsls.w	r2, r5, r1
  2c:	4620      	mov	r0, r4
  2e:	f7ff fffe 	bl	0 <fileSetPosition>
  32:	4620      	mov	r0, r4
  34:	2101      	movs	r1, #1
  36:	e8bd 4070 	ldmia.w	sp!, {r4, r5, r6, lr}
  3a:	f7ff bffe 	b.w	0 <fileGetLong>
  3e:	2101      	movs	r1, #1
  40:	1caa      	adds	r2, r5, #2
  42:	408a      	lsls	r2, r1
  44:	4620      	mov	r0, r4
  46:	f7ff fffe 	bl	0 <fileSetPosition>
  4a:	4620      	mov	r0, r4
  4c:	2101      	movs	r1, #1
  4e:	f7ff fffe 	bl	0 <fileGetWord>
  52:	bd70      	pop	{r4, r5, r6, pc}
  54:	4618      	mov	r0, r3
  56:	bd70      	pop	{r4, r5, r6, pc}
  58:	2000      	movs	r0, #0
  5a:	bd70      	pop	{r4, r5, r6, pc}

Disassembly of section .text.fontLoad:

00000000 <fontLoad>:
fontLoad():
   0:	b570      	push	{r4, r5, r6, lr}
   2:	4e1b      	ldr	r6, [pc, #108]	; (70 <fontLoad+0x70>)
   4:	4604      	mov	r4, r0
   6:	4630      	mov	r0, r6
   8:	f840 1b20 	str.w	r1, [r0], #32
   c:	460d      	mov	r5, r1
   e:	608c      	str	r4, [r1, #8]
  10:	f7ff fffe 	bl	0 <fontLoad>
  14:	f106 001c 	add.w	r0, r6, #28
  18:	1d29      	adds	r1, r5, #4
  1a:	f7ff fffe 	bl	0 <fontLoad>
  1e:	4620      	mov	r0, r4
  20:	2100      	movs	r1, #0
  22:	f7ff fffe 	bl	0 <fontLoad>
  26:	4602      	mov	r2, r0
  28:	b308      	cbz	r0, 6e <fontLoad+0x6e>
  2a:	2101      	movs	r1, #1
  2c:	4620      	mov	r0, r4
  2e:	f7ff fffe 	bl	0 <fileSetPosition>
  32:	2101      	movs	r1, #1
  34:	4620      	mov	r0, r4
  36:	f7ff fffe 	bl	0 <fileGetWord>
  3a:	f410 7f80 	tst.w	r0, #256	; 0x100
  3e:	d009      	beq.n	54 <fontLoad+0x54>
  40:	2102      	movs	r1, #2
  42:	4620      	mov	r0, r4
  44:	2203      	movs	r2, #3
  46:	f7ff fffe 	bl	0 <fileSetPosition>
  4a:	4620      	mov	r0, r4
  4c:	2101      	movs	r1, #1
  4e:	f7ff fffe 	bl	0 <fileGetWord>
  52:	e009      	b.n	68 <fontLoad+0x68>
  54:	2102      	movs	r1, #2
  56:	2201      	movs	r2, #1
  58:	4620      	mov	r0, r4
  5a:	f7ff fffe 	bl	0 <fileSetPosition>
  5e:	4620      	mov	r0, r4
  60:	89ee      	ldrh	r6, [r5, #14]
  62:	f7ff fffe 	bl	0 <fileGetChar>
  66:	4330      	orrs	r0, r6
  68:	81e8      	strh	r0, [r5, #14]
  6a:	2001      	movs	r0, #1
  6c:	bd70      	pop	{r4, r5, r6, pc}
  6e:	bd70      	pop	{r4, r5, r6, pc}
  70:	00000000 	.word	0x00000000

Disassembly of section .text.drawVector:

00000000 <drawVector>:
drawVector():
   0:	b538      	push	{r3, r4, r5, lr}
   2:	f8bd 1010 	ldrh.w	r1, [sp, #16]
   6:	4604      	mov	r4, r0
   8:	f7ff fffe 	bl	0 <drawVector>
   c:	2101      	movs	r1, #1
   e:	4602      	mov	r2, r0
  10:	4620      	mov	r0, r4
  12:	f7ff fffe 	bl	0 <fileSetPosition>
  16:	4620      	mov	r0, r4
  18:	2101      	movs	r1, #1
  1a:	f7ff fffe 	bl	0 <fileGetWord>
  1e:	f000 050f 	and.w	r5, r0, #15
  22:	4628      	mov	r0, r5
  24:	f7ff fffe 	bl	0 <lcdSetBPP>
  28:	e017      	b.n	5a <drawVector+0x5a>
  2a:	4620      	mov	r0, r4
  2c:	f7ff fffe 	bl	0 <fileGetChar>
  30:	f000 00e0 	and.w	r0, r0, #224	; 0xe0
  34:	2820      	cmp	r0, #32
  36:	d108      	bne.n	4a <drawVector+0x4a>
  38:	b11d      	cbz	r5, 42 <drawVector+0x42>
  3a:	2d01      	cmp	r5, #1
  3c:	d001      	beq.n	42 <drawVector+0x42>
  3e:	2d02      	cmp	r5, #2
  40:	d10b      	bne.n	5a <drawVector+0x5a>
  42:	4620      	mov	r0, r4
  44:	f7ff fffe 	bl	0 <fileGetChar>
  48:	e007      	b.n	5a <drawVector+0x5a>
  4a:	2840      	cmp	r0, #64	; 0x40
  4c:	d005      	beq.n	5a <drawVector+0x5a>
  4e:	2860      	cmp	r0, #96	; 0x60
  50:	d003      	beq.n	5a <drawVector+0x5a>
  52:	2880      	cmp	r0, #128	; 0x80
  54:	d001      	beq.n	5a <drawVector+0x5a>
  56:	28c0      	cmp	r0, #192	; 0xc0
  58:	d104      	bne.n	64 <drawVector+0x64>
  5a:	4620      	mov	r0, r4
  5c:	f7ff fffe 	bl	0 <fileEOF>
  60:	2800      	cmp	r0, #0
  62:	d0e2      	beq.n	2a <drawVector+0x2a>
  64:	bd38      	pop	{r3, r4, r5, pc}

Disassembly of section .text.drawImage:

00000000 <drawImage>:
drawImage():
   0:	e92d 4ff0 	stmdb	sp!, {r4, r5, r6, r7, r8, r9, sl, fp, lr}
   4:	b08f      	sub	sp, #60	; 0x3c
   6:	900a      	str	r0, [sp, #40]	; 0x28
   8:	910b      	str	r1, [sp, #44]	; 0x2c
   a:	4610      	mov	r0, r2
   c:	2101      	movs	r1, #1
   e:	4614      	mov	r4, r2
  10:	461e      	mov	r6, r3
  12:	f7ff fffe 	bl	0 <fileGetWord>
  16:	2200      	movs	r2, #0
  18:	2101      	movs	r1, #1
  1a:	9009      	str	r0, [sp, #36]	; 0x24
  1c:	4620      	mov	r0, r4
  1e:	f7ff fffe 	bl	0 <fileSetPosition>
  22:	4631      	mov	r1, r6
  24:	4620      	mov	r0, r4
  26:	f7ff fffe 	bl	0 <drawImage>
  2a:	2101      	movs	r1, #1
  2c:	4602      	mov	r2, r0
  2e:	4620      	mov	r0, r4
  30:	f7ff fffe 	bl	0 <fileSetPosition>
  34:	2101      	movs	r1, #1
  36:	4620      	mov	r0, r4
  38:	f7ff fffe 	bl	0 <fileGetWord>
  3c:	f410 7f80 	tst.w	r0, #256	; 0x100
  40:	9008      	str	r0, [sp, #32]
  42:	d009      	beq.n	58 <drawImage+0x58>
  44:	2101      	movs	r1, #1
  46:	4620      	mov	r0, r4
  48:	f7ff fffe 	bl	0 <fileGetWord>
  4c:	2101      	movs	r1, #1
  4e:	9006      	str	r0, [sp, #24]
  50:	4620      	mov	r0, r4
  52:	f7ff fffe 	bl	0 <fileGetWord>
  56:	e006      	b.n	66 <drawImage+0x66>
  58:	4620      	mov	r0, r4
  5a:	f7ff fffe 	bl	0 <fileGetChar>
  5e:	9006      	str	r0, [sp, #24]
  60:	4620      	mov	r0, r4
  62:	f7ff fffe 	bl	0 <fileGetChar>
  66:	9a06      	ldr	r2, [sp, #24]
  68:	9b08      	ldr	r3, [sp, #32]
  6a:	4350      	muls	r0, r2
  6c:	f003 070f 	and.w	r7, r3, #15
  70:	900c      	str	r0, [sp, #48]	; 0x30
  72:	f7ff fffe 	bl	0 <lcdGetBPP>
  76:	900d      	str	r0, [sp, #52]	; 0x34
  78:	4638      	mov	r0, r7
  7a:	f7ff fffe 	bl	0 <lcdSetBPP>
  7e:	4b80      	ldr	r3, [pc, #512]	; (280 <drawImage+0x280>)
  80:	2200      	movs	r2, #0
  82:	f893 6020 	ldrb.w	r6, [r3, #32]
  86:	f893 9021 	ldrb.w	r9, [r3, #33]	; 0x21
  8a:	f893 a022 	ldrb.w	sl, [r3, #34]	; 0x22
  8e:	9202      	str	r2, [sp, #8]
  90:	9201      	str	r2, [sp, #4]
  92:	9207      	str	r2, [sp, #28]
  94:	e0e3      	b.n	25e <drawImage+0x25e>
  96:	4620      	mov	r0, r4
  98:	f7ff fffe 	bl	0 <fileGetChar>
  9c:	f000 033f 	and.w	r3, r0, #63	; 0x3f
  a0:	3301      	adds	r3, #1
  a2:	4680      	mov	r8, r0
  a4:	9305      	str	r3, [sp, #20]
  a6:	b937      	cbnz	r7, b6 <drawImage+0xb6>
  a8:	9a05      	ldr	r2, [sp, #20]
  aa:	b243      	sxtb	r3, r0
  ac:	ea12 0223 	ands.w	r2, r2, r3, asr #32
  b0:	bf38      	it	cc
  b2:	2207      	movcc	r2, #7
  b4:	9205      	str	r2, [sp, #20]
  b6:	9b07      	ldr	r3, [sp, #28]
  b8:	9a05      	ldr	r2, [sp, #20]
  ba:	f04f 0b00 	mov.w	fp, #0
  be:	189b      	adds	r3, r3, r2
  c0:	9307      	str	r3, [sp, #28]
  c2:	f8cd b010 	str.w	fp, [sp, #16]
  c6:	9b04      	ldr	r3, [sp, #16]
  c8:	b113      	cbz	r3, d0 <drawImage+0xd0>
  ca:	f018 0f80 	tst.w	r8, #128	; 0x80
  ce:	d17d      	bne.n	1cc <drawImage+0x1cc>
  d0:	b97f      	cbnz	r7, f2 <drawImage+0xf2>
  d2:	f018 0f80 	tst.w	r8, #128	; 0x80
  d6:	d179      	bne.n	1cc <drawImage+0x1cc>
  d8:	9a04      	ldr	r2, [sp, #16]
  da:	2340      	movs	r3, #64	; 0x40
  dc:	4113      	asrs	r3, r2
  de:	ea13 0f08 	tst.w	r3, r8
  e2:	bf1a      	itte	ne
  e4:	f048 0840 	orrne.w	r8, r8, #64	; 0x40
  e8:	fa5f f888 	uxtbne.w	r8, r8
  ec:	f008 08bf 	andeq.w	r8, r8, #191	; 0xbf
  f0:	e06c      	b.n	1cc <drawImage+0x1cc>
  f2:	2f01      	cmp	r7, #1
  f4:	d113      	bne.n	11e <drawImage+0x11e>
  f6:	f1bb 0f00 	cmp.w	fp, #0
  fa:	d109      	bne.n	110 <drawImage+0x110>
  fc:	4620      	mov	r0, r4
  fe:	f7ff fffe 	bl	0 <fileGetChar>
 102:	0906      	lsrs	r6, r0, #4
 104:	b2f6      	uxtb	r6, r6
 106:	4605      	mov	r5, r0
 108:	46b2      	mov	sl, r6
 10a:	46b1      	mov	r9, r6
 10c:	46bb      	mov	fp, r7
 10e:	e05d      	b.n	1cc <drawImage+0x1cc>
 110:	f005 060f 	and.w	r6, r5, #15
 114:	46b2      	mov	sl, r6
 116:	46b1      	mov	r9, r6
 118:	f04f 0b00 	mov.w	fp, #0
 11c:	e056      	b.n	1cc <drawImage+0x1cc>
 11e:	2f03      	cmp	r7, #3
 120:	d121      	bne.n	166 <drawImage+0x166>
 122:	f1bb 0f00 	cmp.w	fp, #0
 126:	d10f      	bne.n	148 <drawImage+0x148>
 128:	4620      	mov	r0, r4
 12a:	f7ff fffe 	bl	0 <fileGetChar>
 12e:	4605      	mov	r5, r0
 130:	4620      	mov	r0, r4
 132:	f7ff fffe 	bl	0 <fileGetChar>
 136:	ea4f 1910 	mov.w	r9, r0, lsr #4
 13a:	9003      	str	r0, [sp, #12]
 13c:	fa5f f989 	uxtb.w	r9, r9
 140:	f000 0a0f 	and.w	sl, r0, #15
 144:	462e      	mov	r6, r5
 146:	e041      	b.n	1cc <drawImage+0x1cc>
 148:	4620      	mov	r0, r4
 14a:	f7ff fffe 	bl	0 <fileGetChar>
 14e:	9b03      	ldr	r3, [sp, #12]
 150:	ea4f 1910 	mov.w	r9, r0, lsr #4
 154:	f003 060f 	and.w	r6, r3, #15
 158:	fa5f f989 	uxtb.w	r9, r9
 15c:	f000 0a0f 	and.w	sl, r0, #15
 160:	f04f 0b01 	mov.w	fp, #1
 164:	e032      	b.n	1cc <drawImage+0x1cc>
 166:	2f02      	cmp	r7, #2
 168:	d10c      	bne.n	184 <drawImage+0x184>
 16a:	4620      	mov	r0, r4
 16c:	f7ff fffe 	bl	0 <fileGetChar>
 170:	0946      	lsrs	r6, r0, #5
 172:	f000 0918 	and.w	r9, r0, #24
 176:	4605      	mov	r5, r0
 178:	b2f6      	uxtb	r6, r6
 17a:	ea4f 09d9 	mov.w	r9, r9, lsr #3
 17e:	f000 0a07 	and.w	sl, r0, #7
 182:	e023      	b.n	1cc <drawImage+0x1cc>
 184:	2f04      	cmp	r7, #4
 186:	d113      	bne.n	1b0 <drawImage+0x1b0>
 188:	4620      	mov	r0, r4
 18a:	f7ff fffe 	bl	0 <fileGetChar>
 18e:	4605      	mov	r5, r0
 190:	4620      	mov	r0, r4
 192:	f7ff fffe 	bl	0 <fileGetChar>
 196:	f005 0907 	and.w	r9, r5, #7
 19a:	0943      	lsrs	r3, r0, #5
 19c:	08ee      	lsrs	r6, r5, #3
 19e:	ea43 09c9 	orr.w	r9, r3, r9, lsl #3
 1a2:	9003      	str	r0, [sp, #12]
 1a4:	b2f6      	uxtb	r6, r6
 1a6:	fa5f f989 	uxtb.w	r9, r9
 1aa:	f000 0a1f 	and.w	sl, r0, #31
 1ae:	e00d      	b.n	1cc <drawImage+0x1cc>
 1b0:	2f05      	cmp	r7, #5
 1b2:	d10b      	bne.n	1cc <drawImage+0x1cc>
 1b4:	4620      	mov	r0, r4
 1b6:	f7ff fffe 	bl	0 <fileGetChar>
 1ba:	4606      	mov	r6, r0
 1bc:	4620      	mov	r0, r4
 1be:	f7ff fffe 	bl	0 <fileGetChar>
 1c2:	4681      	mov	r9, r0
 1c4:	4620      	mov	r0, r4
 1c6:	f7ff fffe 	bl	0 <fileGetChar>
 1ca:	4682      	mov	sl, r0
 1cc:	f018 0f40 	tst.w	r8, #64	; 0x40
 1d0:	d017      	beq.n	202 <drawImage+0x202>
 1d2:	9a09      	ldr	r2, [sp, #36]	; 0x24
 1d4:	f412 4f70 	tst.w	r2, #61440	; 0xf000
 1d8:	d003      	beq.n	1e2 <drawImage+0x1e2>
 1da:	b91f      	cbnz	r7, 1e4 <drawImage+0x1e4>
 1dc:	4b28      	ldr	r3, [pc, #160]	; (280 <drawImage+0x280>)
 1de:	6818      	ldr	r0, [r3, #0]
 1e0:	e007      	b.n	1f2 <drawImage+0x1f2>
 1e2:	b12f      	cbz	r7, 1f0 <drawImage+0x1f0>
 1e4:	4630      	mov	r0, r6
 1e6:	4649      	mov	r1, r9
 1e8:	4652      	mov	r2, sl
 1ea:	f7ff fffe 	bl	0 <lcdSetColor>
 1ee:	e002      	b.n	1f6 <drawImage+0x1f6>
 1f0:	4824      	ldr	r0, [pc, #144]	; (284 <drawImage+0x284>)
 1f2:	f7ff fffe 	bl	0 <drawImage>
 1f6:	9a01      	ldr	r2, [sp, #4]
 1f8:	9b0a      	ldr	r3, [sp, #40]	; 0x28
 1fa:	18d0      	adds	r0, r2, r3
 1fc:	9a02      	ldr	r2, [sp, #8]
 1fe:	9b0b      	ldr	r3, [sp, #44]	; 0x2c
 200:	e014      	b.n	22c <drawImage+0x22c>
 202:	9a08      	ldr	r2, [sp, #32]
 204:	f012 0f40 	tst.w	r2, #64	; 0x40
 208:	d115      	bne.n	236 <drawImage+0x236>
 20a:	9b09      	ldr	r3, [sp, #36]	; 0x24
 20c:	f413 4f70 	tst.w	r3, #61440	; 0xf000
 210:	d004      	beq.n	21c <drawImage+0x21c>
 212:	b91f      	cbnz	r7, 21c <drawImage+0x21c>
 214:	4a1a      	ldr	r2, [pc, #104]	; (280 <drawImage+0x280>)
 216:	6810      	ldr	r0, [r2, #0]
 218:	3004      	adds	r0, #4
 21a:	e000      	b.n	21e <drawImage+0x21e>
 21c:	481a      	ldr	r0, [pc, #104]	; (288 <drawImage+0x288>)
 21e:	f7ff fffe 	bl	0 <drawImage>
 222:	9b01      	ldr	r3, [sp, #4]
 224:	9a0a      	ldr	r2, [sp, #40]	; 0x28
 226:	1898      	adds	r0, r3, r2
 228:	9b02      	ldr	r3, [sp, #8]
 22a:	9a0b      	ldr	r2, [sp, #44]	; 0x2c
 22c:	1899      	adds	r1, r3, r2
 22e:	b280      	uxth	r0, r0
 230:	b289      	uxth	r1, r1
 232:	f7ff fffe 	bl	0 <lcdDrawPixel>
 236:	9a01      	ldr	r2, [sp, #4]
 238:	1c53      	adds	r3, r2, #1
 23a:	9a06      	ldr	r2, [sp, #24]
 23c:	b29b      	uxth	r3, r3
 23e:	4293      	cmp	r3, r2
 240:	9301      	str	r3, [sp, #4]
 242:	d105      	bne.n	250 <drawImage+0x250>
 244:	9a02      	ldr	r2, [sp, #8]
 246:	1c53      	adds	r3, r2, #1
 248:	b29b      	uxth	r3, r3
 24a:	9302      	str	r3, [sp, #8]
 24c:	2300      	movs	r3, #0
 24e:	9301      	str	r3, [sp, #4]
 250:	9a04      	ldr	r2, [sp, #16]
 252:	9b05      	ldr	r3, [sp, #20]
 254:	3201      	adds	r2, #1
 256:	429a      	cmp	r2, r3
 258:	9204      	str	r2, [sp, #16]
 25a:	f4ff af34 	bcc.w	c6 <drawImage+0xc6>
 25e:	9a07      	ldr	r2, [sp, #28]
 260:	9b0c      	ldr	r3, [sp, #48]	; 0x30
 262:	429a      	cmp	r2, r3
 264:	f4ff af17 	bcc.w	96 <drawImage+0x96>
 268:	2101      	movs	r1, #1
 26a:	2200      	movs	r2, #0
 26c:	4620      	mov	r0, r4
 26e:	f7ff fffe 	bl	0 <fileSetPosition>
 272:	980d      	ldr	r0, [sp, #52]	; 0x34
 274:	f7ff fffe 	bl	0 <lcdSetBPP>
 278:	9806      	ldr	r0, [sp, #24]
 27a:	b00f      	add	sp, #60	; 0x3c
 27c:	e8bd 8ff0 	ldmia.w	sp!, {r4, r5, r6, r7, r8, r9, sl, fp, pc}
 280:	00000000 	.word	0x00000000
 284:	00000020 	.word	0x00000020
 288:	0000001c 	.word	0x0000001c

Disassembly of section .text.drawSprite:

00000000 <drawSprite>:
drawSprite():
   0:	b5f8      	push	{r3, r4, r5, r6, r7, lr}
   2:	f100 061c 	add.w	r6, r0, #28
   6:	4604      	mov	r4, r0
   8:	4630      	mov	r0, r6
   a:	f7ff fffe 	bl	0 <drawSprite>
   e:	8b23      	ldrh	r3, [r4, #24]
  10:	3301      	adds	r3, #1
  12:	b29b      	uxth	r3, r3
  14:	4283      	cmp	r3, r0
  16:	8323      	strh	r3, [r4, #24]
  18:	d101      	bne.n	1e <drawSprite+0x1e>
  1a:	2300      	movs	r3, #0
  1c:	8323      	strh	r3, [r4, #24]
  1e:	2500      	movs	r5, #0
  20:	e00d      	b.n	3e <drawSprite+0x3e>
  22:	6923      	ldr	r3, [r4, #16]
  24:	1c6a      	adds	r2, r5, #1
  26:	b292      	uxth	r2, r2
  28:	f833 0015 	ldrh.w	r0, [r3, r5, lsl #1]
  2c:	f833 1012 	ldrh.w	r1, [r3, r2, lsl #1]
  30:	4632      	mov	r2, r6
  32:	8b23      	ldrh	r3, [r4, #24]
  34:	f7ff fffe 	bl	0 <drawSprite>
  38:	3502      	adds	r5, #2
  3a:	b2ad      	uxth	r5, r5
  3c:	4607      	mov	r7, r0
  3e:	8aa3      	ldrh	r3, [r4, #20]
  40:	42ab      	cmp	r3, r5
  42:	d8ee      	bhi.n	22 <drawSprite+0x22>
  44:	4638      	mov	r0, r7
  46:	bdf8      	pop	{r3, r4, r5, r6, r7, pc}

Disassembly of section .text.guiSpriteProcess:

00000000 <guiSpriteProcess>:
guiSpriteProcess():
   0:	b570      	push	{r4, r5, r6, lr}
   2:	f7ff fffe 	bl	0 <timeGet>
   6:	4c12      	ldr	r4, [pc, #72]	; (50 <guiSpriteProcess+0x50>)
   8:	4606      	mov	r6, r0
   a:	2500      	movs	r5, #0
   c:	8820      	ldrh	r0, [r4, #0]
   e:	b1d0      	cbz	r0, 46 <guiSpriteProcess+0x46>
  10:	f854 3c0a 	ldr.w	r3, [r4, #-10]
  14:	b123      	cbz	r3, 20 <guiSpriteProcess+0x20>
  16:	42b3      	cmp	r3, r6
  18:	d102      	bne.n	20 <guiSpriteProcess+0x20>
  1a:	f7ff fffe 	bl	0 <guiSpriteProcess>
  1e:	e012      	b.n	46 <guiSpriteProcess+0x46>
  20:	f854 3c16 	ldr.w	r3, [r4, #-22]
  24:	b17b      	cbz	r3, 46 <guiSpriteProcess+0x46>
  26:	2b01      	cmp	r3, #1
  28:	d10a      	bne.n	40 <guiSpriteProcess+0x40>
  2a:	f854 3c12 	ldr.w	r3, [r4, #-18]
  2e:	2044      	movs	r0, #68	; 0x44
  30:	f844 3c16 	str.w	r3, [r4, #-22]
  34:	4b07      	ldr	r3, [pc, #28]	; (54 <guiSpriteProcess+0x54>)
  36:	fb00 3005 	mla	r0, r0, r5, r3
  3a:	f7ff fffe 	bl	0 <guiSpriteProcess>
  3e:	e002      	b.n	46 <guiSpriteProcess+0x46>
  40:	3b01      	subs	r3, #1
  42:	f844 3c16 	str.w	r3, [r4, #-22]
  46:	3501      	adds	r5, #1
  48:	3444      	adds	r4, #68	; 0x44
  4a:	2d20      	cmp	r5, #32
  4c:	d1de      	bne.n	c <guiSpriteProcess+0xc>
  4e:	bd70      	pop	{r4, r5, r6, pc}
  50:	00000016 	.word	0x00000016
  54:	00000000 	.word	0x00000000

Disassembly of section .text.drawString:

00000000 <drawString>:
drawString():
   0:	4605b570 	.word	0x4605b570
   4:	e00c      	b.n	20 <drawString+0x20>
   6:	4c09      	ldr	r4, [pc, #36]	; (2c <drawString+0x2c>)
   8:	3b20      	subs	r3, #32
   a:	8da6      	ldrh	r6, [r4, #44]	; 0x2c
   c:	6822      	ldr	r2, [r4, #0]
   e:	4630      	mov	r0, r6
  10:	8de1      	ldrh	r1, [r4, #46]	; 0x2e
  12:	6892      	ldr	r2, [r2, #8]
  14:	b29b      	uxth	r3, r3
  16:	f7ff fffe 	bl	0 <drawString>
  1a:	3601      	adds	r6, #1
  1c:	1986      	adds	r6, r0, r6
  1e:	85a6      	strh	r6, [r4, #44]	; 0x2c
  20:	f815 3b01 	ldrb.w	r3, [r5], #1
  24:	2b00      	cmp	r3, #0
  26:	d1ee      	bne.n	6 <drawString+0x6>
  28:	bd70      	pop	{r4, r5, r6, pc}
  2a:	bf00      	nop
  2c:	00000000 	.word	0x00000000

Disassembly of section .text.putsLCD:

00000000 <putsLCD>:
putsLCD():
   0:	b508      	push	{r3, lr}
   2:	f7ff fffe 	bl	0 <putsLCD>
   6:	2001      	movs	r0, #1
   8:	bd08      	pop	{r3, pc}

Disassembly of section .text.drawChar:

00000000 <drawChar>:
drawChar():
   0:	b538      	push	{r3, r4, r5, lr}
   2:	4c07      	ldr	r4, [pc, #28]	; (20 <drawChar+0x20>)
   4:	f1a0 0320 	sub.w	r3, r0, #32
   8:	8da5      	ldrh	r5, [r4, #44]	; 0x2c
   a:	6822      	ldr	r2, [r4, #0]
   c:	4628      	mov	r0, r5
   e:	8de1      	ldrh	r1, [r4, #46]	; 0x2e
  10:	6892      	ldr	r2, [r2, #8]
  12:	b29b      	uxth	r3, r3
  14:	f7ff fffe 	bl	0 <drawChar>
  18:	3501      	adds	r5, #1
  1a:	1945      	adds	r5, r0, r5
  1c:	85a5      	strh	r5, [r4, #44]	; 0x2c
  1e:	bd38      	pop	{r3, r4, r5, pc}
  20:	00000000 	.word	0x00000000

Disassembly of section .text.drawPixel:

00000000 <drawPixel>:
drawPixel():
   0:	b570      	push	{r4, r5, r6, lr}
   2:	460c      	mov	r4, r1
   4:	4615      	mov	r5, r2
   6:	f7ff fffe 	bl	0 <drawPixel>
   a:	4620      	mov	r0, r4
   c:	4629      	mov	r1, r5
   e:	e8bd 4070 	ldmia.w	sp!, {r4, r5, r6, lr}
  12:	f7ff bffe 	b.w	0 <lcdDrawPixel>

Disassembly of section .text.drawClearPixel:

00000000 <drawClearPixel>:
drawClearPixel():
   0:	b570      	push	{r4, r5, r6, lr}
   2:	4605      	mov	r5, r0
   4:	460c      	mov	r4, r1
   6:	f7ff fffe 	bl	0 <guiApplyBackColor>
   a:	4628      	mov	r0, r5
   c:	4621      	mov	r1, r4
   e:	e8bd 4070 	ldmia.w	sp!, {r4, r5, r6, lr}
  12:	f7ff bffe 	b.w	0 <lcdDrawPixel>

Disassembly of section .text.drawJPEG:

00000000 <drawJPEG>:
drawJPEG():
   0:	e92d 4ff0 	stmdb	sp!, {r4, r5, r6, r7, r8, r9, sl, fp, lr}
   4:	2100      	movs	r1, #0
   6:	b085      	sub	sp, #20
   8:	4604      	mov	r4, r0
   a:	f7ff fffe 	bl	0 <fileGetWord>
   e:	2100      	movs	r1, #0
  10:	4680      	mov	r8, r0
  12:	4620      	mov	r0, r4
  14:	f7ff fffe 	bl	0 <fileGetWord>
  18:	2100      	movs	r1, #0
  1a:	4607      	mov	r7, r0
  1c:	4620      	mov	r0, r4
  1e:	f7ff fffe 	bl	0 <fileGetWord>
  22:	aa02      	add	r2, sp, #8
  24:	4681      	mov	r9, r0
  26:	2105      	movs	r1, #5
  28:	4620      	mov	r0, r4
  2a:	f7ff fffe 	bl	0 <fileGetBuffer>
  2e:	2100      	movs	r1, #0
  30:	4620      	mov	r0, r4
  32:	f7ff fffe 	bl	0 <fileGetWord>
  36:	2100      	movs	r1, #0
  38:	4606      	mov	r6, r0
  3a:	4620      	mov	r0, r4
  3c:	f7ff fffe 	bl	0 <fileGetWord>
  40:	2100      	movs	r1, #0
  42:	4620      	mov	r0, r4
  44:	f7ff fffe 	bl	0 <fileGetWord>
  48:	2100      	movs	r1, #0
  4a:	4605      	mov	r5, r0
  4c:	4620      	mov	r0, r4
  4e:	f7ff fffe 	bl	0 <fileGetWord>
  52:	2100      	movs	r1, #0
  54:	4682      	mov	sl, r0
  56:	4620      	mov	r0, r4
  58:	f7ff fffe 	bl	0 <fileGetWord>
  5c:	2100      	movs	r1, #0
  5e:	4683      	mov	fp, r0
  60:	4620      	mov	r0, r4
  62:	f7ff fffe 	bl	0 <fileGetWord>
  66:	4642      	mov	r2, r8
  68:	4604      	mov	r4, r0
  6a:	463b      	mov	r3, r7
  6c:	2001      	movs	r0, #1
  6e:	490d      	ldr	r1, [pc, #52]	; (a4 <drawJPEG+0xa4>)
  70:	f8cd 9000 	str.w	r9, [sp]
  74:	f7ff fffe 	bl	0 <print>
  78:	2001      	movs	r0, #1
  7a:	aa02      	add	r2, sp, #8
  7c:	4633      	mov	r3, r6
  7e:	490a      	ldr	r1, [pc, #40]	; (a8 <drawJPEG+0xa8>)
  80:	f7ff fffe 	bl	0 <print>
  84:	2001      	movs	r0, #1
  86:	462a      	mov	r2, r5
  88:	4653      	mov	r3, sl
  8a:	4908      	ldr	r1, [pc, #32]	; (ac <drawJPEG+0xac>)
  8c:	f7ff fffe 	bl	0 <print>
  90:	2001      	movs	r0, #1
  92:	4907      	ldr	r1, [pc, #28]	; (b0 <drawJPEG+0xb0>)
  94:	465a      	mov	r2, fp
  96:	4623      	mov	r3, r4
  98:	f7ff fffe 	bl	0 <print>
  9c:	b005      	add	sp, #20
  9e:	e8bd 8ff0 	ldmia.w	sp!, {r4, r5, r6, r7, r8, r9, sl, fp, pc}
  a2:	bf00      	nop
  a4:	00000090 	.word	0x00000090
  a8:	000000b4 	.word	0x000000b4
  ac:	000000c8 	.word	0x000000c8
  b0:	000000de 	.word	0x000000de

Disassembly of section .text.drawPNG:

00000000 <drawPNG>:
drawPNG():
   0:	e92d 4ff0 	stmdb	sp!, {r4, r5, r6, r7, r8, r9, sl, fp, lr}
   4:	b089      	sub	sp, #36	; 0x24
   6:	2108      	movs	r1, #8
   8:	aa03      	add	r2, sp, #12
   a:	4604      	mov	r4, r0
   c:	f7ff fffe 	bl	0 <fileGetBuffer>
  10:	2300      	movs	r3, #0
  12:	f88d 3013 	strb.w	r3, [sp, #19]
  16:	e07f      	b.n	118 <drawPNG+0x118>
  18:	2101      	movs	r1, #1
  1a:	4620      	mov	r0, r4
  1c:	f7ff fffe 	bl	0 <fileGetLong>
  20:	2104      	movs	r1, #4
  22:	4681      	mov	r9, r0
  24:	aa06      	add	r2, sp, #24
  26:	4620      	mov	r0, r4
  28:	f7ff fffe 	bl	0 <fileGetBuffer>
  2c:	483f      	ldr	r0, [pc, #252]	; (12c <drawPNG+0x12c>)
  2e:	a906      	add	r1, sp, #24
  30:	f88d 501c 	strb.w	r5, [sp, #28]
  34:	f7ff fffe 	bl	0 <isStringSame>
  38:	2800      	cmp	r0, #0
  3a:	d047      	beq.n	cc <drawPNG+0xcc>
  3c:	2101      	movs	r1, #1
  3e:	4620      	mov	r0, r4
  40:	f7ff fffe 	bl	0 <fileGetLong>
  44:	2101      	movs	r1, #1
  46:	4607      	mov	r7, r0
  48:	4620      	mov	r0, r4
  4a:	f7ff fffe 	bl	0 <fileGetLong>
  4e:	4606      	mov	r6, r0
  50:	4620      	mov	r0, r4
  52:	f7ff fffe 	bl	0 <fileGetChar>
  56:	4605      	mov	r5, r0
  58:	4620      	mov	r0, r4
  5a:	f7ff fffe 	bl	0 <fileGetChar>
  5e:	4680      	mov	r8, r0
  60:	4620      	mov	r0, r4
  62:	f7ff fffe 	bl	0 <fileGetChar>
  66:	4682      	mov	sl, r0
  68:	4620      	mov	r0, r4
  6a:	f7ff fffe 	bl	0 <fileGetChar>
  6e:	4683      	mov	fp, r0
  70:	4620      	mov	r0, r4
  72:	f7ff fffe 	bl	0 <fileGetChar>
  76:	aa06      	add	r2, sp, #24
  78:	4684      	mov	ip, r0
  7a:	464b      	mov	r3, r9
  7c:	2001      	movs	r0, #1
  7e:	492c      	ldr	r1, [pc, #176]	; (130 <drawPNG+0x130>)
  80:	f8cd c004 	str.w	ip, [sp, #4]
  84:	f7ff fffe 	bl	0 <print>
  88:	4633      	mov	r3, r6
  8a:	2001      	movs	r0, #1
  8c:	463a      	mov	r2, r7
  8e:	4929      	ldr	r1, [pc, #164]	; (134 <drawPNG+0x134>)
  90:	f7ff fffe 	bl	0 <print>
  94:	2001      	movs	r0, #1
  96:	462a      	mov	r2, r5
  98:	4927      	ldr	r1, [pc, #156]	; (138 <drawPNG+0x138>)
  9a:	f7ff fffe 	bl	0 <print>
  9e:	2001      	movs	r0, #1
  a0:	4642      	mov	r2, r8
  a2:	4926      	ldr	r1, [pc, #152]	; (13c <drawPNG+0x13c>)
  a4:	f7ff fffe 	bl	0 <print>
  a8:	2001      	movs	r0, #1
  aa:	4652      	mov	r2, sl
  ac:	4924      	ldr	r1, [pc, #144]	; (140 <drawPNG+0x140>)
  ae:	f7ff fffe 	bl	0 <print>
  b2:	2001      	movs	r0, #1
  b4:	465a      	mov	r2, fp
  b6:	4923      	ldr	r1, [pc, #140]	; (144 <drawPNG+0x144>)
  b8:	f7ff fffe 	bl	0 <print>
  bc:	f8dd c004 	ldr.w	ip, [sp, #4]
  c0:	2001      	movs	r0, #1
  c2:	4921      	ldr	r1, [pc, #132]	; (148 <drawPNG+0x148>)
  c4:	4662      	mov	r2, ip
  c6:	f7ff fffe 	bl	0 <print>
  ca:	e021      	b.n	110 <drawPNG+0x110>
  cc:	481f      	ldr	r0, [pc, #124]	; (14c <drawPNG+0x14c>)
  ce:	a906      	add	r1, sp, #24
  d0:	f7ff fffe 	bl	0 <isStringSame>
  d4:	b110      	cbz	r0, dc <drawPNG+0xdc>
  d6:	2001      	movs	r0, #1
  d8:	491d      	ldr	r1, [pc, #116]	; (150 <drawPNG+0x150>)
  da:	e006      	b.n	ea <drawPNG+0xea>
  dc:	481d      	ldr	r0, [pc, #116]	; (154 <drawPNG+0x154>)
  de:	a906      	add	r1, sp, #24
  e0:	f7ff fffe 	bl	0 <isStringSame>
  e4:	b128      	cbz	r0, f2 <drawPNG+0xf2>
  e6:	491c      	ldr	r1, [pc, #112]	; (158 <drawPNG+0x158>)
  e8:	2001      	movs	r0, #1
  ea:	464a      	mov	r2, r9
  ec:	f7ff fffe 	bl	0 <print>
  f0:	e009      	b.n	106 <drawPNG+0x106>
  f2:	481a      	ldr	r0, [pc, #104]	; (15c <drawPNG+0x15c>)
  f4:	a906      	add	r1, sp, #24
  f6:	f7ff fffe 	bl	0 <isStringSame>
  fa:	b120      	cbz	r0, 106 <drawPNG+0x106>
  fc:	2001      	movs	r0, #1
  fe:	4918      	ldr	r1, [pc, #96]	; (160 <drawPNG+0x160>)
 100:	f7ff fffe 	bl	0 <print>
 104:	e00f      	b.n	126 <drawPNG+0x126>
 106:	4620      	mov	r0, r4
 108:	2102      	movs	r1, #2
 10a:	464a      	mov	r2, r9
 10c:	f7ff fffe 	bl	0 <fileSetPosition>
 110:	4620      	mov	r0, r4
 112:	2101      	movs	r1, #1
 114:	f7ff fffe 	bl	0 <fileGetLong>
 118:	4620      	mov	r0, r4
 11a:	f7ff fffe 	bl	0 <fileIsEOF>
 11e:	4605      	mov	r5, r0
 120:	2800      	cmp	r0, #0
 122:	f43f af79 	beq.w	18 <drawPNG+0x18>
 126:	b009      	add	sp, #36	; 0x24
 128:	e8bd 8ff0 	ldmia.w	sp!, {r4, r5, r6, r7, r8, r9, sl, fp, pc}
 12c:	000000fe 	.word	0x000000fe
 130:	00000103 	.word	0x00000103
 134:	000000c8 	.word	0x000000c8
 138:	00000117 	.word	0x00000117
 13c:	00000120 	.word	0x00000120
 140:	0000012b 	.word	0x0000012b
 144:	0000013c 	.word	0x0000013c
 148:	00000148 	.word	0x00000148
 14c:	00000157 	.word	0x00000157
 150:	0000015c 	.word	0x0000015c
 154:	00000169 	.word	0x00000169
 158:	0000016e 	.word	0x0000016e
 15c:	00000178 	.word	0x00000178
 160:	0000017d 	.word	0x0000017d

Disassembly of section .text.widgetAdd:

00000000 <widgetAdd>:
widgetAdd():
   0:	4770      	bx	lr

Disassembly of section .text.formNew:

00000000 <formNew>:
formNew():
   0:	e92d 4ff8 	stmdb	sp!, {r3, r4, r5, r6, r7, r8, r9, sl, fp, lr}
   4:	469b      	mov	fp, r3
   6:	4b39      	ldr	r3, [pc, #228]	; (ec <formNew+0xec>)
   8:	4616      	mov	r6, r2
   a:	791a      	ldrb	r2, [r3, #4]
   c:	4605      	mov	r5, r0
   e:	460c      	mov	r4, r1
  10:	4698      	mov	r8, r3
  12:	b13a      	cbz	r2, 24 <formNew+0x24>
  14:	795b      	ldrb	r3, [r3, #5]
  16:	4a36      	ldr	r2, [pc, #216]	; (f0 <formNew+0xf0>)
  18:	2148      	movs	r1, #72	; 0x48
  1a:	6810      	ldr	r0, [r2, #0]
  1c:	4359      	muls	r1, r3
  1e:	f7ff fffe 	bl	0 <sysReallocate>
  22:	e002      	b.n	2a <formNew+0x2a>
  24:	2048      	movs	r0, #72	; 0x48
  26:	f7ff fffe 	bl	0 <sysAllocate>
  2a:	2800      	cmp	r0, #0
  2c:	d05b      	beq.n	e6 <formNew+0xe6>
  2e:	f898 a005 	ldrb.w	sl, [r8, #5]
  32:	f8df 90bc 	ldr.w	r9, [pc, #188]	; f0 <formNew+0xf0>
  36:	f04f 0848 	mov.w	r8, #72	; 0x48
  3a:	f8c9 0000 	str.w	r0, [r9]
  3e:	fb08 000a 	mla	r0, r8, sl, r0
  42:	2300      	movs	r3, #0
  44:	8403      	strh	r3, [r0, #32]
  46:	4640      	mov	r0, r8
  48:	f7ff fffe 	bl	0 <sysAllocate>
  4c:	4f27      	ldr	r7, [pc, #156]	; (ec <formNew+0xec>)
  4e:	4682      	mov	sl, r0
  50:	b930      	cbnz	r0, 60 <formNew+0x60>
  52:	2001      	movs	r0, #1
  54:	4927      	ldr	r1, [pc, #156]	; (f4 <formNew+0xf4>)
  56:	f7ff fffe 	bl	0 <print>
  5a:	4650      	mov	r0, sl
  5c:	e8bd 8ff8 	ldmia.w	sp!, {r3, r4, r5, r6, r7, r8, r9, sl, fp, pc}
  60:	f8d9 3000 	ldr.w	r3, [r9]
  64:	7979      	ldrb	r1, [r7, #5]
  66:	fb08 3101 	mla	r1, r8, r1, r3
  6a:	2300      	movs	r3, #0
  6c:	62c8      	str	r0, [r1, #44]	; 0x2c
  6e:	844b      	strh	r3, [r1, #34]	; 0x22
  70:	830d      	strh	r5, [r1, #24]
  72:	834c      	strh	r4, [r1, #26]
  74:	838e      	strh	r6, [r1, #28]
  76:	f8a1 b01e 	strh.w	fp, [r1, #30]
  7a:	481f      	ldr	r0, [pc, #124]	; (f8 <formNew+0xf8>)
  7c:	3104      	adds	r1, #4
  7e:	f7ff fffe 	bl	0 <formNew>
  82:	f8d9 3000 	ldr.w	r3, [r9]
  86:	7979      	ldrb	r1, [r7, #5]
  88:	481c      	ldr	r0, [pc, #112]	; (fc <formNew+0xfc>)
  8a:	fb08 3101 	mla	r1, r8, r1, r3
  8e:	3108      	adds	r1, #8
  90:	f7ff fffe 	bl	0 <formNew>
  94:	f8d9 3000 	ldr.w	r3, [r9]
  98:	7979      	ldrb	r1, [r7, #5]
  9a:	4819      	ldr	r0, [pc, #100]	; (100 <formNew+0x100>)
  9c:	fb08 3101 	mla	r1, r8, r1, r3
  a0:	f7ff fffe 	bl	0 <formNew>
  a4:	f8d9 3000 	ldr.w	r3, [r9]
  a8:	7979      	ldrb	r1, [r7, #5]
  aa:	4816      	ldr	r0, [pc, #88]	; (104 <formNew+0x104>)
  ac:	fb08 3101 	mla	r1, r8, r1, r3
  b0:	310c      	adds	r1, #12
  b2:	f7ff fffe 	bl	0 <formNew>
  b6:	f8d9 3000 	ldr.w	r3, [r9]
  ba:	7979      	ldrb	r1, [r7, #5]
  bc:	4812      	ldr	r0, [pc, #72]	; (108 <formNew+0x108>)
  be:	fb08 3101 	mla	r1, r8, r1, r3
  c2:	3110      	adds	r1, #16
  c4:	f7ff fffe 	bl	0 <formNew>
  c8:	f8d9 3000 	ldr.w	r3, [r9]
  cc:	797a      	ldrb	r2, [r7, #5]
  ce:	480f      	ldr	r0, [pc, #60]	; (10c <formNew+0x10c>)
  d0:	fb08 3802 	mla	r8, r8, r2, r3
  d4:	f108 0114 	add.w	r1, r8, #20
  d8:	f7ff fffe 	bl	0 <formNew>
  dc:	797b      	ldrb	r3, [r7, #5]
  de:	2001      	movs	r0, #1
  e0:	3301      	adds	r3, #1
  e2:	717b      	strb	r3, [r7, #5]
  e4:	7138      	strb	r0, [r7, #4]
  e6:	e8bd 8ff8 	ldmia.w	sp!, {r3, r4, r5, r6, r7, r8, r9, sl, fp, pc}
  ea:	bf00      	nop
	...
  f4:	00000182 	.word	0x00000182
  f8:	00000018 	.word	0x00000018
  fc:	0000001c 	.word	0x0000001c
 100:	00000014 	.word	0x00000014
 104:	00000020 	.word	0x00000020
 108:	00000024 	.word	0x00000024
 10c:	00000028 	.word	0x00000028

Disassembly of section .text.formRemove:

00000000 <formRemove>:
formRemove():
   0:	4c08b510 	.word	0x4c08b510
   4:	7961      	ldrb	r1, [r4, #5]
   6:	b131      	cbz	r1, 16 <formRemove+0x16>
   8:	4b07      	ldr	r3, [pc, #28]	; (28 <formRemove+0x28>)
   a:	3901      	subs	r1, #1
   c:	6818      	ldr	r0, [r3, #0]
   e:	2348      	movs	r3, #72	; 0x48
  10:	4359      	muls	r1, r3
  12:	f7ff fffe 	bl	0 <sysReallocate>
  16:	b120      	cbz	r0, 22 <formRemove+0x22>
  18:	4b03      	ldr	r3, [pc, #12]	; (28 <formRemove+0x28>)
  1a:	6018      	str	r0, [r3, #0]
  1c:	7963      	ldrb	r3, [r4, #5]
  1e:	3b01      	subs	r3, #1
  20:	7163      	strb	r3, [r4, #5]
  22:	bd10      	pop	{r4, pc}
	...

Disassembly of section .text.formDrawAll:

00000000 <formDrawAll>:
formDrawAll():
   0:	4770      	bx	lr

Disassembly of section .text.formAddEventHandler:

00000000 <formAddEventHandler>:
formAddEventHandler():
   0:	b570      	push	{r4, r5, r6, lr}
   2:	460e      	mov	r6, r1
   4:	4611      	mov	r1, r2
   6:	4a20      	ldr	r2, [pc, #128]	; (88 <formAddEventHandler+0x88>)
   8:	4604      	mov	r4, r0
   a:	7955      	ldrb	r5, [r2, #5]
   c:	3d01      	subs	r5, #1
   e:	29ff      	cmp	r1, #255	; 0xff
  10:	b2ad      	uxth	r5, r5
  12:	d003      	beq.n	1c <formAddEventHandler+0x1c>
  14:	461a      	mov	r2, r3
  16:	2301      	movs	r3, #1
  18:	f7ff fffe 	bl	0 <pinInterrupt>
  1c:	2e0e      	cmp	r6, #14
  1e:	d106      	bne.n	2e <formAddEventHandler+0x2e>
  20:	4b1a      	ldr	r3, [pc, #104]	; (8c <formAddEventHandler+0x8c>)
  22:	2248      	movs	r2, #72	; 0x48
  24:	681b      	ldr	r3, [r3, #0]
  26:	fb02 3505 	mla	r5, r2, r5, r3
  2a:	632c      	str	r4, [r5, #48]	; 0x30
  2c:	bd70      	pop	{r4, r5, r6, pc}
  2e:	2e0f      	cmp	r6, #15
  30:	d106      	bne.n	40 <formAddEventHandler+0x40>
  32:	4b16      	ldr	r3, [pc, #88]	; (8c <formAddEventHandler+0x8c>)
  34:	2248      	movs	r2, #72	; 0x48
  36:	681b      	ldr	r3, [r3, #0]
  38:	fb02 3505 	mla	r5, r2, r5, r3
  3c:	636c      	str	r4, [r5, #52]	; 0x34
  3e:	bd70      	pop	{r4, r5, r6, pc}
  40:	2e0d      	cmp	r6, #13
  42:	d106      	bne.n	52 <formAddEventHandler+0x52>
  44:	4b11      	ldr	r3, [pc, #68]	; (8c <formAddEventHandler+0x8c>)
  46:	2248      	movs	r2, #72	; 0x48
  48:	681b      	ldr	r3, [r3, #0]
  4a:	fb02 3505 	mla	r5, r2, r5, r3
  4e:	646c      	str	r4, [r5, #68]	; 0x44
  50:	bd70      	pop	{r4, r5, r6, pc}
  52:	2e0a      	cmp	r6, #10
  54:	d106      	bne.n	64 <formAddEventHandler+0x64>
  56:	4b0d      	ldr	r3, [pc, #52]	; (8c <formAddEventHandler+0x8c>)
  58:	2248      	movs	r2, #72	; 0x48
  5a:	681b      	ldr	r3, [r3, #0]
  5c:	fb02 3505 	mla	r5, r2, r5, r3
  60:	642c      	str	r4, [r5, #64]	; 0x40
  62:	bd70      	pop	{r4, r5, r6, pc}
  64:	2e01      	cmp	r6, #1
  66:	d106      	bne.n	76 <formAddEventHandler+0x76>
  68:	4b08      	ldr	r3, [pc, #32]	; (8c <formAddEventHandler+0x8c>)
  6a:	2248      	movs	r2, #72	; 0x48
  6c:	681b      	ldr	r3, [r3, #0]
  6e:	fb02 3505 	mla	r5, r2, r5, r3
  72:	63ac      	str	r4, [r5, #56]	; 0x38
  74:	bd70      	pop	{r4, r5, r6, pc}
  76:	2e06      	cmp	r6, #6
  78:	d105      	bne.n	86 <formAddEventHandler+0x86>
  7a:	4b04      	ldr	r3, [pc, #16]	; (8c <formAddEventHandler+0x8c>)
  7c:	2248      	movs	r2, #72	; 0x48
  7e:	681b      	ldr	r3, [r3, #0]
  80:	fb02 3505 	mla	r5, r2, r5, r3
  84:	63ec      	str	r4, [r5, #60]	; 0x3c
  86:	bd70      	pop	{r4, r5, r6, pc}
	...

Disassembly of section .text.widgetGet:

00000000 <widgetGet>:
widgetGet():
   0:	4770      	bx	lr

Disassembly of section .text.widgetGetFocused:

00000000 <widgetGetFocused>:
widgetGetFocused():
   0:	4b06      	ldr	r3, [pc, #24]	; (1c <widgetGetFocused+0x1c>)
   2:	4907      	ldr	r1, [pc, #28]	; (20 <widgetGetFocused+0x20>)
   4:	795a      	ldrb	r2, [r3, #5]
   6:	6809      	ldr	r1, [r1, #0]
   8:	2348      	movs	r3, #72	; 0x48
   a:	3a01      	subs	r2, #1
   c:	fb03 1202 	mla	r2, r3, r2, r1
  10:	8c50      	ldrh	r0, [r2, #34]	; 0x22
  12:	6ad2      	ldr	r2, [r2, #44]	; 0x2c
  14:	fb03 2000 	mla	r0, r3, r0, r2
  18:	4770      	bx	lr
  1a:	bf00      	nop
	...

Disassembly of section .text.widgetGetCurrent:

00000000 <widgetGetCurrent>:
widgetGetCurrent():
   0:	4b06      	ldr	r3, [pc, #24]	; (1c <widgetGetCurrent+0x1c>)
   2:	4907      	ldr	r1, [pc, #28]	; (20 <widgetGetCurrent+0x20>)
   4:	795a      	ldrb	r2, [r3, #5]
   6:	6809      	ldr	r1, [r1, #0]
   8:	2348      	movs	r3, #72	; 0x48
   a:	3a01      	subs	r2, #1
   c:	fb03 1202 	mla	r2, r3, r2, r1
  10:	8c10      	ldrh	r0, [r2, #32]
  12:	6ad2      	ldr	r2, [r2, #44]	; 0x2c
  14:	3801      	subs	r0, #1
  16:	fb03 2000 	mla	r0, r3, r0, r2
  1a:	4770      	bx	lr
	...

Disassembly of section .text.widgetRun:

00000000 <widgetRun>:
widgetRun():
   0:	b508      	push	{r3, lr}
   2:	6bc3      	ldr	r3, [r0, #60]	; 0x3c
   4:	b103      	cbz	r3, 8 <widgetRun+0x8>
   6:	4798      	blx	r3
   8:	bd08      	pop	{r3, pc}

Disassembly of section .text.widgetAddEventHandler:

00000000 <widgetAddEventHandler>:
widgetAddEventHandler():
   0:	2a0d      	cmp	r2, #13
   2:	d101      	bne.n	8 <widgetAddEventHandler+0x8>
   4:	6281      	str	r1, [r0, #40]	; 0x28
   6:	4770      	bx	lr
   8:	2a08      	cmp	r2, #8
   a:	d101      	bne.n	10 <widgetAddEventHandler+0x10>
   c:	6341      	str	r1, [r0, #52]	; 0x34
   e:	4770      	bx	lr
  10:	2a09      	cmp	r2, #9
  12:	d101      	bne.n	18 <widgetAddEventHandler+0x18>
  14:	6381      	str	r1, [r0, #56]	; 0x38
  16:	4770      	bx	lr
  18:	2a0b      	cmp	r2, #11
  1a:	d101      	bne.n	20 <widgetAddEventHandler+0x20>
  1c:	63c1      	str	r1, [r0, #60]	; 0x3c
  1e:	4770      	bx	lr
  20:	2a0e      	cmp	r2, #14
  22:	d101      	bne.n	28 <widgetAddEventHandler+0x28>
  24:	6401      	str	r1, [r0, #64]	; 0x40
  26:	4770      	bx	lr
  28:	2a0f      	cmp	r2, #15
  2a:	bf08      	it	eq
  2c:	6441      	streq	r1, [r0, #68]	; 0x44
  2e:	4770      	bx	lr

Disassembly of section .text.formCallFocused:

00000000 <formCallFocused>:
formCallFocused():
   0:	b508      	push	{r3, lr}
   2:	4b08      	ldr	r3, [pc, #32]	; (24 <formCallFocused+0x24>)
   4:	4908      	ldr	r1, [pc, #32]	; (28 <formCallFocused+0x28>)
   6:	795a      	ldrb	r2, [r3, #5]
   8:	6809      	ldr	r1, [r1, #0]
   a:	2348      	movs	r3, #72	; 0x48
   c:	3a01      	subs	r2, #1
   e:	fb03 1202 	mla	r2, r3, r2, r1
  12:	8c51      	ldrh	r1, [r2, #34]	; 0x22
  14:	6ad2      	ldr	r2, [r2, #44]	; 0x2c
  16:	fb03 2301 	mla	r3, r3, r1, r2
  1a:	6bdb      	ldr	r3, [r3, #60]	; 0x3c
  1c:	b103      	cbz	r3, 20 <formCallFocused+0x20>
  1e:	4798      	blx	r3
  20:	bd08      	pop	{r3, pc}
  22:	bf00      	nop
	...

Disassembly of section .text.formGetFocus:

00000000 <formGetFocus>:
formGetFocus():
   0:	4b04      	ldr	r3, [pc, #16]	; (14 <formGetFocus+0x14>)
   2:	4a05      	ldr	r2, [pc, #20]	; (18 <formGetFocus+0x18>)
   4:	795b      	ldrb	r3, [r3, #5]
   6:	6812      	ldr	r2, [r2, #0]
   8:	3b01      	subs	r3, #1
   a:	2148      	movs	r1, #72	; 0x48
   c:	fb01 2303 	mla	r3, r1, r3, r2
  10:	8c58      	ldrh	r0, [r3, #34]	; 0x22
  12:	4770      	bx	lr
	...

Disassembly of section .text.formAddWidget:

00000000 <formAddWidget>:
formAddWidget():
   0:	e92d 41f0 	stmdb	sp!, {r4, r5, r6, r7, r8, lr}
   4:	4b39      	ldr	r3, [pc, #228]	; (ec <formAddWidget+0xec>)
   6:	f04f 0848 	mov.w	r8, #72	; 0x48
   a:	7959      	ldrb	r1, [r3, #5]
   c:	4e38      	ldr	r6, [pc, #224]	; (f0 <formAddWidget+0xf0>)
   e:	1e4d      	subs	r5, r1, #1
  10:	b2ad      	uxth	r5, r5
  12:	fb08 f505 	mul.w	r5, r8, r5
  16:	6833      	ldr	r3, [r6, #0]
  18:	3101      	adds	r1, #1
  1a:	195b      	adds	r3, r3, r5
  1c:	4604      	mov	r4, r0
  1e:	fb08 f101 	mul.w	r1, r8, r1
  22:	6ad8      	ldr	r0, [r3, #44]	; 0x2c
  24:	f7ff fffe 	bl	0 <sysReallocate>
  28:	4607      	mov	r7, r0
  2a:	b930      	cbnz	r0, 3a <formAddWidget+0x3a>
  2c:	2001      	movs	r0, #1
  2e:	4931      	ldr	r1, [pc, #196]	; (f4 <formAddWidget+0xf4>)
  30:	f7ff fffe 	bl	0 <print>
  34:	4638      	mov	r0, r7
  36:	e8bd 81f0 	ldmia.w	sp!, {r4, r5, r6, r7, r8, pc}
  3a:	6830      	ldr	r0, [r6, #0]
  3c:	6923      	ldr	r3, [r4, #16]
  3e:	1940      	adds	r0, r0, r5
  40:	8c02      	ldrh	r2, [r0, #32]
  42:	62c7      	str	r7, [r0, #44]	; 0x2c
  44:	fb08 7702 	mla	r7, r8, r2, r7
  48:	613b      	str	r3, [r7, #16]
  4a:	8aa3      	ldrh	r3, [r4, #20]
  4c:	82bb      	strh	r3, [r7, #20]
  4e:	8ae3      	ldrh	r3, [r4, #22]
  50:	82fb      	strh	r3, [r7, #22]
  52:	8b23      	ldrh	r3, [r4, #24]
  54:	833b      	strh	r3, [r7, #24]
  56:	8b63      	ldrh	r3, [r4, #26]
  58:	837b      	strh	r3, [r7, #26]
  5a:	69e3      	ldr	r3, [r4, #28]
  5c:	b90a      	cbnz	r2, 62 <formAddWidget+0x62>
  5e:	f043 0302 	orr.w	r3, r3, #2
  62:	61fb      	str	r3, [r7, #28]
  64:	f894 3020 	ldrb.w	r3, [r4, #32]
  68:	f887 3020 	strb.w	r3, [r7, #32]
  6c:	6ac3      	ldr	r3, [r0, #44]	; 0x2c
  6e:	8c01      	ldrh	r1, [r0, #32]
  70:	2748      	movs	r7, #72	; 0x48
  72:	fb07 3101 	mla	r1, r7, r1, r3
  76:	6a63      	ldr	r3, [r4, #36]	; 0x24
  78:	300c      	adds	r0, #12
  7a:	624b      	str	r3, [r1, #36]	; 0x24
  7c:	2300      	movs	r3, #0
  7e:	640b      	str	r3, [r1, #64]	; 0x40
  80:	644b      	str	r3, [r1, #68]	; 0x44
  82:	62cb      	str	r3, [r1, #44]	; 0x2c
  84:	634b      	str	r3, [r1, #52]	; 0x34
  86:	638b      	str	r3, [r1, #56]	; 0x38
  88:	630b      	str	r3, [r1, #48]	; 0x30
  8a:	628b      	str	r3, [r1, #40]	; 0x28
  8c:	63cb      	str	r3, [r1, #60]	; 0x3c
  8e:	f7ff fffe 	bl	0 <formAddWidget>
  92:	6830      	ldr	r0, [r6, #0]
  94:	1940      	adds	r0, r0, r5
  96:	6ac3      	ldr	r3, [r0, #44]	; 0x2c
  98:	8c01      	ldrh	r1, [r0, #32]
  9a:	3008      	adds	r0, #8
  9c:	fb07 3101 	mla	r1, r7, r1, r3
  a0:	3104      	adds	r1, #4
  a2:	f7ff fffe 	bl	0 <formAddWidget>
  a6:	6830      	ldr	r0, [r6, #0]
  a8:	1940      	adds	r0, r0, r5
  aa:	6ac3      	ldr	r3, [r0, #44]	; 0x2c
  ac:	8c01      	ldrh	r1, [r0, #32]
  ae:	3010      	adds	r0, #16
  b0:	fb07 3101 	mla	r1, r7, r1, r3
  b4:	3108      	adds	r1, #8
  b6:	f7ff fffe 	bl	0 <formAddWidget>
  ba:	6830      	ldr	r0, [r6, #0]
  bc:	1940      	adds	r0, r0, r5
  be:	8c02      	ldrh	r2, [r0, #32]
  c0:	6ac3      	ldr	r3, [r0, #44]	; 0x2c
  c2:	3014      	adds	r0, #20
  c4:	fb07 3702 	mla	r7, r7, r2, r3
  c8:	f107 010c 	add.w	r1, r7, #12
  cc:	f7ff fffe 	bl	0 <formAddWidget>
  d0:	6833      	ldr	r3, [r6, #0]
  d2:	2001      	movs	r0, #1
  d4:	195d      	adds	r5, r3, r5
  d6:	8c2a      	ldrh	r2, [r5, #32]
  d8:	4907      	ldr	r1, [pc, #28]	; (f8 <formAddWidget+0xf8>)
  da:	3201      	adds	r2, #1
  dc:	b292      	uxth	r2, r2
  de:	842a      	strh	r2, [r5, #32]
  e0:	f7ff fffe 	bl	0 <print>
  e4:	2001      	movs	r0, #1
  e6:	e8bd 81f0 	ldmia.w	sp!, {r4, r5, r6, r7, r8, pc}
  ea:	bf00      	nop
	...
  f4:	00000182 	.word	0x00000182
  f8:	00000190 	.word	0x00000190

Disassembly of section .text.drawFill:

00000000 <drawFill>:
drawFill():
   0:	b570      	push	{r4, r5, r6, lr}
   2:	4606      	mov	r6, r0
   4:	460d      	mov	r5, r1
   6:	4614      	mov	r4, r2
   8:	4628      	mov	r0, r5
   a:	4621      	mov	r1, r4
   c:	f7ff fffe 	bl	0 <lcdGetPixel>
  10:	b1c0      	cbz	r0, 44 <drawFill+0x44>
  12:	4621      	mov	r1, r4
  14:	4628      	mov	r0, r5
  16:	f7ff fffe 	bl	0 <lcdDrawPixel>
  1a:	1c69      	adds	r1, r5, #1
  1c:	4622      	mov	r2, r4
  1e:	4630      	mov	r0, r6
  20:	b289      	uxth	r1, r1
  22:	f7ff fffe 	bl	0 <drawFill>
  26:	1e69      	subs	r1, r5, #1
  28:	4622      	mov	r2, r4
  2a:	4630      	mov	r0, r6
  2c:	b289      	uxth	r1, r1
  2e:	f7ff fffe 	bl	0 <drawFill>
  32:	1c62      	adds	r2, r4, #1
  34:	4630      	mov	r0, r6
  36:	4629      	mov	r1, r5
  38:	b292      	uxth	r2, r2
  3a:	3c01      	subs	r4, #1
  3c:	f7ff fffe 	bl	0 <drawFill>
  40:	b2a4      	uxth	r4, r4
  42:	e7e1      	b.n	8 <drawFill+0x8>
  44:	bd70      	pop	{r4, r5, r6, pc}

Disassembly of section .text.guiGetPixelOpening:

00000000 <guiGetPixelOpening>:
guiGetPixelOpening():
   0:	b5f8      	push	{r3, r4, r5, r6, r7, lr}
   2:	4604      	mov	r4, r0
   4:	3001      	adds	r0, #1
   6:	b280      	uxth	r0, r0
   8:	4617      	mov	r7, r2
   a:	460d      	mov	r5, r1
   c:	f7ff fffe 	bl	0 <lcdGetPixel>
  10:	1bc6      	subs	r6, r0, r7
  12:	bf18      	it	ne
  14:	2601      	movne	r6, #1
  16:	1e60      	subs	r0, r4, #1
  18:	4629      	mov	r1, r5
  1a:	b280      	uxth	r0, r0
  1c:	f7ff fffe 	bl	0 <lcdGetPixel>
  20:	42b8      	cmp	r0, r7
  22:	bf1c      	itt	ne
  24:	f046 0602 	orrne.w	r6, r6, #2
  28:	b2f6      	uxtbne	r6, r6
  2a:	1c69      	adds	r1, r5, #1
  2c:	4620      	mov	r0, r4
  2e:	b289      	uxth	r1, r1
  30:	f7ff fffe 	bl	0 <lcdGetPixel>
  34:	42b8      	cmp	r0, r7
  36:	bf18      	it	ne
  38:	f046 0604 	orrne.w	r6, r6, #4
  3c:	1e69      	subs	r1, r5, #1
  3e:	4620      	mov	r0, r4
  40:	b289      	uxth	r1, r1
  42:	f7ff fffe 	bl	0 <lcdGetPixel>
  46:	42b8      	cmp	r0, r7
  48:	bf18      	it	ne
  4a:	f046 0608 	orrne.w	r6, r6, #8
  4e:	4630      	mov	r0, r6
  50:	bdf8      	pop	{r3, r4, r5, r6, r7, pc}

Disassembly of section .text.drawPixelInArea:

00000000 <drawPixelInArea>:
drawPixelInArea():
   0:	b5f0      	push	{r4, r5, r6, r7, lr}
   2:	4290      	cmp	r0, r2
   4:	4605      	mov	r5, r0
   6:	460c      	mov	r4, r1
   8:	f8bd 7014 	ldrh.w	r7, [sp, #20]
   c:	f8bd 6018 	ldrh.w	r6, [sp, #24]
  10:	d309      	bcc.n	26 <drawPixelInArea+0x26>
  12:	42b8      	cmp	r0, r7
  14:	d807      	bhi.n	26 <drawPixelInArea+0x26>
  16:	4299      	cmp	r1, r3
  18:	d305      	bcc.n	26 <drawPixelInArea+0x26>
  1a:	42b1      	cmp	r1, r6
  1c:	d803      	bhi.n	26 <drawPixelInArea+0x26>
  1e:	e8bd 40f0 	ldmia.w	sp!, {r4, r5, r6, r7, lr}
  22:	f7ff bffe 	b.w	0 <lcdDrawPixel>
  26:	bdf0      	pop	{r4, r5, r6, r7, pc}

Disassembly of section .text.drawAll:

00000000 <drawAll>:
drawAll():
   0:	f7ff bffe 	b.w	0 <lcdWriteScreenBuffer>

Disassembly of section .text.drawLine:

00000000 <drawLine>:
drawLine():
   0:	e92d 4ff7 	stmdb	sp!, {r0, r1, r2, r4, r5, r6, r7, r8, r9, sl, fp, lr}
   4:	f8bd 8030 	ldrh.w	r8, [sp, #48]	; 0x30
   8:	460c      	mov	r4, r1
   a:	b291      	uxth	r1, r2
   c:	fa0f fb88 	sxth.w	fp, r8
  10:	ebc1 0808 	rsb	r8, r1, r8
  14:	fa1f f888 	uxth.w	r8, r8
  18:	461e      	mov	r6, r3
  1a:	b2a3      	uxth	r3, r4
  1c:	1af7      	subs	r7, r6, r3
  1e:	9101      	str	r1, [sp, #4]
  20:	9300      	str	r3, [sp, #0]
  22:	4615      	mov	r5, r2
  24:	f7ff fffe 	bl	0 <drawLine>
  28:	f418 4f00 	tst.w	r8, #32768	; 0x8000
  2c:	bf18      	it	ne
  2e:	f1c8 0800 	rsbne	r8, r8, #0
  32:	b2bf      	uxth	r7, r7
  34:	bf1a      	itte	ne
  36:	fa1f f888 	uxthne.w	r8, r8
  3a:	f64f 7aff 	movwne	sl, #65535	; 0xffff
  3e:	f04f 0a01 	moveq.w	sl, #1
  42:	f417 4f00 	tst.w	r7, #32768	; 0x8000
  46:	9901      	ldr	r1, [sp, #4]
  48:	9b00      	ldr	r3, [sp, #0]
  4a:	d004      	beq.n	56 <drawLine+0x56>
  4c:	427f      	negs	r7, r7
  4e:	b2bf      	uxth	r7, r7
  50:	f64f 79ff 	movw	r9, #65535	; 0xffff
  54:	e001      	b.n	5a <drawLine+0x5a>
  56:	f04f 0901 	mov.w	r9, #1
  5a:	ea4f 0248 	mov.w	r2, r8, lsl #1
  5e:	f64f 78fe 	movw	r8, #65534	; 0xfffe
  62:	ea02 0808 	and.w	r8, r2, r8
  66:	007a      	lsls	r2, r7, #1
  68:	f64f 77fe 	movw	r7, #65534	; 0xfffe
  6c:	ea02 0707 	and.w	r7, r2, r7
  70:	4618      	mov	r0, r3
  72:	f7ff fffe 	bl	0 <lcdDrawPixel>
  76:	b23a      	sxth	r2, r7
  78:	fa0f f388 	sxth.w	r3, r8
  7c:	429a      	cmp	r2, r3
  7e:	dd1b      	ble.n	b8 <drawLine+0xb8>
  80:	fa1f f888 	uxth.w	r8, r8
  84:	eba8 0b62 	sub.w	fp, r8, r2, asr #1
  88:	fa1f fb8b 	uxth.w	fp, fp
  8c:	e011      	b.n	b2 <drawLine+0xb2>
  8e:	f41b 4f00 	tst.w	fp, #32768	; 0x8000
  92:	d105      	bne.n	a0 <drawLine+0xa0>
  94:	4455      	add	r5, sl
  96:	ebc7 0b0b 	rsb	fp, r7, fp
  9a:	b22d      	sxth	r5, r5
  9c:	fa1f fb8b 	uxth.w	fp, fp
  a0:	444c      	add	r4, r9
  a2:	b2a0      	uxth	r0, r4
  a4:	44c3      	add	fp, r8
  a6:	b2a9      	uxth	r1, r5
  a8:	b204      	sxth	r4, r0
  aa:	fa1f fb8b 	uxth.w	fp, fp
  ae:	f7ff fffe 	bl	0 <lcdDrawPixel>
  b2:	42a6      	cmp	r6, r4
  b4:	d1eb      	bne.n	8e <drawLine+0x8e>
  b6:	e016      	b.n	e6 <drawLine+0xe6>
  b8:	b2bf      	uxth	r7, r7
  ba:	eba7 0663 	sub.w	r6, r7, r3, asr #1
  be:	b2b6      	uxth	r6, r6
  c0:	e00f      	b.n	e2 <drawLine+0xe2>
  c2:	f416 4f00 	tst.w	r6, #32768	; 0x8000
  c6:	d104      	bne.n	d2 <drawLine+0xd2>
  c8:	444c      	add	r4, r9
  ca:	ebc8 0606 	rsb	r6, r8, r6
  ce:	b224      	sxth	r4, r4
  d0:	b2b6      	uxth	r6, r6
  d2:	4455      	add	r5, sl
  d4:	b2a9      	uxth	r1, r5
  d6:	19be      	adds	r6, r7, r6
  d8:	b2a0      	uxth	r0, r4
  da:	b20d      	sxth	r5, r1
  dc:	b2b6      	uxth	r6, r6
  de:	f7ff fffe 	bl	0 <lcdDrawPixel>
  e2:	45ab      	cmp	fp, r5
  e4:	d1ed      	bne.n	c2 <drawLine+0xc2>
  e6:	e8bd 8ffe 	ldmia.w	sp!, {r1, r2, r3, r4, r5, r6, r7, r8, r9, sl, fp, pc}

Disassembly of section .text.drawThickLine:

00000000 <drawThickLine>:
drawThickLine():
   0:	e92d 4ff0 	stmdb	sp!, {r4, r5, r6, r7, r8, r9, sl, fp, lr}
   4:	b089      	sub	sp, #36	; 0x24
   6:	f9bd 8048 	ldrsh.w	r8, [sp, #72]	; 0x48
   a:	4681      	mov	r9, r0
   c:	4542      	cmp	r2, r8
   e:	f89d 004c 	ldrb.w	r0, [sp, #76]	; 0x4c
  12:	4617      	mov	r7, r2
  14:	469b      	mov	fp, r3
  16:	bf14      	ite	ne
  18:	2200      	movne	r2, #0
  1a:	2201      	moveq	r2, #1
  1c:	bf0c      	ite	eq
  1e:	2300      	moveq	r3, #0
  20:	2301      	movne	r3, #1
  22:	2400      	movs	r4, #0
  24:	468a      	mov	sl, r1
  26:	9007      	str	r0, [sp, #28]
  28:	9206      	str	r2, [sp, #24]
  2a:	9305      	str	r3, [sp, #20]
  2c:	46a4      	mov	ip, r4
  2e:	9404      	str	r4, [sp, #16]
  30:	e036      	b.n	a0 <drawThickLine+0xa0>
  32:	9804      	ldr	r0, [sp, #16]
  34:	f014 0f01 	tst.w	r4, #1
  38:	b286      	uxth	r6, r0
  3a:	fa1f f58c 	uxth.w	r5, ip
  3e:	d015      	beq.n	6c <drawThickLine+0x6c>
  40:	9814      	ldr	r0, [sp, #80]	; 0x50
  42:	1b7a      	subs	r2, r7, r5
  44:	ebc6 010a 	rsb	r1, r6, sl
  48:	ebc6 030b 	rsb	r3, r6, fp
  4c:	ebc5 0508 	rsb	r5, r5, r8
  50:	9001      	str	r0, [sp, #4]
  52:	b22d      	sxth	r5, r5
  54:	4648      	mov	r0, r9
  56:	b209      	sxth	r1, r1
  58:	b212      	sxth	r2, r2
  5a:	b21b      	sxth	r3, r3
  5c:	f8cd c00c 	str.w	ip, [sp, #12]
  60:	9500      	str	r5, [sp, #0]
  62:	f7ff fffe 	bl	0 <drawThickLine>
  66:	f8dd c00c 	ldr.w	ip, [sp, #12]
  6a:	e018      	b.n	9e <drawThickLine+0x9e>
  6c:	eb05 0008 	add.w	r0, r5, r8
  70:	b200      	sxth	r0, r0
  72:	9000      	str	r0, [sp, #0]
  74:	9814      	ldr	r0, [sp, #80]	; 0x50
  76:	eb06 010a 	add.w	r1, r6, sl
  7a:	19ea      	adds	r2, r5, r7
  7c:	eb06 030b 	add.w	r3, r6, fp
  80:	9001      	str	r0, [sp, #4]
  82:	b212      	sxth	r2, r2
  84:	b21b      	sxth	r3, r3
  86:	4648      	mov	r0, r9
  88:	b209      	sxth	r1, r1
  8a:	f7ff fffe 	bl	0 <drawThickLine>
  8e:	9a05      	ldr	r2, [sp, #20]
  90:	9b06      	ldr	r3, [sp, #24]
  92:	18b6      	adds	r6, r6, r2
  94:	b2b6      	uxth	r6, r6
  96:	18ed      	adds	r5, r5, r3
  98:	9604      	str	r6, [sp, #16]
  9a:	fa1f fc85 	uxth.w	ip, r5
  9e:	3401      	adds	r4, #1
  a0:	9807      	ldr	r0, [sp, #28]
  a2:	b2e3      	uxtb	r3, r4
  a4:	4283      	cmp	r3, r0
  a6:	d3c4      	bcc.n	32 <drawThickLine+0x32>
  a8:	b009      	add	sp, #36	; 0x24
  aa:	e8bd 8ff0 	ldmia.w	sp!, {r4, r5, r6, r7, r8, r9, sl, fp, pc}

Disassembly of section .text.drawPoly:

00000000 <drawPoly>:
drawPoly():
   0:	e92d 41f3 	stmdb	sp!, {r0, r1, r4, r5, r6, r7, r8, lr}
   4:	4607      	mov	r7, r0
   6:	460d      	mov	r5, r1
   8:	4616      	mov	r6, r2
   a:	4698      	mov	r8, r3
   c:	2400      	movs	r4, #0
   e:	e013      	b.n	38 <drawPoly+0x38>
  10:	f835 1014 	ldrh.w	r1, [r5, r4, lsl #1]
  14:	1c63      	adds	r3, r4, #1
  16:	3402      	adds	r4, #2
  18:	b2a4      	uxth	r4, r4
  1a:	1c60      	adds	r0, r4, #1
  1c:	f935 0010 	ldrsh.w	r0, [r5, r0, lsl #1]
  20:	b29b      	uxth	r3, r3
  22:	f935 2013 	ldrsh.w	r2, [r5, r3, lsl #1]
  26:	9000      	str	r0, [sp, #0]
  28:	f935 3014 	ldrsh.w	r3, [r5, r4, lsl #1]
  2c:	4638      	mov	r0, r7
  2e:	b209      	sxth	r1, r1
  30:	f8cd 8004 	str.w	r8, [sp, #4]
  34:	f7ff fffe 	bl	0 <drawPoly>
  38:	1eb3      	subs	r3, r6, #2
  3a:	429c      	cmp	r4, r3
  3c:	dbe8      	blt.n	10 <drawPoly+0x10>
  3e:	e8bd 81fc 	ldmia.w	sp!, {r2, r3, r4, r5, r6, r7, r8, pc}

Disassembly of section .text.drawRadius:

00000000 <drawRadius>:
drawRadius():
   0:	e92d 4ff0 	stmdb	sp!, {r4, r5, r6, r7, r8, r9, sl, fp, lr}
   4:	b089      	sub	sp, #36	; 0x24
   6:	f8bd 4048 	ldrh.w	r4, [sp, #72]	; 0x48
   a:	4699      	mov	r9, r3
   c:	f1c4 0301 	rsb	r3, r4, #1
  10:	b29b      	uxth	r3, r3
  12:	9305      	str	r3, [sp, #20]
  14:	f06f 0301 	mvn.w	r3, #1
  18:	4363      	muls	r3, r4
  1a:	460d      	mov	r5, r1
  1c:	b29b      	uxth	r3, r3
  1e:	4607      	mov	r7, r0
  20:	4616      	mov	r6, r2
  22:	f8dd 804c 	ldr.w	r8, [sp, #76]	; 0x4c
  26:	9307      	str	r3, [sp, #28]
  28:	f7ff fffe 	bl	0 <drawRadius>
  2c:	1c6b      	adds	r3, r5, #1
  2e:	b29b      	uxth	r3, r3
  30:	9303      	str	r3, [sp, #12]
  32:	1e73      	subs	r3, r6, #1
  34:	b29b      	uxth	r3, r3
  36:	f105 3aff 	add.w	sl, r5, #4294967295
  3a:	f106 0b01 	add.w	fp, r6, #1
  3e:	9304      	str	r3, [sp, #16]
  40:	2100      	movs	r1, #0
  42:	4643      	mov	r3, r8
  44:	fa1f fa8a 	uxth.w	sl, sl
  48:	46b8      	mov	r8, r7
  4a:	fa1f fb8b 	uxth.w	fp, fp
  4e:	9106      	str	r1, [sp, #24]
  50:	461f      	mov	r7, r3
  52:	e0d6      	b.n	202 <drawRadius+0x202>
  54:	9a05      	ldr	r2, [sp, #20]
  56:	f412 4f00 	tst.w	r2, #32768	; 0x8000
  5a:	d10a      	bne.n	72 <drawRadius+0x72>
  5c:	9907      	ldr	r1, [sp, #28]
  5e:	3c01      	subs	r4, #1
  60:	1c8b      	adds	r3, r1, #2
  62:	9905      	ldr	r1, [sp, #20]
  64:	b29b      	uxth	r3, r3
  66:	b29a      	uxth	r2, r3
  68:	185b      	adds	r3, r3, r1
  6a:	b29b      	uxth	r3, r3
  6c:	b2a4      	uxth	r4, r4
  6e:	9207      	str	r2, [sp, #28]
  70:	9305      	str	r3, [sp, #20]
  72:	9a06      	ldr	r2, [sp, #24]
  74:	9905      	ldr	r1, [sp, #20]
  76:	1c53      	adds	r3, r2, #1
  78:	b29b      	uxth	r3, r3
  7a:	9306      	str	r3, [sp, #24]
  7c:	eb01 0343 	add.w	r3, r1, r3, lsl #1
  80:	3301      	adds	r3, #1
  82:	b29b      	uxth	r3, r3
  84:	f417 7f80 	tst.w	r7, #256	; 0x100
  88:	9305      	str	r3, [sp, #20]
  8a:	f009 0301 	and.w	r3, r9, #1
  8e:	d076      	beq.n	17e <drawRadius+0x17e>
  90:	b1cb      	cbz	r3, c6 <drawRadius+0xc6>
  92:	fa0f fc85 	sxth.w	ip, r5
  96:	1b32      	subs	r2, r6, r4
  98:	b212      	sxth	r2, r2
  9a:	4661      	mov	r1, ip
  9c:	4640      	mov	r0, r8
  9e:	fa0f f38a 	sxth.w	r3, sl
  a2:	9200      	str	r2, [sp, #0]
  a4:	f8cd c008 	str.w	ip, [sp, #8]
  a8:	9701      	str	r7, [sp, #4]
  aa:	f7ff fffe 	bl	0 <drawRadius>
  ae:	9b04      	ldr	r3, [sp, #16]
  b0:	f8dd c008 	ldr.w	ip, [sp, #8]
  b4:	b21a      	sxth	r2, r3
  b6:	1b2b      	subs	r3, r5, r4
  b8:	4640      	mov	r0, r8
  ba:	4661      	mov	r1, ip
  bc:	b21b      	sxth	r3, r3
  be:	9200      	str	r2, [sp, #0]
  c0:	9701      	str	r7, [sp, #4]
  c2:	f7ff fffe 	bl	0 <drawRadius>
  c6:	f019 0f02 	tst.w	r9, #2
  ca:	d01b      	beq.n	104 <drawRadius+0x104>
  cc:	f8dd e00c 	ldr.w	lr, [sp, #12]
  d0:	fa0f fc85 	sxth.w	ip, r5
  d4:	1b32      	subs	r2, r6, r4
  d6:	b212      	sxth	r2, r2
  d8:	4661      	mov	r1, ip
  da:	4640      	mov	r0, r8
  dc:	fa0f f38e 	sxth.w	r3, lr
  e0:	9200      	str	r2, [sp, #0]
  e2:	f8cd c008 	str.w	ip, [sp, #8]
  e6:	9701      	str	r7, [sp, #4]
  e8:	f7ff fffe 	bl	0 <drawRadius>
  ec:	9904      	ldr	r1, [sp, #16]
  ee:	f8dd c008 	ldr.w	ip, [sp, #8]
  f2:	1963      	adds	r3, r4, r5
  f4:	b20a      	sxth	r2, r1
  f6:	4640      	mov	r0, r8
  f8:	4661      	mov	r1, ip
  fa:	b21b      	sxth	r3, r3
  fc:	9200      	str	r2, [sp, #0]
  fe:	9701      	str	r7, [sp, #4]
 100:	f7ff fffe 	bl	0 <drawRadius>
 104:	f019 0f04 	tst.w	r9, #4
 108:	d01b      	beq.n	142 <drawRadius+0x142>
 10a:	f8dd e00c 	ldr.w	lr, [sp, #12]
 10e:	fa0f fc85 	sxth.w	ip, r5
 112:	19a2      	adds	r2, r4, r6
 114:	b212      	sxth	r2, r2
 116:	4661      	mov	r1, ip
 118:	4640      	mov	r0, r8
 11a:	fa0f f38e 	sxth.w	r3, lr
 11e:	9200      	str	r2, [sp, #0]
 120:	f8cd c008 	str.w	ip, [sp, #8]
 124:	9701      	str	r7, [sp, #4]
 126:	f7ff fffe 	bl	0 <drawRadius>
 12a:	f8dd c008 	ldr.w	ip, [sp, #8]
 12e:	1963      	adds	r3, r4, r5
 130:	fa0f f28b 	sxth.w	r2, fp
 134:	4640      	mov	r0, r8
 136:	4661      	mov	r1, ip
 138:	b21b      	sxth	r3, r3
 13a:	9200      	str	r2, [sp, #0]
 13c:	9701      	str	r7, [sp, #4]
 13e:	f7ff fffe 	bl	0 <drawRadius>
 142:	f019 0f08 	tst.w	r9, #8
 146:	d04c      	beq.n	1e2 <drawRadius+0x1e2>
 148:	fa0f fc85 	sxth.w	ip, r5
 14c:	19a2      	adds	r2, r4, r6
 14e:	b212      	sxth	r2, r2
 150:	4640      	mov	r0, r8
 152:	4661      	mov	r1, ip
 154:	fa0f f38a 	sxth.w	r3, sl
 158:	9200      	str	r2, [sp, #0]
 15a:	f8cd c008 	str.w	ip, [sp, #8]
 15e:	9701      	str	r7, [sp, #4]
 160:	f7ff fffe 	bl	0 <drawRadius>
 164:	f8dd c008 	ldr.w	ip, [sp, #8]
 168:	1b2b      	subs	r3, r5, r4
 16a:	fa0f f28b 	sxth.w	r2, fp
 16e:	4640      	mov	r0, r8
 170:	4661      	mov	r1, ip
 172:	b21b      	sxth	r3, r3
 174:	9200      	str	r2, [sp, #0]
 176:	9701      	str	r7, [sp, #4]
 178:	f7ff fffe 	bl	0 <drawRadius>
 17c:	e031      	b.n	1e2 <drawRadius+0x1e2>
 17e:	b14b      	cbz	r3, 194 <drawRadius+0x194>
 180:	1b31      	subs	r1, r6, r4
 182:	4650      	mov	r0, sl
 184:	b289      	uxth	r1, r1
 186:	f7ff fffe 	bl	0 <lcdDrawPixel>
 18a:	1b28      	subs	r0, r5, r4
 18c:	b280      	uxth	r0, r0
 18e:	9904      	ldr	r1, [sp, #16]
 190:	f7ff fffe 	bl	0 <lcdDrawPixel>
 194:	f019 0f02 	tst.w	r9, #2
 198:	d009      	beq.n	1ae <drawRadius+0x1ae>
 19a:	1b31      	subs	r1, r6, r4
 19c:	9803      	ldr	r0, [sp, #12]
 19e:	b289      	uxth	r1, r1
 1a0:	f7ff fffe 	bl	0 <lcdDrawPixel>
 1a4:	1960      	adds	r0, r4, r5
 1a6:	b280      	uxth	r0, r0
 1a8:	9904      	ldr	r1, [sp, #16]
 1aa:	f7ff fffe 	bl	0 <lcdDrawPixel>
 1ae:	f019 0f04 	tst.w	r9, #4
 1b2:	d009      	beq.n	1c8 <drawRadius+0x1c8>
 1b4:	19a1      	adds	r1, r4, r6
 1b6:	9803      	ldr	r0, [sp, #12]
 1b8:	b289      	uxth	r1, r1
 1ba:	f7ff fffe 	bl	0 <lcdDrawPixel>
 1be:	1960      	adds	r0, r4, r5
 1c0:	b280      	uxth	r0, r0
 1c2:	4659      	mov	r1, fp
 1c4:	f7ff fffe 	bl	0 <lcdDrawPixel>
 1c8:	f019 0f08 	tst.w	r9, #8
 1cc:	d009      	beq.n	1e2 <drawRadius+0x1e2>
 1ce:	19a1      	adds	r1, r4, r6
 1d0:	4650      	mov	r0, sl
 1d2:	b289      	uxth	r1, r1
 1d4:	f7ff fffe 	bl	0 <lcdDrawPixel>
 1d8:	1b28      	subs	r0, r5, r4
 1da:	b280      	uxth	r0, r0
 1dc:	4659      	mov	r1, fp
 1de:	f7ff fffe 	bl	0 <lcdDrawPixel>
 1e2:	9903      	ldr	r1, [sp, #12]
 1e4:	9a04      	ldr	r2, [sp, #16]
 1e6:	1c4b      	adds	r3, r1, #1
 1e8:	b29b      	uxth	r3, r3
 1ea:	9303      	str	r3, [sp, #12]
 1ec:	1e53      	subs	r3, r2, #1
 1ee:	f10a 3aff 	add.w	sl, sl, #4294967295
 1f2:	f10b 0b01 	add.w	fp, fp, #1
 1f6:	b29b      	uxth	r3, r3
 1f8:	fa1f fa8a 	uxth.w	sl, sl
 1fc:	fa1f fb8b 	uxth.w	fp, fp
 200:	9304      	str	r3, [sp, #16]
 202:	9b06      	ldr	r3, [sp, #24]
 204:	42a3      	cmp	r3, r4
 206:	f4ff af25 	bcc.w	54 <drawRadius+0x54>
 20a:	b009      	add	sp, #36	; 0x24
 20c:	e8bd 8ff0 	ldmia.w	sp!, {r4, r5, r6, r7, r8, r9, sl, fp, pc}

Disassembly of section .text.drawRect:

00000000 <drawRect>:
drawRect():
   0:	e92d 4ff0 	stmdb	sp!, {r4, r5, r6, r7, r8, r9, sl, fp, lr}
   4:	b089      	sub	sp, #36	; 0x24
   6:	9d13      	ldr	r5, [sp, #76]	; 0x4c
   8:	4699      	mov	r9, r3
   a:	f8bd 3048 	ldrh.w	r3, [sp, #72]	; 0x48
   e:	4606      	mov	r6, r0
  10:	4688      	mov	r8, r1
  12:	4692      	mov	sl, r2
  14:	f8ad 3010 	strh.w	r3, [sp, #16]
  18:	fa0f fb83 	sxth.w	fp, r3
  1c:	f8bd 4050 	ldrh.w	r4, [sp, #80]	; 0x50
  20:	f7ff fffe 	bl	0 <drawRect>
  24:	f415 7f80 	tst.w	r5, #256	; 0x100
  28:	d05f      	beq.n	ea <drawRect+0xea>
  2a:	fa1f f08a 	uxth.w	r0, sl
  2e:	9003      	str	r0, [sp, #12]
  30:	2c00      	cmp	r4, #0
  32:	d048      	beq.n	c6 <drawRect+0xc6>
  34:	f015 0fc0 	tst.w	r5, #192	; 0xc0
  38:	d045      	beq.n	c6 <drawRect+0xc6>
  3a:	1827      	adds	r7, r4, r0
  3c:	e008      	b.n	50 <drawRect+0x50>
  3e:	b23a      	sxth	r2, r7
  40:	4630      	mov	r0, r6
  42:	4641      	mov	r1, r8
  44:	464b      	mov	r3, r9
  46:	9200      	str	r2, [sp, #0]
  48:	9501      	str	r5, [sp, #4]
  4a:	f7ff fffe 	bl	0 <drawRect>
  4e:	3701      	adds	r7, #1
  50:	b2bf      	uxth	r7, r7
  52:	ebc4 030b 	rsb	r3, r4, fp
  56:	42bb      	cmp	r3, r7
  58:	daf1      	bge.n	3e <drawRect+0x3e>
  5a:	2700      	movs	r7, #0
  5c:	f8cd a01c 	str.w	sl, [sp, #28]
  60:	46c2      	mov	sl, r8
  62:	46b0      	mov	r8, r6
  64:	463e      	mov	r6, r7
  66:	e027      	b.n	b8 <drawRect+0xb8>
  68:	9803      	ldr	r0, [sp, #12]
  6a:	eb04 010a 	add.w	r1, r4, sl
  6e:	1bc9      	subs	r1, r1, r7
  70:	ebc4 0309 	rsb	r3, r4, r9
  74:	fa0f fc81 	sxth.w	ip, r1
  78:	1832      	adds	r2, r6, r0
  7a:	18fb      	adds	r3, r7, r3
  7c:	b212      	sxth	r2, r2
  7e:	b21b      	sxth	r3, r3
  80:	4661      	mov	r1, ip
  82:	4640      	mov	r0, r8
  84:	9306      	str	r3, [sp, #24]
  86:	9200      	str	r2, [sp, #0]
  88:	f8cd c008 	str.w	ip, [sp, #8]
  8c:	9501      	str	r5, [sp, #4]
  8e:	f7ff fffe 	bl	0 <drawRect>
  92:	f8dd c008 	ldr.w	ip, [sp, #8]
  96:	ebc6 020b 	rsb	r2, r6, fp
  9a:	b212      	sxth	r2, r2
  9c:	4640      	mov	r0, r8
  9e:	4661      	mov	r1, ip
  a0:	9b06      	ldr	r3, [sp, #24]
  a2:	9200      	str	r2, [sp, #0]
  a4:	9501      	str	r5, [sp, #4]
  a6:	f7ff fffe 	bl	0 <drawRect>
  aa:	f015 0f80 	tst.w	r5, #128	; 0x80
  ae:	d001      	beq.n	b4 <drawRect+0xb4>
  b0:	3701      	adds	r7, #1
  b2:	b2bf      	uxth	r7, r7
  b4:	3601      	adds	r6, #1
  b6:	b2b6      	uxth	r6, r6
  b8:	42a6      	cmp	r6, r4
  ba:	d3d5      	bcc.n	68 <drawRect+0x68>
  bc:	4646      	mov	r6, r8
  be:	46d0      	mov	r8, sl
  c0:	f8dd a01c 	ldr.w	sl, [sp, #28]
  c4:	e011      	b.n	ea <drawRect+0xea>
  c6:	9f03      	ldr	r7, [sp, #12]
  c8:	e00d      	b.n	e6 <drawRect+0xe6>
  ca:	f108 0101 	add.w	r1, r8, #1
  ce:	f109 33ff 	add.w	r3, r9, #4294967295
  d2:	b23a      	sxth	r2, r7
  d4:	4630      	mov	r0, r6
  d6:	b209      	sxth	r1, r1
  d8:	b21b      	sxth	r3, r3
  da:	9200      	str	r2, [sp, #0]
  dc:	9501      	str	r5, [sp, #4]
  de:	f7ff fffe 	bl	0 <drawRect>
  e2:	3701      	adds	r7, #1
  e4:	b2bf      	uxth	r7, r7
  e6:	455f      	cmp	r7, fp
  e8:	dbef      	blt.n	ca <drawRect+0xca>
  ea:	f015 0f80 	tst.w	r5, #128	; 0x80
  ee:	d037      	beq.n	160 <drawRect+0x160>
  f0:	ebc4 0709 	rsb	r7, r4, r9
  f4:	eb04 030a 	add.w	r3, r4, sl
  f8:	b23f      	sxth	r7, r7
  fa:	b21b      	sxth	r3, r3
  fc:	9303      	str	r3, [sp, #12]
  fe:	9300      	str	r3, [sp, #0]
 100:	4630      	mov	r0, r6
 102:	4639      	mov	r1, r7
 104:	4652      	mov	r2, sl
 106:	464b      	mov	r3, r9
 108:	9501      	str	r5, [sp, #4]
 10a:	f7ff fffe 	bl	0 <drawRect>
 10e:	f8bd 0010 	ldrh.w	r0, [sp, #16]
 112:	4639      	mov	r1, r7
 114:	ebc4 0c00 	rsb	ip, r4, r0
 118:	fa0f fc8c 	sxth.w	ip, ip
 11c:	4630      	mov	r0, r6
 11e:	465a      	mov	r2, fp
 120:	464b      	mov	r3, r9
 122:	eb04 0708 	add.w	r7, r4, r8
 126:	f8cd c000 	str.w	ip, [sp]
 12a:	f8cd c008 	str.w	ip, [sp, #8]
 12e:	b23f      	sxth	r7, r7
 130:	9501      	str	r5, [sp, #4]
 132:	f7ff fffe 	bl	0 <drawRect>
 136:	f8dd c008 	ldr.w	ip, [sp, #8]
 13a:	4630      	mov	r0, r6
 13c:	4639      	mov	r1, r7
 13e:	465a      	mov	r2, fp
 140:	4643      	mov	r3, r8
 142:	f8cd c000 	str.w	ip, [sp]
 146:	9501      	str	r5, [sp, #4]
 148:	f7ff fffe 	bl	0 <drawRect>
 14c:	4630      	mov	r0, r6
 14e:	4641      	mov	r1, r8
 150:	9a03      	ldr	r2, [sp, #12]
 152:	463b      	mov	r3, r7
 154:	f8cd a000 	str.w	sl, [sp]
 158:	9501      	str	r5, [sp, #4]
 15a:	f7ff fffe 	bl	0 <drawRect>
 15e:	e035      	b.n	1cc <drawRect+0x1cc>
 160:	f015 0f40 	tst.w	r5, #64	; 0x40
 164:	d032      	beq.n	1cc <drawRect+0x1cc>
 166:	eb04 0c08 	add.w	ip, r4, r8
 16a:	eb04 070a 	add.w	r7, r4, sl
 16e:	fa1f fc8c 	uxth.w	ip, ip
 172:	b2bf      	uxth	r7, r7
 174:	4661      	mov	r1, ip
 176:	463a      	mov	r2, r7
 178:	4630      	mov	r0, r6
 17a:	2301      	movs	r3, #1
 17c:	f8cd c008 	str.w	ip, [sp, #8]
 180:	9400      	str	r4, [sp, #0]
 182:	9501      	str	r5, [sp, #4]
 184:	f7ff fffe 	bl	0 <drawRect>
 188:	ebc4 0309 	rsb	r3, r4, r9
 18c:	b29b      	uxth	r3, r3
 18e:	4619      	mov	r1, r3
 190:	463a      	mov	r2, r7
 192:	9303      	str	r3, [sp, #12]
 194:	4630      	mov	r0, r6
 196:	2302      	movs	r3, #2
 198:	9400      	str	r4, [sp, #0]
 19a:	9501      	str	r5, [sp, #4]
 19c:	f7ff fffe 	bl	0 <drawRect>
 1a0:	f8bd 3010 	ldrh.w	r3, [sp, #16]
 1a4:	f8dd c008 	ldr.w	ip, [sp, #8]
 1a8:	1b1f      	subs	r7, r3, r4
 1aa:	b2bf      	uxth	r7, r7
 1ac:	4630      	mov	r0, r6
 1ae:	4661      	mov	r1, ip
 1b0:	463a      	mov	r2, r7
 1b2:	2308      	movs	r3, #8
 1b4:	9400      	str	r4, [sp, #0]
 1b6:	9501      	str	r5, [sp, #4]
 1b8:	f7ff fffe 	bl	0 <drawRect>
 1bc:	4630      	mov	r0, r6
 1be:	9903      	ldr	r1, [sp, #12]
 1c0:	463a      	mov	r2, r7
 1c2:	2304      	movs	r3, #4
 1c4:	9400      	str	r4, [sp, #0]
 1c6:	9501      	str	r5, [sp, #4]
 1c8:	f7ff fffe 	bl	0 <drawRect>
 1cc:	eb04 0c08 	add.w	ip, r4, r8
 1d0:	ebc4 0709 	rsb	r7, r4, r9
 1d4:	fa0f fc8c 	sxth.w	ip, ip
 1d8:	b23f      	sxth	r7, r7
 1da:	4630      	mov	r0, r6
 1dc:	4661      	mov	r1, ip
 1de:	4652      	mov	r2, sl
 1e0:	463b      	mov	r3, r7
 1e2:	f8cd a000 	str.w	sl, [sp]
 1e6:	f8cd c008 	str.w	ip, [sp, #8]
 1ea:	9501      	str	r5, [sp, #4]
 1ec:	f7ff fffe 	bl	0 <drawRect>
 1f0:	f8dd c008 	ldr.w	ip, [sp, #8]
 1f4:	4630      	mov	r0, r6
 1f6:	4661      	mov	r1, ip
 1f8:	465a      	mov	r2, fp
 1fa:	463b      	mov	r3, r7
 1fc:	f8cd b000 	str.w	fp, [sp]
 200:	9501      	str	r5, [sp, #4]
 202:	f7ff fffe 	bl	0 <drawRect>
 206:	f8bd 0010 	ldrh.w	r0, [sp, #16]
 20a:	44a2      	add	sl, r4
 20c:	fa0f fa8a 	sxth.w	sl, sl
 210:	1b04      	subs	r4, r0, r4
 212:	b224      	sxth	r4, r4
 214:	4630      	mov	r0, r6
 216:	4641      	mov	r1, r8
 218:	4652      	mov	r2, sl
 21a:	4643      	mov	r3, r8
 21c:	9400      	str	r4, [sp, #0]
 21e:	9501      	str	r5, [sp, #4]
 220:	f7ff fffe 	bl	0 <drawRect>
 224:	4630      	mov	r0, r6
 226:	4649      	mov	r1, r9
 228:	4652      	mov	r2, sl
 22a:	464b      	mov	r3, r9
 22c:	9412      	str	r4, [sp, #72]	; 0x48
 22e:	9513      	str	r5, [sp, #76]	; 0x4c
 230:	b009      	add	sp, #36	; 0x24
 232:	e8bd 4ff0 	ldmia.w	sp!, {r4, r5, r6, r7, r8, r9, sl, fp, lr}
 236:	f7ff bffe 	b.w	0 <drawRect>

Disassembly of section .text.drawWidget:

00000000 <drawWidget>:
drawWidget():
   0:	e92d 41f0 	stmdb	sp!, {r4, r5, r6, r7, r8, lr}
   4:	69c3      	ldr	r3, [r0, #28]
   6:	b086      	sub	sp, #24
   8:	f013 0f01 	tst.w	r3, #1
   c:	4604      	mov	r4, r0
   e:	d102      	bne.n	16 <drawWidget+0x16>
  10:	2001      	movs	r0, #1
  12:	4997      	ldr	r1, [pc, #604]	; (270 <drawWidget+0x270>)
  14:	e281      	b.n	51a <drawWidget+0x51a>
  16:	2001      	movs	r0, #1
  18:	4996      	ldr	r1, [pc, #600]	; (274 <drawWidget+0x274>)
  1a:	6a62      	ldr	r2, [r4, #36]	; 0x24
  1c:	f7ff fffe 	bl	0 <print>
  20:	69e3      	ldr	r3, [r4, #28]
  22:	4e95      	ldr	r6, [pc, #596]	; (278 <drawWidget+0x278>)
  24:	f413 6f80 	tst.w	r3, #1024	; 0x400
  28:	f896 5040 	ldrb.w	r5, [r6, #64]	; 0x40
  2c:	d01a      	beq.n	64 <drawWidget+0x64>
  2e:	2001      	movs	r0, #1
  30:	4992      	ldr	r1, [pc, #584]	; (27c <drawWidget+0x27c>)
  32:	f7ff fffe 	bl	0 <print>
  36:	69e3      	ldr	r3, [r4, #28]
  38:	f013 0f02 	tst.w	r3, #2
  3c:	d00b      	beq.n	56 <drawWidget+0x56>
  3e:	2001      	movs	r0, #1
  40:	498f      	ldr	r1, [pc, #572]	; (280 <drawWidget+0x280>)
  42:	f7ff fffe 	bl	0 <print>
  46:	f104 0008 	add.w	r0, r4, #8
  4a:	a904      	add	r1, sp, #16
  4c:	f7ff fffe 	bl	0 <drawWidget>
  50:	f104 000c 	add.w	r0, r4, #12
  54:	e004      	b.n	60 <drawWidget+0x60>
  56:	4620      	mov	r0, r4
  58:	a904      	add	r1, sp, #16
  5a:	f7ff fffe 	bl	0 <drawWidget>
  5e:	1d20      	adds	r0, r4, #4
  60:	a905      	add	r1, sp, #20
  62:	e014      	b.n	8e <drawWidget+0x8e>
  64:	f013 0f02 	tst.w	r3, #2
  68:	d00b      	beq.n	82 <drawWidget+0x82>
  6a:	2001      	movs	r0, #1
  6c:	4984      	ldr	r1, [pc, #528]	; (280 <drawWidget+0x280>)
  6e:	f7ff fffe 	bl	0 <print>
  72:	f104 0008 	add.w	r0, r4, #8
  76:	a905      	add	r1, sp, #20
  78:	f7ff fffe 	bl	0 <drawWidget>
  7c:	f104 000c 	add.w	r0, r4, #12
  80:	e004      	b.n	8c <drawWidget+0x8c>
  82:	4620      	mov	r0, r4
  84:	a905      	add	r1, sp, #20
  86:	f7ff fffe 	bl	0 <drawWidget>
  8a:	1d20      	adds	r0, r4, #4
  8c:	a904      	add	r1, sp, #16
  8e:	f7ff fffe 	bl	0 <drawWidget>
  92:	f7ff fffe 	bl	0 <drawWidget>
  96:	a905      	add	r1, sp, #20
  98:	f7ff fffe 	bl	0 <drawWidget>
  9c:	f7ff fffe 	bl	0 <drawWidget>
  a0:	a904      	add	r1, sp, #16
  a2:	f7ff fffe 	bl	0 <drawWidget>
  a6:	69e3      	ldr	r3, [r4, #28]
  a8:	f013 0f10 	tst.w	r3, #16
  ac:	d016      	beq.n	dc <drawWidget+0xdc>
  ae:	2001      	movs	r0, #1
  b0:	4974      	ldr	r1, [pc, #464]	; (284 <drawWidget+0x284>)
  b2:	f7ff fffe 	bl	0 <print>
  b6:	8ae2      	ldrh	r2, [r4, #22]
  b8:	8b60      	ldrh	r0, [r4, #26]
  ba:	8aa1      	ldrh	r1, [r4, #20]
  bc:	1810      	adds	r0, r2, r0
  be:	b200      	sxth	r0, r0
  c0:	8b23      	ldrh	r3, [r4, #24]
  c2:	9000      	str	r0, [sp, #0]
  c4:	69e0      	ldr	r0, [r4, #28]
  c6:	18cb      	adds	r3, r1, r3
  c8:	f420 7080 	bic.w	r0, r0, #256	; 0x100
  cc:	9001      	str	r0, [sp, #4]
  ce:	b209      	sxth	r1, r1
  d0:	a805      	add	r0, sp, #20
  d2:	b212      	sxth	r2, r2
  d4:	b21b      	sxth	r3, r3
  d6:	9502      	str	r5, [sp, #8]
  d8:	f7ff fffe 	bl	0 <drawWidget>
  dc:	f894 3020 	ldrb.w	r3, [r4, #32]
  e0:	1f1a      	subs	r2, r3, #4
  e2:	b2d2      	uxtb	r2, r2
  e4:	2a01      	cmp	r2, #1
  e6:	d861      	bhi.n	1ac <drawWidget+0x1ac>
  e8:	2b04      	cmp	r3, #4
  ea:	d102      	bne.n	f2 <drawWidget+0xf2>
  ec:	2001      	movs	r0, #1
  ee:	4966      	ldr	r1, [pc, #408]	; (288 <drawWidget+0x288>)
  f0:	e001      	b.n	f6 <drawWidget+0xf6>
  f2:	4966      	ldr	r1, [pc, #408]	; (28c <drawWidget+0x28c>)
  f4:	2001      	movs	r0, #1
  f6:	f7ff fffe 	bl	0 <print>
  fa:	69e3      	ldr	r3, [r4, #28]
  fc:	f413 7f80 	tst.w	r3, #256	; 0x100
 100:	d02c      	beq.n	15c <drawWidget+0x15c>
 102:	2001      	movs	r0, #1
 104:	4962      	ldr	r1, [pc, #392]	; (290 <drawWidget+0x290>)
 106:	f7ff fffe 	bl	0 <print>
 10a:	2001      	movs	r0, #1
 10c:	4961      	ldr	r1, [pc, #388]	; (294 <drawWidget+0x294>)
 10e:	f89d 2010 	ldrb.w	r2, [sp, #16]
 112:	f7ff fffe 	bl	0 <print>
 116:	2001      	movs	r0, #1
 118:	495f      	ldr	r1, [pc, #380]	; (298 <drawWidget+0x298>)
 11a:	f89d 2011 	ldrb.w	r2, [sp, #17]
 11e:	f7ff fffe 	bl	0 <print>
 122:	2001      	movs	r0, #1
 124:	495d      	ldr	r1, [pc, #372]	; (29c <drawWidget+0x29c>)
 126:	f89d 2012 	ldrb.w	r2, [sp, #18]
 12a:	f7ff fffe 	bl	0 <print>
 12e:	8aa3      	ldrh	r3, [r4, #20]
 130:	f8b4 e018 	ldrh.w	lr, [r4, #24]
 134:	8ae0      	ldrh	r0, [r4, #22]
 136:	1c59      	adds	r1, r3, #1
 138:	4473      	add	r3, lr
 13a:	f8b4 e01a 	ldrh.w	lr, [r4, #26]
 13e:	1c42      	adds	r2, r0, #1
 140:	4470      	add	r0, lr
 142:	3801      	subs	r0, #1
 144:	b200      	sxth	r0, r0
 146:	9000      	str	r0, [sp, #0]
 148:	69e0      	ldr	r0, [r4, #28]
 14a:	3b01      	subs	r3, #1
 14c:	9001      	str	r0, [sp, #4]
 14e:	b209      	sxth	r1, r1
 150:	a804      	add	r0, sp, #16
 152:	b212      	sxth	r2, r2
 154:	b21b      	sxth	r3, r3
 156:	9502      	str	r5, [sp, #8]
 158:	f7ff fffe 	bl	0 <drawWidget>
 15c:	69e3      	ldr	r3, [r4, #28]
 15e:	f413 3f80 	tst.w	r3, #65536	; 0x10000
 162:	f000 81c9 	beq.w	4f8 <drawWidget+0x4f8>
 166:	2001      	movs	r0, #1
 168:	494d      	ldr	r1, [pc, #308]	; (2a0 <drawWidget+0x2a0>)
 16a:	f7ff fffe 	bl	0 <print>
 16e:	6833      	ldr	r3, [r6, #0]
 170:	6a60      	ldr	r0, [r4, #36]	; 0x24
 172:	89dd      	ldrh	r5, [r3, #14]
 174:	f8b4 801a 	ldrh.w	r8, [r4, #26]
 178:	8b26      	ldrh	r6, [r4, #24]
 17a:	f7ff fffe 	bl	0 <len>
 17e:	ebc5 0808 	rsb	r8, r5, r8
 182:	f1c5 0507 	rsb	r5, r5, #7
 186:	fb05 6500 	mla	r5, r5, r0, r6
 18a:	eb05 75d5 	add.w	r5, r5, r5, lsr #31
 18e:	106f      	asrs	r7, r5, #1
 190:	3702      	adds	r7, #2
 192:	b2bf      	uxth	r7, r7
 194:	eb08 78d8 	add.w	r8, r8, r8, lsr #31
 198:	ea4f 0868 	mov.w	r8, r8, asr #1
 19c:	2001      	movs	r0, #1
 19e:	4941      	ldr	r1, [pc, #260]	; (2a4 <drawWidget+0x2a4>)
 1a0:	463a      	mov	r2, r7
 1a2:	fa1f f888 	uxth.w	r8, r8
 1a6:	f7ff fffe 	bl	0 <print>
 1aa:	e1a5      	b.n	4f8 <drawWidget+0x4f8>
 1ac:	2b07      	cmp	r3, #7
 1ae:	f040 8083 	bne.w	2b8 <drawWidget+0x2b8>
 1b2:	2001      	movs	r0, #1
 1b4:	493c      	ldr	r1, [pc, #240]	; (2a8 <drawWidget+0x2a8>)
 1b6:	f7ff fffe 	bl	0 <print>
 1ba:	8aa1      	ldrh	r1, [r4, #20]
 1bc:	8ae2      	ldrh	r2, [r4, #22]
 1be:	8b60      	ldrh	r0, [r4, #26]
 1c0:	9502      	str	r5, [sp, #8]
 1c2:	1843      	adds	r3, r0, r1
 1c4:	1880      	adds	r0, r0, r2
 1c6:	b200      	sxth	r0, r0
 1c8:	9000      	str	r0, [sp, #0]
 1ca:	69e0      	ldr	r0, [r4, #28]
 1cc:	b21b      	sxth	r3, r3
 1ce:	9001      	str	r0, [sp, #4]
 1d0:	b209      	sxth	r1, r1
 1d2:	a805      	add	r0, sp, #20
 1d4:	b212      	sxth	r2, r2
 1d6:	f7ff fffe 	bl	0 <drawWidget>
 1da:	6923      	ldr	r3, [r4, #16]
 1dc:	b333      	cbz	r3, 22c <drawWidget+0x22c>
 1de:	8ae5      	ldrh	r5, [r4, #22]
 1e0:	8b60      	ldrh	r0, [r4, #26]
 1e2:	8aa3      	ldrh	r3, [r4, #20]
 1e4:	0847      	lsrs	r7, r0, #1
 1e6:	1828      	adds	r0, r5, r0
 1e8:	3801      	subs	r0, #1
 1ea:	b200      	sxth	r0, r0
 1ec:	9000      	str	r0, [sp, #0]
 1ee:	69e0      	ldr	r0, [r4, #28]
 1f0:	1c59      	adds	r1, r3, #1
 1f2:	197a      	adds	r2, r7, r5
 1f4:	18fb      	adds	r3, r7, r3
 1f6:	9001      	str	r0, [sp, #4]
 1f8:	b209      	sxth	r1, r1
 1fa:	4620      	mov	r0, r4
 1fc:	b212      	sxth	r2, r2
 1fe:	b21b      	sxth	r3, r3
 200:	f7ff fffe 	bl	0 <drawWidget>
 204:	8b63      	ldrh	r3, [r4, #26]
 206:	8ae0      	ldrh	r0, [r4, #22]
 208:	8aa5      	ldrh	r5, [r4, #20]
 20a:	181a      	adds	r2, r3, r0
 20c:	3801      	subs	r0, #1
 20e:	b200      	sxth	r0, r0
 210:	eb05 0153 	add.w	r1, r5, r3, lsr #1
 214:	9000      	str	r0, [sp, #0]
 216:	18eb      	adds	r3, r5, r3
 218:	69e0      	ldr	r0, [r4, #28]
 21a:	3a01      	subs	r2, #1
 21c:	3b01      	subs	r3, #1
 21e:	9001      	str	r0, [sp, #4]
 220:	b209      	sxth	r1, r1
 222:	a805      	add	r0, sp, #20
 224:	b212      	sxth	r2, r2
 226:	b21b      	sxth	r3, r3
 228:	f7ff fffe 	bl	0 <drawWidget>
 22c:	6833      	ldr	r3, [r6, #0]
 22e:	8b62      	ldrh	r2, [r4, #26]
 230:	f8b3 800e 	ldrh.w	r8, [r3, #14]
 234:	2001      	movs	r0, #1
 236:	ebc8 0802 	rsb	r8, r8, r2
 23a:	491c      	ldr	r1, [pc, #112]	; (2ac <drawWidget+0x2ac>)
 23c:	eb08 78d8 	add.w	r8, r8, r8, lsr #31
 240:	1c97      	adds	r7, r2, #2
 242:	ea4f 0868 	mov.w	r8, r8, asr #1
 246:	f7ff fffe 	bl	0 <print>
 24a:	6833      	ldr	r3, [r6, #0]
 24c:	f108 0802 	add.w	r8, r8, #2
 250:	2001      	movs	r0, #1
 252:	89da      	ldrh	r2, [r3, #14]
 254:	b2bf      	uxth	r7, r7
 256:	fa1f f888 	uxth.w	r8, r8
 25a:	4915      	ldr	r1, [pc, #84]	; (58 <print+0x58>)
 25c:	f7ff fffe 	bl	0 <print>
 260:	2001      	movs	r0, #1
 262:	4914      	ldr	r1, [pc, #80]	; (2b4 <drawWidget+0x2b4>)
 264:	463a      	mov	r2, r7
 266:	4643      	mov	r3, r8
 268:	f7ff fffe 	bl	0 <print>
 26c:	e144      	b.n	4f8 <drawWidget+0x4f8>
 26e:	bf00      	nop
 270:	0000019d 	.word	0x0000019d
 274:	000001b1 	.word	0x000001b1
 278:	00000000 	.word	0x00000000
 27c:	000001bd 	.word	0x000001bd
 280:	000001c6 	.word	0x000001c6
 284:	000001cf 	.word	0x000001cf
 288:	000001d8 	.word	0x000001d8
 28c:	000001e1 	.word	0x000001e1
 290:	000001e9 	.word	0x000001e9
 294:	000001f8 	.word	0x000001f8
 298:	00000203 	.word	0x00000203
 29c:	0000020e 	.word	0x0000020e
 2a0:	00000219 	.word	0x00000219
 2a4:	00000223 	.word	0x00000223
 2a8:	0000022c 	.word	0x0000022c
 2ac:	00000237 	.word	0x00000237
 2b0:	0000024a 	.word	0x0000024a
 2b4:	0000025b 	.word	0x0000025b
 2b8:	2b0b      	cmp	r3, #11
 2ba:	d127      	bne.n	30c <drawWidget+0x30c>
 2bc:	2001      	movs	r0, #1
 2be:	4998      	ldr	r1, [pc, #608]	; (520 <drawWidget+0x520>)
 2c0:	f7ff fffe 	bl	0 <print>
 2c4:	8aa1      	ldrh	r1, [r4, #20]
 2c6:	8ae2      	ldrh	r2, [r4, #22]
 2c8:	8b60      	ldrh	r0, [r4, #26]
 2ca:	9502      	str	r5, [sp, #8]
 2cc:	1843      	adds	r3, r0, r1
 2ce:	1880      	adds	r0, r0, r2
 2d0:	b200      	sxth	r0, r0
 2d2:	9000      	str	r0, [sp, #0]
 2d4:	69e0      	ldr	r0, [r4, #28]
 2d6:	b209      	sxth	r1, r1
 2d8:	9001      	str	r0, [sp, #4]
 2da:	b212      	sxth	r2, r2
 2dc:	a805      	add	r0, sp, #20
 2de:	b21b      	sxth	r3, r3
 2e0:	f7ff fffe 	bl	0 <drawWidget>
 2e4:	8b22      	ldrh	r2, [r4, #24]
 2e6:	8aa3      	ldrh	r3, [r4, #20]
 2e8:	8b60      	ldrh	r0, [r4, #26]
 2ea:	18d3      	adds	r3, r2, r3
 2ec:	8ae2      	ldrh	r2, [r4, #22]
 2ee:	b29b      	uxth	r3, r3
 2f0:	1a19      	subs	r1, r3, r0
 2f2:	1810      	adds	r0, r2, r0
 2f4:	b200      	sxth	r0, r0
 2f6:	9000      	str	r0, [sp, #0]
 2f8:	69e0      	ldr	r0, [r4, #28]
 2fa:	b209      	sxth	r1, r1
 2fc:	9001      	str	r0, [sp, #4]
 2fe:	b212      	sxth	r2, r2
 300:	a805      	add	r0, sp, #20
 302:	b21b      	sxth	r3, r3
 304:	9502      	str	r5, [sp, #8]
 306:	f7ff fffe 	bl	0 <drawWidget>
 30a:	e0f5      	b.n	4f8 <drawWidget+0x4f8>
 30c:	2b0c      	cmp	r3, #12
 30e:	f040 80f3 	bne.w	4f8 <drawWidget+0x4f8>
 312:	2001      	movs	r0, #1
 314:	4983      	ldr	r1, [pc, #524]	; (524 <drawWidget+0x524>)
 316:	f7ff fffe 	bl	0 <print>
 31a:	8aa1      	ldrh	r1, [r4, #20]
 31c:	8ae2      	ldrh	r2, [r4, #22]
 31e:	8b60      	ldrh	r0, [r4, #26]
 320:	9502      	str	r5, [sp, #8]
 322:	1843      	adds	r3, r0, r1
 324:	1880      	adds	r0, r0, r2
 326:	b200      	sxth	r0, r0
 328:	9000      	str	r0, [sp, #0]
 32a:	69e0      	ldr	r0, [r4, #28]
 32c:	b209      	sxth	r1, r1
 32e:	9001      	str	r0, [sp, #4]
 330:	b212      	sxth	r2, r2
 332:	a805      	add	r0, sp, #20
 334:	b21b      	sxth	r3, r3
 336:	f7ff fffe 	bl	0 <drawWidget>
 33a:	8b22      	ldrh	r2, [r4, #24]
 33c:	8aa3      	ldrh	r3, [r4, #20]
 33e:	8b60      	ldrh	r0, [r4, #26]
 340:	18d3      	adds	r3, r2, r3
 342:	8ae2      	ldrh	r2, [r4, #22]
 344:	b29b      	uxth	r3, r3
 346:	1a19      	subs	r1, r3, r0
 348:	1810      	adds	r0, r2, r0
 34a:	b200      	sxth	r0, r0
 34c:	9000      	str	r0, [sp, #0]
 34e:	69e0      	ldr	r0, [r4, #28]
 350:	b209      	sxth	r1, r1
 352:	9001      	str	r0, [sp, #4]
 354:	b212      	sxth	r2, r2
 356:	a805      	add	r0, sp, #20
 358:	b21b      	sxth	r3, r3
 35a:	9502      	str	r5, [sp, #8]
 35c:	f7ff fffe 	bl	0 <drawWidget>
 360:	f8b4 e016 	ldrh.w	lr, [r4, #22]
 364:	8b60      	ldrh	r0, [r4, #26]
 366:	8aa3      	ldrh	r3, [r4, #20]
 368:	086e      	lsrs	r6, r5, #1
 36a:	eb0e 0250 	add.w	r2, lr, r0, lsr #1
 36e:	1c99      	adds	r1, r3, #2
 370:	181b      	adds	r3, r3, r0
 372:	4470      	add	r0, lr
 374:	1b80      	subs	r0, r0, r6
 376:	b200      	sxth	r0, r0
 378:	9000      	str	r0, [sp, #0]
 37a:	69e0      	ldr	r0, [r4, #28]
 37c:	3b04      	subs	r3, #4
 37e:	9001      	str	r0, [sp, #4]
 380:	b209      	sxth	r1, r1
 382:	a805      	add	r0, sp, #20
 384:	b212      	sxth	r2, r2
 386:	b21b      	sxth	r3, r3
 388:	f7ff fffe 	bl	0 <drawWidget>
 38c:	8ae0      	ldrh	r0, [r4, #22]
 38e:	8b63      	ldrh	r3, [r4, #26]
 390:	f8b4 e014 	ldrh.w	lr, [r4, #20]
 394:	eb00 0253 	add.w	r2, r0, r3, lsr #1
 398:	1830      	adds	r0, r6, r0
 39a:	b200      	sxth	r0, r0
 39c:	4473      	add	r3, lr
 39e:	9000      	str	r0, [sp, #0]
 3a0:	69e0      	ldr	r0, [r4, #28]
 3a2:	f10e 0102 	add.w	r1, lr, #2
 3a6:	3b04      	subs	r3, #4
 3a8:	9001      	str	r0, [sp, #4]
 3aa:	b209      	sxth	r1, r1
 3ac:	a805      	add	r0, sp, #20
 3ae:	b212      	sxth	r2, r2
 3b0:	b21b      	sxth	r3, r3
 3b2:	f7ff fffe 	bl	0 <drawWidget>
 3b6:	8ae3      	ldrh	r3, [r4, #22]
 3b8:	8b62      	ldrh	r2, [r4, #26]
 3ba:	8aa1      	ldrh	r1, [r4, #20]
 3bc:	a805      	add	r0, sp, #20
 3be:	1851      	adds	r1, r2, r1
 3c0:	18d2      	adds	r2, r2, r3
 3c2:	18f3      	adds	r3, r6, r3
 3c4:	b21b      	sxth	r3, r3
 3c6:	9300      	str	r3, [sp, #0]
 3c8:	3904      	subs	r1, #4
 3ca:	69e3      	ldr	r3, [r4, #28]
 3cc:	b209      	sxth	r1, r1
 3ce:	1b92      	subs	r2, r2, r6
 3d0:	9301      	str	r3, [sp, #4]
 3d2:	b212      	sxth	r2, r2
 3d4:	460b      	mov	r3, r1
 3d6:	f7ff fffe 	bl	0 <drawWidget>
 3da:	8b22      	ldrh	r2, [r4, #24]
 3dc:	8aa3      	ldrh	r3, [r4, #20]
 3de:	f8b4 e016 	ldrh.w	lr, [r4, #22]
 3e2:	8b60      	ldrh	r0, [r4, #26]
 3e4:	18d3      	adds	r3, r2, r3
 3e6:	b29b      	uxth	r3, r3
 3e8:	eb0e 0250 	add.w	r2, lr, r0, lsr #1
 3ec:	1f19      	subs	r1, r3, #4
 3ee:	1a1b      	subs	r3, r3, r0
 3f0:	4470      	add	r0, lr
 3f2:	1b80      	subs	r0, r0, r6
 3f4:	b200      	sxth	r0, r0
 3f6:	9000      	str	r0, [sp, #0]
 3f8:	69e0      	ldr	r0, [r4, #28]
 3fa:	3304      	adds	r3, #4
 3fc:	9001      	str	r0, [sp, #4]
 3fe:	b209      	sxth	r1, r1
 400:	a805      	add	r0, sp, #20
 402:	b212      	sxth	r2, r2
 404:	b21b      	sxth	r3, r3
 406:	f7ff fffe 	bl	0 <drawWidget>
 40a:	f8b4 e018 	ldrh.w	lr, [r4, #24]
 40e:	8aa3      	ldrh	r3, [r4, #20]
 410:	8ae0      	ldrh	r0, [r4, #22]
 412:	4473      	add	r3, lr
 414:	f8b4 e01a 	ldrh.w	lr, [r4, #26]
 418:	b29b      	uxth	r3, r3
 41a:	eb00 025e 	add.w	r2, r0, lr, lsr #1
 41e:	1830      	adds	r0, r6, r0
 420:	b200      	sxth	r0, r0
 422:	1f19      	subs	r1, r3, #4
 424:	9000      	str	r0, [sp, #0]
 426:	ebce 0303 	rsb	r3, lr, r3
 42a:	69e0      	ldr	r0, [r4, #28]
 42c:	3304      	adds	r3, #4
 42e:	9001      	str	r0, [sp, #4]
 430:	b209      	sxth	r1, r1
 432:	a805      	add	r0, sp, #20
 434:	b212      	sxth	r2, r2
 436:	b21b      	sxth	r3, r3
 438:	f7ff fffe 	bl	0 <drawWidget>
 43c:	8aa0      	ldrh	r0, [r4, #20]
 43e:	8b21      	ldrh	r1, [r4, #24]
 440:	8ae3      	ldrh	r3, [r4, #22]
 442:	8b62      	ldrh	r2, [r4, #26]
 444:	1841      	adds	r1, r0, r1
 446:	3104      	adds	r1, #4
 448:	1a89      	subs	r1, r1, r2
 44a:	18d2      	adds	r2, r2, r3
 44c:	18f3      	adds	r3, r6, r3
 44e:	b21b      	sxth	r3, r3
 450:	9300      	str	r3, [sp, #0]
 452:	69e3      	ldr	r3, [r4, #28]
 454:	b209      	sxth	r1, r1
 456:	1b92      	subs	r2, r2, r6
 458:	9301      	str	r3, [sp, #4]
 45a:	a805      	add	r0, sp, #20
 45c:	460b      	mov	r3, r1
 45e:	b212      	sxth	r2, r2
 460:	f7ff fffe 	bl	0 <drawWidget>
 464:	6923      	ldr	r3, [r4, #16]
 466:	b133      	cbz	r3, 476 <drawWidget+0x476>
 468:	8b26      	ldrh	r6, [r4, #24]
 46a:	2264      	movs	r2, #100	; 0x64
 46c:	fbb2 f3f3 	udiv	r3, r2, r3
 470:	fbb6 f6f3 	udiv	r6, r6, r3
 474:	e000      	b.n	478 <drawWidget+0x478>
 476:	8b66      	ldrh	r6, [r4, #26]
 478:	8b60      	ldrh	r0, [r4, #26]
 47a:	8ae2      	ldrh	r2, [r4, #22]
 47c:	0843      	lsrs	r3, r0, #1
 47e:	1810      	adds	r0, r2, r0
 480:	b200      	sxth	r0, r0
 482:	9000      	str	r0, [sp, #0]
 484:	69e0      	ldr	r0, [r4, #28]
 486:	1af1      	subs	r1, r6, r3
 488:	18f3      	adds	r3, r6, r3
 48a:	9001      	str	r0, [sp, #4]
 48c:	b209      	sxth	r1, r1
 48e:	a805      	add	r0, sp, #20
 490:	b212      	sxth	r2, r2
 492:	b21b      	sxth	r3, r3
 494:	9502      	str	r5, [sp, #8]
 496:	f7ff fffe 	bl	0 <drawWidget>
 49a:	8ae3      	ldrh	r3, [r4, #22]
 49c:	8b60      	ldrh	r0, [r4, #26]
 49e:	1d1a      	adds	r2, r3, #4
 4a0:	181b      	adds	r3, r3, r0
 4a2:	3b04      	subs	r3, #4
 4a4:	b21b      	sxth	r3, r3
 4a6:	9300      	str	r3, [sp, #0]
 4a8:	69e3      	ldr	r3, [r4, #28]
 4aa:	b231      	sxth	r1, r6
 4ac:	9301      	str	r3, [sp, #4]
 4ae:	a805      	add	r0, sp, #20
 4b0:	460b      	mov	r3, r1
 4b2:	b212      	sxth	r2, r2
 4b4:	f7ff fffe 	bl	0 <drawWidget>
 4b8:	8ae3      	ldrh	r3, [r4, #22]
 4ba:	8b60      	ldrh	r0, [r4, #26]
 4bc:	1d9a      	adds	r2, r3, #6
 4be:	181b      	adds	r3, r3, r0
 4c0:	3b06      	subs	r3, #6
 4c2:	b21b      	sxth	r3, r3
 4c4:	1f31      	subs	r1, r6, #4
 4c6:	9300      	str	r3, [sp, #0]
 4c8:	69e3      	ldr	r3, [r4, #28]
 4ca:	b209      	sxth	r1, r1
 4cc:	9301      	str	r3, [sp, #4]
 4ce:	a805      	add	r0, sp, #20
 4d0:	460b      	mov	r3, r1
 4d2:	b212      	sxth	r2, r2
 4d4:	f7ff fffe 	bl	0 <drawWidget>
 4d8:	8ae3      	ldrh	r3, [r4, #22]
 4da:	8b60      	ldrh	r0, [r4, #26]
 4dc:	1d9a      	adds	r2, r3, #6
 4de:	181b      	adds	r3, r3, r0
 4e0:	3b06      	subs	r3, #6
 4e2:	b21b      	sxth	r3, r3
 4e4:	3604      	adds	r6, #4
 4e6:	9300      	str	r3, [sp, #0]
 4e8:	69e3      	ldr	r3, [r4, #28]
 4ea:	b231      	sxth	r1, r6
 4ec:	9301      	str	r3, [sp, #4]
 4ee:	a805      	add	r0, sp, #20
 4f0:	b212      	sxth	r2, r2
 4f2:	460b      	mov	r3, r1
 4f4:	f7ff fffe 	bl	0 <drawWidget>
 4f8:	69e3      	ldr	r3, [r4, #28]
 4fa:	f413 1f80 	tst.w	r3, #1048576	; 0x100000
 4fe:	d01c      	beq.n	53a <drawWidget+0x53a>
 500:	6a63      	ldr	r3, [r4, #36]	; 0x24
 502:	b18b      	cbz	r3, 528 <drawWidget+0x528>
 504:	8aa3      	ldrh	r3, [r4, #20]
 506:	18ff      	adds	r7, r7, r3
 508:	8ae3      	ldrh	r3, [r4, #22]
 50a:	b2b8      	uxth	r0, r7
 50c:	4498      	add	r8, r3
 50e:	fa1f f188 	uxth.w	r1, r8
 512:	f7ff fffe 	bl	0 <drawWidget>
 516:	6a61      	ldr	r1, [r4, #36]	; 0x24
 518:	2003      	movs	r0, #3
 51a:	f7ff fffe 	bl	0 <print>
 51e:	e00c      	b.n	1c <drawWidget+0x1c>
 520:	0000026c 	.word	0x0000026c
 524:	00000276 	.word	0x00000276
 528:	8aa0      	ldrh	r0, [r4, #20]
 52a:	8ae1      	ldrh	r1, [r4, #22]
 52c:	f7ff fffe 	bl	0 <drawWidget>
 530:	2003      	movs	r0, #3
 532:	4903      	ldr	r1, [pc, #12]	; (540 <drawWidget+0x540>)
 534:	6922      	ldr	r2, [r4, #16]
 536:	f7ff fffe 	bl	0 <print>
 53a:	b006      	add	sp, #24
 53c:	e8bd 81f0 	ldmia.w	sp!, {r4, r5, r6, r7, r8, pc}
 540:	00000280 	.word	0x00000280

Disassembly of section .text.drawForms:

00000000 <drawForms>:
drawForms():
   0:	41f3e92d 	.word	0x41f3e92d
   4:	2500      	movs	r5, #0
   6:	e04d      	b.n	a4 <drawForms+0xa4>
   8:	2448      	movs	r4, #72	; 0x48
   a:	4f29      	ldr	r7, [pc, #164]	; (b0 <drawForms+0xb0>)
   c:	436c      	muls	r4, r5
   e:	2001      	movs	r0, #1
  10:	4928      	ldr	r1, [pc, #160]	; (b4 <drawForms+0xb4>)
  12:	462a      	mov	r2, r5
  14:	f7ff fffe 	bl	0 <print>
  18:	683b      	ldr	r3, [r7, #0]
  1a:	2001      	movs	r0, #1
  1c:	191b      	adds	r3, r3, r4
  1e:	8c1a      	ldrh	r2, [r3, #32]
  20:	4925      	ldr	r1, [pc, #148]	; (b8 <drawForms+0xb8>)
  22:	f7ff fffe 	bl	0 <print>
  26:	683b      	ldr	r3, [r7, #0]
  28:	2001      	movs	r0, #1
  2a:	191b      	adds	r3, r3, r4
  2c:	8b1a      	ldrh	r2, [r3, #24]
  2e:	4923      	ldr	r1, [pc, #140]	; (bc <drawForms+0xbc>)
  30:	8b5b      	ldrh	r3, [r3, #26]
  32:	f7ff fffe 	bl	0 <print>
  36:	683b      	ldr	r3, [r7, #0]
  38:	2001      	movs	r0, #1
  3a:	191b      	adds	r3, r3, r4
  3c:	8b9a      	ldrh	r2, [r3, #28]
  3e:	4920      	ldr	r1, [pc, #128]	; (c0 <drawForms+0xc0>)
  40:	8bdb      	ldrh	r3, [r3, #30]
  42:	f7ff fffe 	bl	0 <print>
  46:	6838      	ldr	r0, [r7, #0]
  48:	46b8      	mov	r8, r7
  4a:	1900      	adds	r0, r0, r4
  4c:	8b01      	ldrh	r1, [r0, #24]
  4e:	8b42      	ldrh	r2, [r0, #26]
  50:	8b83      	ldrh	r3, [r0, #28]
  52:	8bc6      	ldrh	r6, [r0, #30]
  54:	18cb      	adds	r3, r1, r3
  56:	1996      	adds	r6, r2, r6
  58:	b2b6      	uxth	r6, r6
  5a:	b29b      	uxth	r3, r3
  5c:	9600      	str	r6, [sp, #0]
  5e:	f7ff fffe 	bl	0 <drawForms>
  62:	2600      	movs	r6, #0
  64:	e016      	b.n	94 <drawForms+0x94>
  66:	2748      	movs	r7, #72	; 0x48
  68:	4377      	muls	r7, r6
  6a:	6adb      	ldr	r3, [r3, #44]	; 0x2c
  6c:	4a15      	ldr	r2, [pc, #84]	; (c4 <drawForms+0xc4>)
  6e:	f64a 21aa 	movw	r1, #43690	; 0xaaaa
  72:	19db      	adds	r3, r3, r7
  74:	6011      	str	r1, [r2, #0]
  76:	2001      	movs	r0, #1
  78:	4632      	mov	r2, r6
  7a:	4913      	ldr	r1, [pc, #76]	; (c8 <drawForms+0xc8>)
  7c:	6a5b      	ldr	r3, [r3, #36]	; 0x24
  7e:	f7ff fffe 	bl	0 <print>
  82:	4b0b      	ldr	r3, [pc, #44]	; (b0 <drawForms+0xb0>)
  84:	3601      	adds	r6, #1
  86:	681b      	ldr	r3, [r3, #0]
  88:	b2b6      	uxth	r6, r6
  8a:	191b      	adds	r3, r3, r4
  8c:	6ad8      	ldr	r0, [r3, #44]	; 0x2c
  8e:	19c0      	adds	r0, r0, r7
  90:	f7ff fffe 	bl	0 <drawForms>
  94:	f8d8 3000 	ldr.w	r3, [r8]
  98:	191b      	adds	r3, r3, r4
  9a:	8c1a      	ldrh	r2, [r3, #32]
  9c:	42b2      	cmp	r2, r6
  9e:	d8e2      	bhi.n	66 <drawForms+0x66>
  a0:	3501      	adds	r5, #1
  a2:	b2ad      	uxth	r5, r5
  a4:	4b09      	ldr	r3, [pc, #36]	; (cc <drawForms+0xcc>)
  a6:	795b      	ldrb	r3, [r3, #5]
  a8:	42ab      	cmp	r3, r5
  aa:	d8ad      	bhi.n	8 <drawForms+0x8>
  ac:	e8bd 81fc 	ldmia.w	sp!, {r2, r3, r4, r5, r6, r7, r8, pc}
  b0:	00000000 	.word	0x00000000
  b4:	00000283 	.word	0x00000283
  b8:	00000295 	.word	0x00000295
  bc:	0000029f 	.word	0x0000029f
  c0:	000002ac 	.word	0x000002ac
  c4:	40003000 	.word	0x40003000
  c8:	000002c2 	.word	0x000002c2
  cc:	00000000 	.word	0x00000000

Disassembly of section .text.formEventHandler:

00000000 <formEventHandler>:
formEventHandler():
   0:	b570      	push	{r4, r5, r6, lr}
   2:	4604      	mov	r4, r0
   4:	2001      	movs	r0, #1
   6:	4950      	ldr	r1, [pc, #320]	; (148 <formEventHandler+0x148>)
   8:	4622      	mov	r2, r4
   a:	f7ff fffe 	bl	0 <print>
   e:	f7ff fffe 	bl	0 <formEventHandler>
  12:	4605      	mov	r5, r0
  14:	b910      	cbnz	r0, 1c <formEventHandler+0x1c>
  16:	2001      	movs	r0, #1
  18:	494c      	ldr	r1, [pc, #304]	; (14c <formEventHandler+0x14c>)
  1a:	e090      	b.n	13e <formEventHandler+0x13e>
  1c:	2c0d      	cmp	r4, #13
  1e:	d110      	bne.n	42 <formEventHandler+0x42>
  20:	2001      	movs	r0, #1
  22:	494b      	ldr	r1, [pc, #300]	; (150 <formEventHandler+0x150>)
  24:	f7ff fffe 	bl	0 <print>
  28:	6aab      	ldr	r3, [r5, #40]	; 0x28
  2a:	2b00      	cmp	r3, #0
  2c:	f040 8083 	bne.w	136 <formEventHandler+0x136>
  30:	2001      	movs	r0, #1
  32:	4948      	ldr	r1, [pc, #288]	; (154 <formEventHandler+0x154>)
  34:	f7ff fffe 	bl	0 <print>
  38:	4628      	mov	r0, r5
  3a:	e8bd 4070 	ldmia.w	sp!, {r4, r5, r6, lr}
  3e:	f7ff bffe 	b.w	0 <formEventHandler>
  42:	2c01      	cmp	r4, #1
  44:	d119      	bne.n	7a <formEventHandler+0x7a>
  46:	4620      	mov	r0, r4
  48:	4943      	ldr	r1, [pc, #268]	; (158 <formEventHandler+0x158>)
  4a:	f7ff fffe 	bl	0 <print>
  4e:	6aeb      	ldr	r3, [r5, #44]	; 0x2c
  50:	2b00      	cmp	r3, #0
  52:	d170      	bne.n	136 <formEventHandler+0x136>
  54:	4620      	mov	r0, r4
  56:	493f      	ldr	r1, [pc, #252]	; (154 <formEventHandler+0x154>)
  58:	f7ff fffe 	bl	0 <print>
  5c:	4b3f      	ldr	r3, [pc, #252]	; (15c <formEventHandler+0x15c>)
  5e:	f893 3044 	ldrb.w	r3, [r3, #68]	; 0x44
  62:	3b03      	subs	r3, #3
  64:	b2db      	uxtb	r3, r3
  66:	2b01      	cmp	r3, #1
  68:	d803      	bhi.n	72 <formEventHandler+0x72>
  6a:	e8bd 4070 	ldmia.w	sp!, {r4, r5, r6, lr}
  6e:	f7ff bffe 	b.w	0 <formEventHandler>
  72:	e8bd 4070 	ldmia.w	sp!, {r4, r5, r6, lr}
  76:	f7ff bffe 	b.w	0 <formEventHandler>
  7a:	2c0c      	cmp	r4, #12
  7c:	d102      	bne.n	84 <formEventHandler+0x84>
  7e:	2001      	movs	r0, #1
  80:	4937      	ldr	r1, [pc, #220]	; (160 <formEventHandler+0x160>)
  82:	e05c      	b.n	13e <formEventHandler+0x13e>
  84:	2c06      	cmp	r4, #6
  86:	d11b      	bne.n	c0 <formEventHandler+0xc0>
  88:	2001      	movs	r0, #1
  8a:	4936      	ldr	r1, [pc, #216]	; (164 <formEventHandler+0x164>)
  8c:	f7ff fffe 	bl	0 <print>
  90:	6b2b      	ldr	r3, [r5, #48]	; 0x30
  92:	b113      	cbz	r3, 9a <formEventHandler+0x9a>
  94:	4798      	blx	r3
  96:	3405      	adds	r4, #5
  98:	e7b4      	b.n	4 <formEventHandler+0x4>
  9a:	69eb      	ldr	r3, [r5, #28]
  9c:	200d      	movs	r0, #13
  9e:	f443 6380 	orr.w	r3, r3, #1024	; 0x400
  a2:	61eb      	str	r3, [r5, #28]
  a4:	f7ff fffe 	bl	0 <formEventHandler>
  a8:	482f      	ldr	r0, [pc, #188]	; (c0 <delay+0xc0>)
  aa:	f7ff fffe 	bl	0 <delay>
  ae:	69eb      	ldr	r3, [r5, #28]
  b0:	200d      	movs	r0, #13
  b2:	f423 6380 	bic.w	r3, r3, #1024	; 0x400
  b6:	61eb      	str	r3, [r5, #28]
  b8:	f7ff fffe 	bl	0 <formEventHandler>
  bc:	240b      	movs	r4, #11
  be:	e7a1      	b.n	4 <formEventHandler+0x4>
  c0:	2c08      	cmp	r4, #8
  c2:	d10e      	bne.n	e2 <formEventHandler+0xe2>
  c4:	2001      	movs	r0, #1
  c6:	4929      	ldr	r1, [pc, #164]	; (16c <formEventHandler+0x16c>)
  c8:	f7ff fffe 	bl	0 <print>
  cc:	6b6b      	ldr	r3, [r5, #52]	; 0x34
  ce:	2b00      	cmp	r3, #0
  d0:	d131      	bne.n	136 <formEventHandler+0x136>
  d2:	2001      	movs	r0, #1
  d4:	491f      	ldr	r1, [pc, #124]	; (154 <formEventHandler+0x154>)
  d6:	f7ff fffe 	bl	0 <print>
  da:	69eb      	ldr	r3, [r5, #28]
  dc:	f043 0302 	orr.w	r3, r3, #2
  e0:	e00e      	b.n	100 <formEventHandler+0x100>
  e2:	2c09      	cmp	r4, #9
  e4:	d10f      	bne.n	106 <formEventHandler+0x106>
  e6:	2001      	movs	r0, #1
  e8:	4921      	ldr	r1, [pc, #132]	; (170 <formEventHandler+0x170>)
  ea:	f7ff fffe 	bl	0 <print>
  ee:	6bab      	ldr	r3, [r5, #56]	; 0x38
  f0:	bb0b      	cbnz	r3, 136 <formEventHandler+0x136>
  f2:	2001      	movs	r0, #1
  f4:	4917      	ldr	r1, [pc, #92]	; (154 <formEventHandler+0x154>)
  f6:	f7ff fffe 	bl	0 <print>
  fa:	69eb      	ldr	r3, [r5, #28]
  fc:	f023 0302 	bic.w	r3, r3, #2
 100:	61eb      	str	r3, [r5, #28]
 102:	240d      	movs	r4, #13
 104:	e77e      	b.n	4 <formEventHandler+0x4>
 106:	2c0b      	cmp	r4, #11
 108:	d105      	bne.n	116 <formEventHandler+0x116>
 10a:	2001      	movs	r0, #1
 10c:	4919      	ldr	r1, [pc, #100]	; (174 <formEventHandler+0x174>)
 10e:	f7ff fffe 	bl	0 <print>
 112:	6beb      	ldr	r3, [r5, #60]	; 0x3c
 114:	e00e      	b.n	134 <formEventHandler+0x134>
 116:	2c0e      	cmp	r4, #14
 118:	d105      	bne.n	126 <formEventHandler+0x126>
 11a:	2001      	movs	r0, #1
 11c:	4916      	ldr	r1, [pc, #88]	; (178 <formEventHandler+0x178>)
 11e:	f7ff fffe 	bl	0 <print>
 122:	6c2b      	ldr	r3, [r5, #64]	; 0x40
 124:	e006      	b.n	134 <formEventHandler+0x134>
 126:	2c0f      	cmp	r4, #15
 128:	d10d      	bne.n	146 <formEventHandler+0x146>
 12a:	2001      	movs	r0, #1
 12c:	4913      	ldr	r1, [pc, #76]	; (17c <formEventHandler+0x17c>)
 12e:	f7ff fffe 	bl	0 <print>
 132:	6c6b      	ldr	r3, [r5, #68]	; 0x44
 134:	b10b      	cbz	r3, 13a <formEventHandler+0x13a>
 136:	4798      	blx	r3
 138:	bd70      	pop	{r4, r5, r6, pc}
 13a:	4906      	ldr	r1, [pc, #24]	; (154 <formEventHandler+0x154>)
 13c:	2001      	movs	r0, #1
 13e:	e8bd 4070 	ldmia.w	sp!, {r4, r5, r6, lr}
 142:	f7ff bffe 	b.w	0 <print>
 146:	bd70      	pop	{r4, r5, r6, pc}
 148:	000002d9 	.word	0x000002d9
 14c:	000002e8 	.word	0x000002e8
 150:	000002f8 	.word	0x000002f8
 154:	000002fe 	.word	0x000002fe
 158:	00000307 	.word	0x00000307
 15c:	00000000 	.word	0x00000000
 160:	00000312 	.word	0x00000312
 164:	0000031a 	.word	0x0000031a
 168:	0007a120 	.word	0x0007a120
 16c:	00000326 	.word	0x00000326
 170:	0000032f 	.word	0x0000032f
 174:	00000339 	.word	0x00000339
 178:	00000343 	.word	0x00000343
 17c:	0000034b 	.word	0x0000034b

Disassembly of section .text.eventSelected:

00000000 <eventSelected>:
eventSelected():
   0:	200b4b02 	.word	0x200b4b02
   4:	f883 0043 	strb.w	r0, [r3, #67]	; 0x43
   8:	f7ff bffe 	b.w	0 <eventSelected>
   c:	00000000 	.word	0x00000000

Disassembly of section .text.eventLostFocus:

00000000 <eventLostFocus>:
eventLostFocus():
   0:	4b02      	ldr	r3, [pc, #8]	; (c <eventLostFocus+0xc>)
   2:	2009      	movs	r0, #9
   4:	f883 0043 	strb.w	r0, [r3, #67]	; 0x43
   8:	f7ff bffe 	b.w	0 <eventLostFocus>
   c:	00000000 	.word	0x00000000

Disassembly of section .text.eventGotFocus:

00000000 <eventGotFocus>:
eventGotFocus():
   0:	4b02      	ldr	r3, [pc, #8]	; (c <eventGotFocus+0xc>)
   2:	2008      	movs	r0, #8
   4:	f883 0043 	strb.w	r0, [r3, #67]	; 0x43
   8:	f7ff bffe 	b.w	0 <eventGotFocus>
   c:	00000000 	.word	0x00000000

Disassembly of section .text.eventMouseClickRight:

00000000 <eventMouseClickRight>:
eventMouseClickRight():
   0:	4b04      	ldr	r3, [pc, #16]	; (14 <eventMouseClickRight+0x14>)
   2:	2006      	movs	r0, #6
   4:	2203      	movs	r2, #3
   6:	f883 0043 	strb.w	r0, [r3, #67]	; 0x43
   a:	f883 2044 	strb.w	r2, [r3, #68]	; 0x44
   e:	f7ff bffe 	b.w	0 <eventMouseClickRight>
  12:	bf00      	nop
  14:	00000000 	.word	0x00000000

Disassembly of section .text.eventMouseClickCenter:

00000000 <eventMouseClickCenter>:
eventMouseClickCenter():
   0:	4b04      	ldr	r3, [pc, #16]	; (14 <eventMouseClickCenter+0x14>)
   2:	2006      	movs	r0, #6
   4:	2202      	movs	r2, #2
   6:	f883 0043 	strb.w	r0, [r3, #67]	; 0x43
   a:	f883 2044 	strb.w	r2, [r3, #68]	; 0x44
   e:	f7ff bffe 	b.w	0 <eventMouseClickCenter>
  12:	bf00      	nop
  14:	00000000 	.word	0x00000000

Disassembly of section .text.eventMouseClickLeft:

00000000 <eventMouseClickLeft>:
eventMouseClickLeft():
   0:	4b04      	ldr	r3, [pc, #16]	; (14 <eventMouseClickLeft+0x14>)
   2:	2006      	movs	r0, #6
   4:	2201      	movs	r2, #1
   6:	f883 0043 	strb.w	r0, [r3, #67]	; 0x43
   a:	f883 2044 	strb.w	r2, [r3, #68]	; 0x44
   e:	f7ff bffe 	b.w	0 <eventMouseClickLeft>
  12:	bf00      	nop
  14:	00000000 	.word	0x00000000

Disassembly of section .text.eventMouseMoveRight:

00000000 <eventMouseMoveRight>:
eventMouseMoveRight():
   0:	b570      	push	{r4, r5, r6, lr}
   2:	4c09      	ldr	r4, [pc, #36]	; (28 <eventMouseMoveRight+0x28>)
   4:	8ea5      	ldrh	r5, [r4, #52]	; 0x34
   6:	f7ff fffe 	bl	0 <lcdGetWidth>
   a:	4285      	cmp	r5, r0
   c:	d202      	bcs.n	14 <eventMouseMoveRight+0x14>
   e:	8ea3      	ldrh	r3, [r4, #52]	; 0x34
  10:	3301      	adds	r3, #1
  12:	86a3      	strh	r3, [r4, #52]	; 0x34
  14:	2001      	movs	r0, #1
  16:	2305      	movs	r3, #5
  18:	f884 0043 	strb.w	r0, [r4, #67]	; 0x43
  1c:	f884 3044 	strb.w	r3, [r4, #68]	; 0x44
  20:	e8bd 4070 	ldmia.w	sp!, {r4, r5, r6, lr}
  24:	f7ff bffe 	b.w	0 <eventMouseMoveRight>
  28:	00000000 	.word	0x00000000

Disassembly of section .text.eventMouseMoveLeft:

00000000 <eventMouseMoveLeft>:
eventMouseMoveLeft():
   0:	8e9a4b06 	.word	0x8e9a4b06
   4:	b10a      	cbz	r2, a <eventMouseMoveLeft+0xa>
   6:	3a01      	subs	r2, #1
   8:	869a      	strh	r2, [r3, #52]	; 0x34
   a:	2001      	movs	r0, #1
   c:	2204      	movs	r2, #4
   e:	f883 0043 	strb.w	r0, [r3, #67]	; 0x43
  12:	f883 2044 	strb.w	r2, [r3, #68]	; 0x44
  16:	f7ff bffe 	b.w	0 <eventMouseMoveLeft>
  1a:	bf00      	nop
  1c:	00000000 	.word	0x00000000

Disassembly of section .text.eventMouseMoveDown:

00000000 <eventMouseMoveDown>:
eventMouseMoveDown():
   0:	b570      	push	{r4, r5, r6, lr}
   2:	4c0a      	ldr	r4, [pc, #40]	; (2c <eventMouseMoveDown+0x2c>)
   4:	8ee5      	ldrh	r5, [r4, #54]	; 0x36
   6:	f7ff fffe 	bl	0 <lcdGetHeight>
   a:	3801      	subs	r0, #1
   c:	4285      	cmp	r5, r0
   e:	da02      	bge.n	16 <eventMouseMoveDown+0x16>
  10:	8ee3      	ldrh	r3, [r4, #54]	; 0x36
  12:	3301      	adds	r3, #1
  14:	86e3      	strh	r3, [r4, #54]	; 0x36
  16:	2001      	movs	r0, #1
  18:	2302      	movs	r3, #2
  1a:	f884 0043 	strb.w	r0, [r4, #67]	; 0x43
  1e:	f884 3044 	strb.w	r3, [r4, #68]	; 0x44
  22:	e8bd 4070 	ldmia.w	sp!, {r4, r5, r6, lr}
  26:	f7ff bffe 	b.w	0 <eventMouseMoveDown>
  2a:	bf00      	nop
  2c:	00000000 	.word	0x00000000

Disassembly of section .text.eventMouseMoveUp:

00000000 <eventMouseMoveUp>:
eventMouseMoveUp():
   0:	8eda4b06 	.word	0x8eda4b06
   4:	b10a      	cbz	r2, a <eventMouseMoveUp+0xa>
   6:	3a01      	subs	r2, #1
   8:	86da      	strh	r2, [r3, #54]	; 0x36
   a:	2001      	movs	r0, #1
   c:	2203      	movs	r2, #3
   e:	f883 0043 	strb.w	r0, [r3, #67]	; 0x43
  12:	f883 2044 	strb.w	r2, [r3, #68]	; 0x44
  16:	f7ff bffe 	b.w	0 <eventMouseMoveUp>
  1a:	bf00      	nop
  1c:	00000000 	.word	0x00000000

Disassembly of section .text.eventMouseMove:

00000000 <eventMouseMove>:
eventMouseMove():
   0:	2001      	movs	r0, #1
   2:	f7ff bffe 	b.w	0 <eventMouseMove>

Disassembly of section .text.formFocusPrevious:

00000000 <formFocusPrevious>:
formFocusPrevious():
   0:	b570      	push	{r4, r5, r6, lr}
   2:	4e10      	ldr	r6, [pc, #64]	; (44 <formFocusPrevious+0x44>)
   4:	4d10      	ldr	r5, [pc, #64]	; (48 <formFocusPrevious+0x48>)
   6:	7973      	ldrb	r3, [r6, #5]
   8:	682a      	ldr	r2, [r5, #0]
   a:	3b01      	subs	r3, #1
   c:	2448      	movs	r4, #72	; 0x48
   e:	fb04 2303 	mla	r3, r4, r3, r2
  12:	8c1b      	ldrh	r3, [r3, #32]
  14:	b1ab      	cbz	r3, 42 <formFocusPrevious+0x42>
  16:	2001      	movs	r0, #1
  18:	490c      	ldr	r1, [pc, #48]	; (4c <formFocusPrevious+0x4c>)
  1a:	f7ff fffe 	bl	0 <print>
  1e:	2009      	movs	r0, #9
  20:	f7ff fffe 	bl	0 <formFocusPrevious>
  24:	7972      	ldrb	r2, [r6, #5]
  26:	682b      	ldr	r3, [r5, #0]
  28:	3a01      	subs	r2, #1
  2a:	fb04 3402 	mla	r4, r4, r2, r3
  2e:	8c63      	ldrh	r3, [r4, #34]	; 0x22
  30:	b903      	cbnz	r3, 34 <formFocusPrevious+0x34>
  32:	8c23      	ldrh	r3, [r4, #32]
  34:	3b01      	subs	r3, #1
  36:	2008      	movs	r0, #8
  38:	8463      	strh	r3, [r4, #34]	; 0x22
  3a:	e8bd 4070 	ldmia.w	sp!, {r4, r5, r6, lr}
  3e:	f7ff bffe 	b.w	0 <formFocusPrevious>
  42:	bd70      	pop	{r4, r5, r6, pc}
	...
  4c:	00000355 	.word	0x00000355

Disassembly of section .text.formFocusNext:

00000000 <formFocusNext>:
formFocusNext():
   0:	b570      	push	{r4, r5, r6, lr}
   2:	4e12      	ldr	r6, [pc, #72]	; (4c <formFocusNext+0x4c>)
   4:	4d12      	ldr	r5, [pc, #72]	; (50 <formFocusNext+0x50>)
   6:	7973      	ldrb	r3, [r6, #5]
   8:	682a      	ldr	r2, [r5, #0]
   a:	3b01      	subs	r3, #1
   c:	2448      	movs	r4, #72	; 0x48
   e:	fb04 2303 	mla	r3, r4, r3, r2
  12:	8c1b      	ldrh	r3, [r3, #32]
  14:	b1cb      	cbz	r3, 4a <formFocusNext+0x4a>
  16:	2001      	movs	r0, #1
  18:	490e      	ldr	r1, [pc, #56]	; (54 <formFocusNext+0x54>)
  1a:	f7ff fffe 	bl	0 <print>
  1e:	2009      	movs	r0, #9
  20:	f7ff fffe 	bl	0 <formFocusNext>
  24:	7972      	ldrb	r2, [r6, #5]
  26:	682b      	ldr	r3, [r5, #0]
  28:	3a01      	subs	r2, #1
  2a:	fb04 3402 	mla	r4, r4, r2, r3
  2e:	8c22      	ldrh	r2, [r4, #32]
  30:	8c63      	ldrh	r3, [r4, #34]	; 0x22
  32:	3a01      	subs	r2, #1
  34:	4293      	cmp	r3, r2
  36:	da01      	bge.n	3c <formFocusNext+0x3c>
  38:	3301      	adds	r3, #1
  3a:	e000      	b.n	3e <formFocusNext+0x3e>
  3c:	2300      	movs	r3, #0
  3e:	2008      	movs	r0, #8
  40:	8463      	strh	r3, [r4, #34]	; 0x22
  42:	e8bd 4070 	ldmia.w	sp!, {r4, r5, r6, lr}
  46:	f7ff bffe 	b.w	0 <formFocusNext>
  4a:	bd70      	pop	{r4, r5, r6, pc}
	...
  54:	00000365 	.word	0x00000365

Disassembly of section .text.formSetFocus:

00000000 <formSetFocus>:
formSetFocus():
   0:	4604b510 	.word	0x4604b510
   4:	2009      	movs	r0, #9
   6:	f7ff fffe 	bl	0 <formSetFocus>
   a:	4b08      	ldr	r3, [pc, #32]	; (2c <formSetFocus+0x2c>)
   c:	4a08      	ldr	r2, [pc, #32]	; (30 <formSetFocus+0x30>)
   e:	795b      	ldrb	r3, [r3, #5]
  10:	6812      	ldr	r2, [r2, #0]
  12:	2148      	movs	r1, #72	; 0x48
  14:	3b01      	subs	r3, #1
  16:	fb01 2303 	mla	r3, r1, r3, r2
  1a:	8c1a      	ldrh	r2, [r3, #32]
  1c:	42a2      	cmp	r2, r4
  1e:	bf28      	it	cs
  20:	845c      	strhcs	r4, [r3, #34]	; 0x22
  22:	2008      	movs	r0, #8
  24:	f7ff fffe 	bl	0 <formSetFocus>
  28:	2000      	movs	r0, #0
  2a:	bd10      	pop	{r4, pc}
	...

Disassembly of section .text.drawCircle:

00000000 <drawCircle>:
drawCircle():
   0:	b507      	push	{r0, r1, r2, lr}
   2:	9300      	str	r3, [sp, #0]
   4:	9b04      	ldr	r3, [sp, #16]
   6:	9301      	str	r3, [sp, #4]
   8:	230f      	movs	r3, #15
   a:	f7ff fffe 	bl	0 <drawCircle>
   e:	bd0e      	pop	{r1, r2, r3, pc}

Disassembly of section .text.drawSine:

00000000 <drawSine>:
drawSine():
   0:	4770      	bx	lr
