
C:\Users\MightyDubster\Documents\Projects\pygmyos.code\Gems\pygmy_com.o:     file format elf32-littlearm
C:\Users\MightyDubster\Documents\Projects\pygmyos.code\Gems\pygmy_com.o


Disassembly of section .text.i2cSetAddress:

00000000 <i2cSetAddress>:
i2cSetAddress():
   0:	4770      	bx	lr

Disassembly of section .text.comDisable:

00000000 <comDisable>:
comDisable():
   0:	2801      	cmp	r0, #1
   2:	d101      	bne.n	8 <comDisable+0x8>
   4:	4a0f      	ldr	r2, [pc, #60]	; (44 <comDisable+0x44>)
   6:	e002      	b.n	e <comDisable+0xe>
   8:	2802      	cmp	r0, #2
   a:	d10c      	bne.n	26 <comDisable+0x26>
   c:	4a0e      	ldr	r2, [pc, #56]	; (48 <comDisable+0x48>)
   e:	8993      	ldrh	r3, [r2, #12]
  10:	f423 5300 	bic.w	r3, r3, #8192	; 0x2000
  14:	041b      	lsls	r3, r3, #16
  16:	0c1b      	lsrs	r3, r3, #16
  18:	8193      	strh	r3, [r2, #12]
  1a:	4b0c      	ldr	r3, [pc, #48]	; (4c <comDisable+0x4c>)
  1c:	699a      	ldr	r2, [r3, #24]
  1e:	f422 4280 	bic.w	r2, r2, #16384	; 0x4000
  22:	619a      	str	r2, [r3, #24]
  24:	4770      	bx	lr
  26:	2803      	cmp	r0, #3
  28:	d10b      	bne.n	42 <comDisable+0x42>
  2a:	4a09      	ldr	r2, [pc, #36]	; (50 <comDisable+0x50>)
  2c:	8993      	ldrh	r3, [r2, #12]
  2e:	f423 5300 	bic.w	r3, r3, #8192	; 0x2000
  32:	041b      	lsls	r3, r3, #16
  34:	0c1b      	lsrs	r3, r3, #16
  36:	8193      	strh	r3, [r2, #12]
  38:	4b04      	ldr	r3, [pc, #16]	; (4c <comDisable+0x4c>)
  3a:	699a      	ldr	r2, [r3, #24]
  3c:	f422 4280 	bic.w	r2, r2, #16384	; 0x4000
  40:	619a      	str	r2, [r3, #24]
  42:	4770      	bx	lr
  44:	40013800 	.word	0x40013800
  48:	40004400 	.word	0x40004400
  4c:	40021000 	.word	0x40021000
  50:	40004800 	.word	0x40004800

Disassembly of section .text.comEnable:

00000000 <comEnable>:
comEnable():
   0:	2801      	cmp	r0, #1
   2:	d106      	bne.n	12 <comEnable+0x12>
   4:	4b11      	ldr	r3, [pc, #68]	; (4c <comEnable+0x4c>)
   6:	699a      	ldr	r2, [r3, #24]
   8:	f442 4280 	orr.w	r2, r2, #16384	; 0x4000
   c:	619a      	str	r2, [r3, #24]
   e:	4b10      	ldr	r3, [pc, #64]	; (50 <comEnable+0x50>)
  10:	e007      	b.n	22 <comEnable+0x22>
  12:	2802      	cmp	r0, #2
  14:	d10b      	bne.n	2e <comEnable+0x2e>
  16:	4b0d      	ldr	r3, [pc, #52]	; (4c <comEnable+0x4c>)
  18:	699a      	ldr	r2, [r3, #24]
  1a:	f442 4280 	orr.w	r2, r2, #16384	; 0x4000
  1e:	619a      	str	r2, [r3, #24]
  20:	4b0c      	ldr	r3, [pc, #48]	; (54 <comEnable+0x54>)
  22:	899a      	ldrh	r2, [r3, #12]
  24:	b292      	uxth	r2, r2
  26:	f442 5200 	orr.w	r2, r2, #8192	; 0x2000
  2a:	819a      	strh	r2, [r3, #12]
  2c:	4770      	bx	lr
  2e:	2803      	cmp	r0, #3
  30:	d10a      	bne.n	48 <comEnable+0x48>
  32:	4b06      	ldr	r3, [pc, #24]	; (4c <comEnable+0x4c>)
  34:	699a      	ldr	r2, [r3, #24]
  36:	f442 4280 	orr.w	r2, r2, #16384	; 0x4000
  3a:	619a      	str	r2, [r3, #24]
  3c:	4b06      	ldr	r3, [pc, #24]	; (58 <comEnable+0x58>)
  3e:	899a      	ldrh	r2, [r3, #12]
  40:	b292      	uxth	r2, r2
  42:	f442 5200 	orr.w	r2, r2, #8192	; 0x2000
  46:	819a      	strh	r2, [r3, #12]
  48:	4770      	bx	lr
  4a:	bf00      	nop
  4c:	40021000 	.word	0x40021000
  50:	40013800 	.word	0x40013800
  54:	40004400 	.word	0x40004400
  58:	40004800 	.word	0x40004800

Disassembly of section .text.comGenerateBaud:

00000000 <comGenerateBaud>:
comGenerateBaud():
   0:	460cb510 	.word	0x460cb510
   4:	f7ff fffe 	bl	0 <sysGetMainClock>
   8:	4b08      	ldr	r3, [pc, #32]	; (2c <comGenerateBaud+0x2c>)
   a:	4298      	cmp	r0, r3
   c:	d002      	beq.n	14 <comGenerateBaud+0x14>
   e:	4b08      	ldr	r3, [pc, #32]	; (30 <comGenerateBaud+0x30>)
  10:	4298      	cmp	r0, r3
  12:	d100      	bne.n	16 <comGenerateBaud+0x16>
  14:	0880      	lsrs	r0, r0, #2
  16:	08c3      	lsrs	r3, r0, #3
  18:	fbb0 f0f4 	udiv	r0, r0, r4
  1c:	fbb3 f3f4 	udiv	r3, r3, r4
  20:	f000 0007 	and.w	r0, r0, #7
  24:	eb00 1003 	add.w	r0, r0, r3, lsl #4
  28:	b280      	uxth	r0, r0
  2a:	bd10      	pop	{r4, pc}
  2c:	044aa200 	.word	0x044aa200
  30:	02dc6c00 	.word	0x02dc6c00

Disassembly of section .text.comConfig:

00000000 <comConfig>:
comConfig():
   0:	2801      	cmp	r0, #1
   2:	b538      	push	{r3, r4, r5, lr}
   4:	4601      	mov	r1, r0
   6:	4614      	mov	r4, r2
   8:	461d      	mov	r5, r3
   a:	d13a      	bne.n	82 <comConfig+0x82>
   c:	4b31      	ldr	r3, [pc, #196]	; (d4 <comConfig+0xd4>)
   e:	2027      	movs	r0, #39	; 0x27
  10:	69da      	ldr	r2, [r3, #28]
  12:	f442 2280 	orr.w	r2, r2, #262144	; 0x40000
  16:	61da      	str	r2, [r3, #28]
  18:	699a      	ldr	r2, [r3, #24]
  1a:	f042 0208 	orr.w	r2, r2, #8
  1e:	619a      	str	r2, [r3, #24]
  20:	f7ff fffe 	bl	0 <interruptSetPriority>
  24:	2027      	movs	r0, #39	; 0x27
  26:	f7ff fffe 	bl	0 <interruptEnable>
  2a:	f014 0f01 	tst.w	r4, #1
  2e:	d008      	beq.n	42 <comConfig+0x42>
  30:	4b29      	ldr	r3, [pc, #164]	; (d8 <comConfig+0xd8>)
  32:	685a      	ldr	r2, [r3, #4]
  34:	f022 6270 	bic.w	r2, r2, #251658240	; 0xf000000
  38:	605a      	str	r2, [r3, #4]
  3a:	685a      	ldr	r2, [r3, #4]
  3c:	f042 6230 	orr.w	r2, r2, #184549376	; 0xb000000
  40:	605a      	str	r2, [r3, #4]
  42:	f014 0f02 	tst.w	r4, #2
  46:	d008      	beq.n	5a <comConfig+0x5a>
  48:	4b23      	ldr	r3, [pc, #140]	; (d8 <comConfig+0xd8>)
  4a:	685a      	ldr	r2, [r3, #4]
  4c:	f422 0270 	bic.w	r2, r2, #15728640	; 0xf00000
  50:	605a      	str	r2, [r3, #4]
  52:	685a      	ldr	r2, [r3, #4]
  54:	f442 0280 	orr.w	r2, r2, #4194304	; 0x400000
  58:	605a      	str	r2, [r3, #4]
  5a:	4b1f      	ldr	r3, [pc, #124]	; (d8 <comConfig+0xd8>)
  5c:	685a      	ldr	r2, [r3, #4]
  5e:	f422 6270 	bic.w	r2, r2, #3840	; 0xf00
  62:	605a      	str	r2, [r3, #4]
  64:	685a      	ldr	r2, [r3, #4]
  66:	f442 6230 	orr.w	r2, r2, #2816	; 0xb00
  6a:	605a      	str	r2, [r3, #4]
  6c:	685a      	ldr	r2, [r3, #4]
  6e:	f422 4270 	bic.w	r2, r2, #61440	; 0xf000
  72:	605a      	str	r2, [r3, #4]
  74:	685a      	ldr	r2, [r3, #4]
  76:	f442 4200 	orr.w	r2, r2, #32768	; 0x8000
  7a:	605a      	str	r2, [r3, #4]
  7c:	f44f 6200 	mov.w	r2, #2048	; 0x800
  80:	611a      	str	r2, [r3, #16]
  82:	4b16      	ldr	r3, [pc, #88]	; (dc <comConfig+0xdc>)
  84:	2200      	movs	r2, #0
  86:	f014 0f01 	tst.w	r4, #1
  8a:	829a      	strh	r2, [r3, #20]
  8c:	d004      	beq.n	98 <comConfig+0x98>
  8e:	8a9a      	ldrh	r2, [r3, #20]
  90:	b292      	uxth	r2, r2
  92:	f442 7280 	orr.w	r2, r2, #256	; 0x100
  96:	829a      	strh	r2, [r3, #20]
  98:	f014 0f02 	tst.w	r4, #2
  9c:	d005      	beq.n	aa <comConfig+0xaa>
  9e:	4b0f      	ldr	r3, [pc, #60]	; (dc <comConfig+0xdc>)
  a0:	8a9a      	ldrh	r2, [r3, #20]
  a2:	b292      	uxth	r2, r2
  a4:	f442 7200 	orr.w	r2, r2, #512	; 0x200
  a8:	829a      	strh	r2, [r3, #20]
  aa:	f7ff fffe 	bl	0 <sysGetMainClock>
  ae:	4629      	mov	r1, r5
  b0:	f7ff fffe 	bl	0 <comConfig>
  b4:	4b09      	ldr	r3, [pc, #36]	; (dc <comConfig+0xdc>)
  b6:	2200      	movs	r2, #0
  b8:	f014 0f10 	tst.w	r4, #16
  bc:	8118      	strh	r0, [r3, #8]
  be:	829a      	strh	r2, [r3, #20]
  c0:	bf14      	ite	ne
  c2:	f24a 02ac 	movwne	r2, #41132	; 0xa0ac
  c6:	f24a 022c 	movweq	r2, #41004	; 0xa02c
  ca:	819a      	strh	r2, [r3, #12]
  cc:	2200      	movs	r2, #0
  ce:	801a      	strh	r2, [r3, #0]
  d0:	bd38      	pop	{r3, r4, r5, pc}
  d2:	bf00      	nop
  d4:	40021000 	.word	0x40021000
  d8:	40010c00 	.word	0x40010c00
  dc:	40004800 	.word	0x40004800

Disassembly of section .text.parallelConfig:

00000000 <parallelConfig>:
parallelConfig():
   0:	e92d 4ff1 	stmdb	sp!, {r0, r4, r5, r6, r7, r8, r9, sl, fp, lr}
   4:	469a      	mov	sl, r3
   6:	460d      	mov	r5, r1
   8:	f89d 9028 	ldrb.w	r9, [sp, #40]	; 0x28
   c:	2103      	movs	r1, #3
   e:	4604      	mov	r4, r0
  10:	4610      	mov	r0, r2
  12:	4616      	mov	r6, r2
  14:	f89d 802c 	ldrb.w	r8, [sp, #44]	; 0x2c
  18:	f89d 7030 	ldrb.w	r7, [sp, #48]	; 0x30
  1c:	f7ff fffe 	bl	0 <pinConfig>
  20:	2103      	movs	r1, #3
  22:	4650      	mov	r0, sl
  24:	f7ff fffe 	bl	0 <pinConfig>
  28:	2103      	movs	r1, #3
  2a:	4648      	mov	r0, r9
  2c:	f7ff fffe 	bl	0 <pinConfig>
  30:	2103      	movs	r1, #3
  32:	4640      	mov	r0, r8
  34:	f7ff fffe 	bl	0 <pinConfig>
  38:	2d10      	cmp	r5, #16
  3a:	d802      	bhi.n	42 <parallelConfig+0x42>
  3c:	f884 5020 	strb.w	r5, [r4, #32]
  40:	e002      	b.n	48 <parallelConfig+0x48>
  42:	2308      	movs	r3, #8
  44:	f884 3020 	strb.w	r3, [r4, #32]
  48:	2300      	movs	r3, #0
  4a:	83e3      	strh	r3, [r4, #30]
  4c:	2500      	movs	r5, #0
  4e:	e00f      	b.n	70 <parallelConfig+0x70>
  50:	f007 030f 	and.w	r3, r7, #15
  54:	f85b 2023 	ldr.w	r2, [fp, r3, lsl #2]
  58:	8be3      	ldrh	r3, [r4, #30]
  5a:	4638      	mov	r0, r7
  5c:	ea42 0303 	orr.w	r3, r2, r3
  60:	83e3      	strh	r3, [r4, #30]
  62:	2103      	movs	r1, #3
  64:	f7ff fffe 	bl	0 <pinConfig>
  68:	3501      	adds	r5, #1
  6a:	3701      	adds	r7, #1
  6c:	b2ed      	uxtb	r5, r5
  6e:	b2ff      	uxtb	r7, r7
  70:	f894 3020 	ldrb.w	r3, [r4, #32]
  74:	f8df b088 	ldr.w	fp, [pc, #136]	; 100 <parallelConfig+0x100>
  78:	42ab      	cmp	r3, r5
  7a:	d8e9      	bhi.n	50 <parallelConfig+0x50>
  7c:	4630      	mov	r0, r6
  7e:	f7ff fffe 	bl	0 <pinGetPort>
  82:	6020      	str	r0, [r4, #0]
  84:	4650      	mov	r0, sl
  86:	f7ff fffe 	bl	0 <pinGetPort>
  8a:	6060      	str	r0, [r4, #4]
  8c:	4648      	mov	r0, r9
  8e:	f7ff fffe 	bl	0 <pinGetPort>
  92:	60a0      	str	r0, [r4, #8]
  94:	4640      	mov	r0, r8
  96:	f7ff fffe 	bl	0 <pinGetPort>
  9a:	60e0      	str	r0, [r4, #12]
  9c:	4638      	mov	r0, r7
  9e:	f7ff fffe 	bl	0 <pinGetPort>
  a2:	f006 030f 	and.w	r3, r6, #15
  a6:	f83b 3023 	ldrh.w	r3, [fp, r3, lsl #2]
  aa:	f007 070f 	and.w	r7, r7, #15
  ae:	82a3      	strh	r3, [r4, #20]
  b0:	f00a 030f 	and.w	r3, sl, #15
  b4:	f83b 3023 	ldrh.w	r3, [fp, r3, lsl #2]
  b8:	6120      	str	r0, [r4, #16]
  ba:	82e3      	strh	r3, [r4, #22]
  bc:	f009 030f 	and.w	r3, r9, #15
  c0:	f83b 3023 	ldrh.w	r3, [fp, r3, lsl #2]
  c4:	4630      	mov	r0, r6
  c6:	8323      	strh	r3, [r4, #24]
  c8:	f008 030f 	and.w	r3, r8, #15
  cc:	f83b 3023 	ldrh.w	r3, [fp, r3, lsl #2]
  d0:	f83b b027 	ldrh.w	fp, [fp, r7, lsl #2]
  d4:	8363      	strh	r3, [r4, #26]
  d6:	2101      	movs	r1, #1
  d8:	f8a4 b01c 	strh.w	fp, [r4, #28]
  dc:	f7ff fffe 	bl	0 <pinSet>
  e0:	4650      	mov	r0, sl
  e2:	2101      	movs	r1, #1
  e4:	f7ff fffe 	bl	0 <pinSet>
  e8:	4648      	mov	r0, r9
  ea:	2101      	movs	r1, #1
  ec:	f7ff fffe 	bl	0 <pinSet>
  f0:	4640      	mov	r0, r8
  f2:	2101      	movs	r1, #1
  f4:	b001      	add	sp, #4
  f6:	e8bd 4ff0 	ldmia.w	sp!, {r4, r5, r6, r7, r8, r9, sl, fp, lr}
  fa:	f7ff bffe 	b.w	0 <pinSet>
  fe:	bf00      	nop
 100:	00000000 	.word	0x00000000

Disassembly of section .text.parallelWrite:

00000000 <parallelWrite>:
parallelWrite():
   0:	b570      	push	{r4, r5, r6, lr}
   2:	8b84      	ldrh	r4, [r0, #28]
   4:	8bc3      	ldrh	r3, [r0, #30]
   6:	fa12 f404 	lsls.w	r4, r2, r4
   a:	6845      	ldr	r5, [r0, #4]
   c:	401c      	ands	r4, r3
   e:	8ac6      	ldrh	r6, [r0, #22]
  10:	b109      	cbz	r1, 16 <parallelWrite+0x16>
  12:	612e      	str	r6, [r5, #16]
  14:	e000      	b.n	18 <parallelWrite+0x18>
  16:	616e      	str	r6, [r5, #20]
  18:	6801      	ldr	r1, [r0, #0]
  1a:	8a85      	ldrh	r5, [r0, #20]
  1c:	6902      	ldr	r2, [r0, #16]
  1e:	614d      	str	r5, [r1, #20]
  20:	68d6      	ldr	r6, [r2, #12]
  22:	ea26 0303 	bic.w	r3, r6, r3
  26:	60d3      	str	r3, [r2, #12]
  28:	68d3      	ldr	r3, [r2, #12]
  2a:	431c      	orrs	r4, r3
  2c:	60d4      	str	r4, [r2, #12]
  2e:	6883      	ldr	r3, [r0, #8]
  30:	8b02      	ldrh	r2, [r0, #24]
  32:	615a      	str	r2, [r3, #20]
  34:	611a      	str	r2, [r3, #16]
  36:	610d      	str	r5, [r1, #16]
  38:	bd70      	pop	{r4, r5, r6, pc}

Disassembly of section .text.parallelRead:

00000000 <parallelRead>:
parallelRead():
   0:	6903      	ldr	r3, [r0, #16]
   2:	689a      	ldr	r2, [r3, #8]
   4:	8bc3      	ldrh	r3, [r0, #30]
   6:	401a      	ands	r2, r3
   8:	8b83      	ldrh	r3, [r0, #28]
   a:	fa52 f003 	asrs.w	r0, r2, r3
   e:	b280      	uxth	r0, r0
  10:	4770      	bx	lr

Disassembly of section .text.spiWriteByte:

00000000 <spiWriteByte>:
spiWriteByte():
   0:	b570      	push	{r4, r5, r6, lr}
   2:	6842      	ldr	r2, [r0, #4]
   4:	8a44      	ldrh	r4, [r0, #18]
   6:	2300      	movs	r3, #0
   8:	6154      	str	r4, [r2, #20]
   a:	2580      	movs	r5, #128	; 0x80
   c:	411d      	asrs	r5, r3
   e:	8a86      	ldrh	r6, [r0, #20]
  10:	420d      	tst	r5, r1
  12:	6885      	ldr	r5, [r0, #8]
  14:	bf14      	ite	ne
  16:	612e      	strne	r6, [r5, #16]
  18:	616e      	streq	r6, [r5, #20]
  1a:	3301      	adds	r3, #1
  1c:	2b08      	cmp	r3, #8
  1e:	6114      	str	r4, [r2, #16]
  20:	6154      	str	r4, [r2, #20]
  22:	d1f2      	bne.n	a <spiWriteByte+0xa>
  24:	bd70      	pop	{r4, r5, r6, pc}

Disassembly of section .text.spiWriteLong:

00000000 <spiWriteLong>:
spiWriteLong():
   0:	b570      	push	{r4, r5, r6, lr}
   2:	460c      	mov	r4, r1
   4:	0e09      	lsrs	r1, r1, #24
   6:	4605      	mov	r5, r0
   8:	f7ff fffe 	bl	0 <spiWriteLong>
   c:	0c21      	lsrs	r1, r4, #16
   e:	4628      	mov	r0, r5
  10:	b2c9      	uxtb	r1, r1
  12:	f7ff fffe 	bl	0 <spiWriteLong>
  16:	0a21      	lsrs	r1, r4, #8
  18:	4628      	mov	r0, r5
  1a:	b2c9      	uxtb	r1, r1
  1c:	f7ff fffe 	bl	0 <spiWriteLong>
  20:	4628      	mov	r0, r5
  22:	b2e1      	uxtb	r1, r4
  24:	e8bd 4070 	ldmia.w	sp!, {r4, r5, r6, lr}
  28:	f7ff bffe 	b.w	0 <spiWriteLong>

Disassembly of section .text.spiWriteAddress:

00000000 <spiWriteAddress>:
spiWriteAddress():
   0:	8b03      	ldrh	r3, [r0, #24]
   2:	b570      	push	{r4, r5, r6, lr}
   4:	f013 0f04 	tst.w	r3, #4
   8:	4605      	mov	r5, r0
   a:	460c      	mov	r4, r1
   c:	d00a      	beq.n	24 <spiWriteAddress+0x24>
   e:	0e09      	lsrs	r1, r1, #24
  10:	f7ff fffe 	bl	0 <spiWriteAddress>
  14:	0c21      	lsrs	r1, r4, #16
  16:	4628      	mov	r0, r5
  18:	b2c9      	uxtb	r1, r1
  1a:	f7ff fffe 	bl	0 <spiWriteAddress>
  1e:	0a21      	lsrs	r1, r4, #8
  20:	4628      	mov	r0, r5
  22:	e003      	b.n	2c <spiWriteAddress+0x2c>
  24:	f013 0f02 	tst.w	r3, #2
  28:	d003      	beq.n	32 <spiWriteAddress+0x32>
  2a:	0a09      	lsrs	r1, r1, #8
  2c:	b2c9      	uxtb	r1, r1
  2e:	f7ff fffe 	bl	0 <spiWriteAddress>
  32:	4628      	mov	r0, r5
  34:	b2e1      	uxtb	r1, r4
  36:	e8bd 4070 	ldmia.w	sp!, {r4, r5, r6, lr}
  3a:	f7ff bffe 	b.w	0 <spiWriteAddress>

Disassembly of section .text.spiPutCommand:

00000000 <spiPutCommand>:
spiPutCommand():
   0:	6803      	ldr	r3, [r0, #0]
   2:	8a02      	ldrh	r2, [r0, #16]
   4:	b510      	push	{r4, lr}
   6:	4604      	mov	r4, r0
   8:	615a      	str	r2, [r3, #20]
   a:	f7ff fffe 	bl	0 <spiPutCommand>
   e:	6823      	ldr	r3, [r4, #0]
  10:	8a22      	ldrh	r2, [r4, #16]
  12:	611a      	str	r2, [r3, #16]
  14:	bd10      	pop	{r4, pc}

Disassembly of section .text.spiReadByte:

00000000 <spiReadByte>:
spiReadByte():
   0:	6842      	ldr	r2, [r0, #4]
   2:	8a41      	ldrh	r1, [r0, #18]
   4:	2300      	movs	r3, #0
   6:	b570      	push	{r4, r5, r6, lr}
   8:	68c5      	ldr	r5, [r0, #12]
   a:	8ac4      	ldrh	r4, [r0, #22]
   c:	6151      	str	r1, [r2, #20]
   e:	4618      	mov	r0, r3
  10:	6111      	str	r1, [r2, #16]
  12:	68ae      	ldr	r6, [r5, #8]
  14:	4234      	tst	r4, r6
  16:	d004      	beq.n	22 <spiReadByte+0x22>
  18:	2680      	movs	r6, #128	; 0x80
  1a:	411e      	asrs	r6, r3
  1c:	ea46 0000 	orr.w	r0, r6, r0
  20:	b2c0      	uxtb	r0, r0
  22:	3301      	adds	r3, #1
  24:	2b08      	cmp	r3, #8
  26:	6151      	str	r1, [r2, #20]
  28:	d1f2      	bne.n	10 <spiReadByte+0x10>
  2a:	bd70      	pop	{r4, r5, r6, pc}

Disassembly of section .text.spiGetBuffer:

00000000 <spiGetBuffer>:
spiGetBuffer():
   0:	b5f8      	push	{r3, r4, r5, r6, r7, lr}
   2:	4615      	mov	r5, r2
   4:	461e      	mov	r6, r3
   6:	8a02      	ldrh	r2, [r0, #16]
   8:	6803      	ldr	r3, [r0, #0]
   a:	4604      	mov	r4, r0
   c:	615a      	str	r2, [r3, #20]
   e:	f7ff fffe 	bl	0 <spiGetBuffer>
  12:	8b23      	ldrh	r3, [r4, #24]
  14:	f013 0f08 	tst.w	r3, #8
  18:	d002      	beq.n	20 <spiGetBuffer+0x20>
  1a:	4620      	mov	r0, r4
  1c:	f7ff fffe 	bl	0 <spiGetBuffer>
  20:	2700      	movs	r7, #0
  22:	e004      	b.n	2e <spiGetBuffer+0x2e>
  24:	4620      	mov	r0, r4
  26:	f7ff fffe 	bl	0 <spiGetBuffer>
  2a:	55e8      	strb	r0, [r5, r7]
  2c:	3701      	adds	r7, #1
  2e:	42b7      	cmp	r7, r6
  30:	d3f8      	bcc.n	24 <spiGetBuffer+0x24>
  32:	6823      	ldr	r3, [r4, #0]
  34:	8a22      	ldrh	r2, [r4, #16]
  36:	611a      	str	r2, [r3, #16]
  38:	bdf8      	pop	{r3, r4, r5, r6, r7, pc}

Disassembly of section .text.spiGetLong:

00000000 <spiGetLong>:
spiGetLong():
   0:	b5f8      	push	{r3, r4, r5, r6, r7, lr}
   2:	8a02      	ldrh	r2, [r0, #16]
   4:	6803      	ldr	r3, [r0, #0]
   6:	4604      	mov	r4, r0
   8:	615a      	str	r2, [r3, #20]
   a:	f7ff fffe 	bl	0 <spiGetLong>
   e:	8b23      	ldrh	r3, [r4, #24]
  10:	f013 0f08 	tst.w	r3, #8
  14:	d002      	beq.n	1c <spiGetLong+0x1c>
  16:	4620      	mov	r0, r4
  18:	f7ff fffe 	bl	0 <spiGetLong>
  1c:	4620      	mov	r0, r4
  1e:	f7ff fffe 	bl	0 <spiGetLong>
  22:	0606      	lsls	r6, r0, #24
  24:	4620      	mov	r0, r4
  26:	f7ff fffe 	bl	0 <spiGetLong>
  2a:	4607      	mov	r7, r0
  2c:	4620      	mov	r0, r4
  2e:	f7ff fffe 	bl	0 <spiGetLong>
  32:	4605      	mov	r5, r0
  34:	4620      	mov	r0, r4
  36:	f7ff fffe 	bl	0 <spiGetLong>
  3a:	ea46 4307 	orr.w	r3, r6, r7, lsl #16
  3e:	ea43 0000 	orr.w	r0, r3, r0
  42:	8a22      	ldrh	r2, [r4, #16]
  44:	6823      	ldr	r3, [r4, #0]
  46:	ea40 2005 	orr.w	r0, r0, r5, lsl #8
  4a:	611a      	str	r2, [r3, #16]
  4c:	bdf8      	pop	{r3, r4, r5, r6, r7, pc}

Disassembly of section .text.spiGetWord:

00000000 <spiGetWord>:
spiGetWord():
   0:	b538      	push	{r3, r4, r5, lr}
   2:	8a02      	ldrh	r2, [r0, #16]
   4:	6803      	ldr	r3, [r0, #0]
   6:	4604      	mov	r4, r0
   8:	615a      	str	r2, [r3, #20]
   a:	f7ff fffe 	bl	0 <spiGetWord>
   e:	8b23      	ldrh	r3, [r4, #24]
  10:	f013 0f08 	tst.w	r3, #8
  14:	d002      	beq.n	1c <spiGetWord+0x1c>
  16:	4620      	mov	r0, r4
  18:	f7ff fffe 	bl	0 <spiGetWord>
  1c:	4620      	mov	r0, r4
  1e:	f7ff fffe 	bl	0 <spiGetWord>
  22:	0200      	lsls	r0, r0, #8
  24:	b285      	uxth	r5, r0
  26:	4620      	mov	r0, r4
  28:	f7ff fffe 	bl	0 <spiGetWord>
  2c:	6823      	ldr	r3, [r4, #0]
  2e:	8a22      	ldrh	r2, [r4, #16]
  30:	ea45 0000 	orr.w	r0, r5, r0
  34:	611a      	str	r2, [r3, #16]
  36:	b280      	uxth	r0, r0
  38:	bd38      	pop	{r3, r4, r5, pc}

Disassembly of section .text.spiGetChar:

00000000 <spiGetChar>:
spiGetChar():
   0:	6803      	ldr	r3, [r0, #0]
   2:	8a02      	ldrh	r2, [r0, #16]
   4:	b510      	push	{r4, lr}
   6:	4604      	mov	r4, r0
   8:	615a      	str	r2, [r3, #20]
   a:	f7ff fffe 	bl	0 <spiGetChar>
   e:	8b23      	ldrh	r3, [r4, #24]
  10:	f013 0f08 	tst.w	r3, #8
  14:	d002      	beq.n	1c <spiGetChar+0x1c>
  16:	4620      	mov	r0, r4
  18:	f7ff fffe 	bl	0 <spiGetChar>
  1c:	4620      	mov	r0, r4
  1e:	f7ff fffe 	bl	0 <spiGetChar>
  22:	6823      	ldr	r3, [r4, #0]
  24:	8a22      	ldrh	r2, [r4, #16]
  26:	611a      	str	r2, [r3, #16]
  28:	bd10      	pop	{r4, pc}

Disassembly of section .text.spiPutBuffer:

00000000 <spiPutBuffer>:
spiPutBuffer():
   0:	b5f8      	push	{r3, r4, r5, r6, r7, lr}
   2:	4615      	mov	r5, r2
   4:	461f      	mov	r7, r3
   6:	8a02      	ldrh	r2, [r0, #16]
   8:	6803      	ldr	r3, [r0, #0]
   a:	4604      	mov	r4, r0
   c:	615a      	str	r2, [r3, #20]
   e:	f7ff fffe 	bl	0 <spiPutBuffer>
  12:	8b23      	ldrh	r3, [r4, #24]
  14:	f013 0f10 	tst.w	r3, #16
  18:	d002      	beq.n	20 <spiPutBuffer+0x20>
  1a:	4620      	mov	r0, r4
  1c:	f7ff fffe 	bl	0 <spiPutBuffer>
  20:	2600      	movs	r6, #0
  22:	e004      	b.n	2e <spiPutBuffer+0x2e>
  24:	5da9      	ldrb	r1, [r5, r6]
  26:	4620      	mov	r0, r4
  28:	f7ff fffe 	bl	0 <spiPutBuffer>
  2c:	3601      	adds	r6, #1
  2e:	42be      	cmp	r6, r7
  30:	d3f8      	bcc.n	24 <spiPutBuffer+0x24>
  32:	6823      	ldr	r3, [r4, #0]
  34:	8a22      	ldrh	r2, [r4, #16]
  36:	611a      	str	r2, [r3, #16]
  38:	bdf8      	pop	{r3, r4, r5, r6, r7, pc}

Disassembly of section .text.spiPutLong:

00000000 <spiPutLong>:
spiPutLong():
   0:	b538      	push	{r3, r4, r5, lr}
   2:	6803      	ldr	r3, [r0, #0]
   4:	4615      	mov	r5, r2
   6:	8a02      	ldrh	r2, [r0, #16]
   8:	4604      	mov	r4, r0
   a:	615a      	str	r2, [r3, #20]
   c:	f7ff fffe 	bl	0 <spiPutLong>
  10:	8b23      	ldrh	r3, [r4, #24]
  12:	f013 0f10 	tst.w	r3, #16
  16:	d002      	beq.n	1e <spiPutLong+0x1e>
  18:	4620      	mov	r0, r4
  1a:	f7ff fffe 	bl	0 <spiPutLong>
  1e:	4620      	mov	r0, r4
  20:	0e29      	lsrs	r1, r5, #24
  22:	f7ff fffe 	bl	0 <spiPutLong>
  26:	0c29      	lsrs	r1, r5, #16
  28:	4620      	mov	r0, r4
  2a:	b2c9      	uxtb	r1, r1
  2c:	f7ff fffe 	bl	0 <spiPutLong>
  30:	0a29      	lsrs	r1, r5, #8
  32:	4620      	mov	r0, r4
  34:	b2c9      	uxtb	r1, r1
  36:	f7ff fffe 	bl	0 <spiPutLong>
  3a:	4620      	mov	r0, r4
  3c:	b2e9      	uxtb	r1, r5
  3e:	f7ff fffe 	bl	0 <spiPutLong>
  42:	6823      	ldr	r3, [r4, #0]
  44:	8a22      	ldrh	r2, [r4, #16]
  46:	611a      	str	r2, [r3, #16]
  48:	bd38      	pop	{r3, r4, r5, pc}

Disassembly of section .text.spiPutWord:

00000000 <spiPutWord>:
spiPutWord():
   0:	b538      	push	{r3, r4, r5, lr}
   2:	6803      	ldr	r3, [r0, #0]
   4:	4615      	mov	r5, r2
   6:	8a02      	ldrh	r2, [r0, #16]
   8:	4604      	mov	r4, r0
   a:	615a      	str	r2, [r3, #20]
   c:	f7ff fffe 	bl	0 <spiPutWord>
  10:	8b23      	ldrh	r3, [r4, #24]
  12:	f013 0f10 	tst.w	r3, #16
  16:	d002      	beq.n	1e <spiPutWord+0x1e>
  18:	4620      	mov	r0, r4
  1a:	f7ff fffe 	bl	0 <spiPutWord>
  1e:	4620      	mov	r0, r4
  20:	0a29      	lsrs	r1, r5, #8
  22:	f7ff fffe 	bl	0 <spiPutWord>
  26:	4620      	mov	r0, r4
  28:	b2e9      	uxtb	r1, r5
  2a:	f7ff fffe 	bl	0 <spiPutWord>
  2e:	6823      	ldr	r3, [r4, #0]
  30:	8a22      	ldrh	r2, [r4, #16]
  32:	611a      	str	r2, [r3, #16]
  34:	bd38      	pop	{r3, r4, r5, pc}

Disassembly of section .text.spiPutChar:

00000000 <spiPutChar>:
spiPutChar():
   0:	b538      	push	{r3, r4, r5, lr}
   2:	6803      	ldr	r3, [r0, #0]
   4:	4615      	mov	r5, r2
   6:	8a02      	ldrh	r2, [r0, #16]
   8:	4604      	mov	r4, r0
   a:	615a      	str	r2, [r3, #20]
   c:	f7ff fffe 	bl	0 <spiPutChar>
  10:	8b23      	ldrh	r3, [r4, #24]
  12:	f013 0f10 	tst.w	r3, #16
  16:	d002      	beq.n	1e <spiPutChar+0x1e>
  18:	4620      	mov	r0, r4
  1a:	f7ff fffe 	bl	0 <spiPutChar>
  1e:	4620      	mov	r0, r4
  20:	4629      	mov	r1, r5
  22:	f7ff fffe 	bl	0 <spiPutChar>
  26:	6823      	ldr	r3, [r4, #0]
  28:	8a22      	ldrh	r2, [r4, #16]
  2a:	611a      	str	r2, [r3, #16]
  2c:	bd38      	pop	{r3, r4, r5, pc}

Disassembly of section .text.spiReadBuffer:

00000000 <spiReadBuffer>:
spiReadBuffer():
   0:	b5f8      	push	{r3, r4, r5, r6, r7, lr}
   2:	4615      	mov	r5, r2
   4:	6803      	ldr	r3, [r0, #0]
   6:	8a02      	ldrh	r2, [r0, #16]
   8:	4604      	mov	r4, r0
   a:	615a      	str	r2, [r3, #20]
   c:	460f      	mov	r7, r1
   e:	2600      	movs	r6, #0
  10:	e006      	b.n	20 <spiReadBuffer+0x20>
  12:	4620      	mov	r0, r4
  14:	f7ff fffe 	bl	0 <spiReadBuffer>
  18:	3601      	adds	r6, #1
  1a:	f807 0b01 	strb.w	r0, [r7], #1
  1e:	b2b6      	uxth	r6, r6
  20:	42ae      	cmp	r6, r5
  22:	d3f6      	bcc.n	12 <spiReadBuffer+0x12>
  24:	6823      	ldr	r3, [r4, #0]
  26:	8a22      	ldrh	r2, [r4, #16]
  28:	611a      	str	r2, [r3, #16]
  2a:	bdf8      	pop	{r3, r4, r5, r6, r7, pc}

Disassembly of section .text.spiWriteBuffer:

00000000 <spiWriteBuffer>:
spiWriteBuffer():
   0:	b5f8      	push	{r3, r4, r5, r6, r7, lr}
   2:	4617      	mov	r7, r2
   4:	6803      	ldr	r3, [r0, #0]
   6:	8a02      	ldrh	r2, [r0, #16]
   8:	4604      	mov	r4, r0
   a:	615a      	str	r2, [r3, #20]
   c:	460e      	mov	r6, r1
   e:	2500      	movs	r5, #0
  10:	e006      	b.n	20 <spiWriteBuffer+0x20>
  12:	4620      	mov	r0, r4
  14:	f816 1b01 	ldrb.w	r1, [r6], #1
  18:	f7ff fffe 	bl	0 <spiWriteBuffer>
  1c:	3501      	adds	r5, #1
  1e:	b2ad      	uxth	r5, r5
  20:	42bd      	cmp	r5, r7
  22:	d3f6      	bcc.n	12 <spiWriteBuffer+0x12>
  24:	6823      	ldr	r3, [r4, #0]
  26:	8a22      	ldrh	r2, [r4, #16]
  28:	611a      	str	r2, [r3, #16]
  2a:	bdf8      	pop	{r3, r4, r5, r6, r7, pc}

Disassembly of section .text.spiConfig:

00000000 <spiConfig>:
spiConfig():
   0:	e92d 47f0 	stmdb	sp!, {r4, r5, r6, r7, r8, r9, sl, lr}
   4:	4616      	mov	r6, r2
   6:	f89d 8020 	ldrb.w	r8, [sp, #32]
   a:	4604      	mov	r4, r0
   c:	460d      	mov	r5, r1
   e:	4608      	mov	r0, r1
  10:	2103      	movs	r1, #3
  12:	461f      	mov	r7, r3
  14:	f89d 9024 	ldrb.w	r9, [sp, #36]	; 0x24
  18:	f7ff fffe 	bl	0 <pinConfig>
  1c:	2103      	movs	r1, #3
  1e:	4630      	mov	r0, r6
  20:	f7ff fffe 	bl	0 <pinConfig>
  24:	f1b8 0fff 	cmp.w	r8, #255	; 0xff
  28:	d00c      	beq.n	44 <spiConfig+0x44>
  2a:	2103      	movs	r1, #3
  2c:	4640      	mov	r0, r8
  2e:	f7ff fffe 	bl	0 <pinConfig>
  32:	4640      	mov	r0, r8
  34:	f7ff fffe 	bl	0 <pinGetPort>
  38:	60a0      	str	r0, [r4, #8]
  3a:	f008 000f 	and.w	r0, r8, #15
  3e:	f7ff fffe 	bl	0 <sysGenerateBit>
  42:	82a0      	strh	r0, [r4, #20]
  44:	2fff      	cmp	r7, #255	; 0xff
  46:	d00c      	beq.n	62 <spiConfig+0x62>
  48:	2104      	movs	r1, #4
  4a:	4638      	mov	r0, r7
  4c:	f7ff fffe 	bl	0 <pinConfig>
  50:	4638      	mov	r0, r7
  52:	f7ff fffe 	bl	0 <pinGetPort>
  56:	60e0      	str	r0, [r4, #12]
  58:	f007 000f 	and.w	r0, r7, #15
  5c:	f7ff fffe 	bl	0 <sysGenerateBit>
  60:	82e0      	strh	r0, [r4, #22]
  62:	4628      	mov	r0, r5
  64:	f7ff fffe 	bl	0 <pinGetPort>
  68:	6020      	str	r0, [r4, #0]
  6a:	4630      	mov	r0, r6
  6c:	f7ff fffe 	bl	0 <pinGetPort>
  70:	6060      	str	r0, [r4, #4]
  72:	f005 000f 	and.w	r0, r5, #15
  76:	f7ff fffe 	bl	0 <sysGenerateBit>
  7a:	8220      	strh	r0, [r4, #16]
  7c:	f006 000f 	and.w	r0, r6, #15
  80:	f7ff fffe 	bl	0 <sysGenerateBit>
  84:	2100      	movs	r1, #0
  86:	8260      	strh	r0, [r4, #18]
  88:	f8a4 9018 	strh.w	r9, [r4, #24]
  8c:	4630      	mov	r0, r6
  8e:	f7ff fffe 	bl	0 <pinSet>
  92:	4628      	mov	r0, r5
  94:	2101      	movs	r1, #1
  96:	e8bd 47f0 	ldmia.w	sp!, {r4, r5, r6, r7, r8, r9, sl, lr}
  9a:	f7ff bffe 	b.w	0 <pinSet>

Disassembly of section .text.i2cInit:

00000000 <i2cInit>:
i2cInit():
   0:	b538      	push	{r3, r4, r5, lr}
   2:	2100      	movs	r1, #0
   4:	4c0f      	ldr	r4, [pc, #60]	; (44 <i2cInit+0x44>)
   6:	4605      	mov	r5, r0
   8:	2210      	movs	r2, #16
   a:	480f      	ldr	r0, [pc, #60]	; (48 <i2cInit+0x48>)
   c:	47a0      	blx	r4
   e:	2101      	movs	r1, #1
  10:	2213      	movs	r2, #19
  12:	480d      	ldr	r0, [pc, #52]	; (48 <i2cInit+0x48>)
  14:	47a0      	blx	r4
  16:	2100      	movs	r1, #0
  18:	2211      	movs	r2, #17
  1a:	480c      	ldr	r0, [pc, #48]	; (4c <i2cInit+0x4c>)
  1c:	47a0      	blx	r4
  1e:	2101      	movs	r1, #1
  20:	2214      	movs	r2, #20
  22:	480a      	ldr	r0, [pc, #40]	; (4c <i2cInit+0x4c>)
  24:	47a0      	blx	r4
  26:	2100      	movs	r1, #0
  28:	2212      	movs	r2, #18
  2a:	4809      	ldr	r0, [pc, #36]	; (50 <i2cInit+0x50>)
  2c:	47a0      	blx	r4
  2e:	4808      	ldr	r0, [pc, #32]	; (50 <i2cInit+0x50>)
  30:	2101      	movs	r1, #1
  32:	2215      	movs	r2, #21
  34:	47a0      	blx	r4
  36:	f44f 7349 	mov.w	r3, #804	; 0x324
  3a:	80ab      	strh	r3, [r5, #4]
  3c:	f240 6301 	movw	r3, #1537	; 0x601
  40:	802b      	strh	r3, [r5, #0]
  42:	bd38      	pop	{r3, r4, r5, pc}
  44:	00000000 	.word	0x00000000
  48:	40005400 	.word	0x40005400
  4c:	40005800 	.word	0x40005800
  50:	40005c00 	.word	0x40005c00

Disassembly of section .text.i2cReset:

00000000 <i2cReset>:
i2cReset():
   0:	8803      	ldrh	r3, [r0, #0]
   2:	ea6f 4343 	mvn.w	r3, r3, lsl #17
   6:	ea6f 4353 	mvn.w	r3, r3, lsr #17
   a:	b29b      	uxth	r3, r3
   c:	8003      	strh	r3, [r0, #0]
   e:	4770      	bx	lr

Disassembly of section .text.I2C1_ER_IRQHandler:

00000000 <I2C1_ER_IRQHandler>:
I2C1_ER_IRQHandler():
   0:	4770      	bx	lr

Disassembly of section .text.I2C2_EV_IRQHandler:

00000000 <I2C2_EV_IRQHandler>:
I2C2_EV_IRQHandler():
   0:	4770      	bx	lr

Disassembly of section .text.I2C2_ER_IRQHandler:

00000000 <I2C2_ER_IRQHandler>:
I2C2_ER_IRQHandler():
   0:	4770      	bx	lr

Disassembly of section .text.I2C3_EV_IRQHandler:

00000000 <I2C3_EV_IRQHandler>:
I2C3_EV_IRQHandler():
   0:	4770      	bx	lr

Disassembly of section .text.I2C3_ER_IRQHandler:

00000000 <I2C3_ER_IRQHandler>:
I2C3_ER_IRQHandler():
   0:	4770      	bx	lr

Disassembly of section .text.i2cConfig:

00000000 <i2cConfig>:
i2cConfig():
   0:	e92d 41f0 	stmdb	sp!, {r4, r5, r6, r7, r8, lr}
   4:	4604      	mov	r4, r0
   6:	4616      	mov	r6, r2
   8:	460d      	mov	r5, r1
   a:	4608      	mov	r0, r1
   c:	2118      	movs	r1, #24
   e:	4698      	mov	r8, r3
  10:	f8bd 7018 	ldrh.w	r7, [sp, #24]
  14:	f7ff fffe 	bl	0 <pinConfig>
  18:	4630      	mov	r0, r6
  1a:	2118      	movs	r1, #24
  1c:	f7ff fffe 	bl	0 <pinConfig>
  20:	7025      	strb	r5, [r4, #0]
  22:	7066      	strb	r6, [r4, #1]
  24:	4628      	mov	r0, r5
  26:	f7ff fffe 	bl	0 <pinGetPort>
  2a:	6060      	str	r0, [r4, #4]
  2c:	4630      	mov	r0, r6
  2e:	f7ff fffe 	bl	0 <pinGetPort>
  32:	f005 050f 	and.w	r5, r5, #15
  36:	2301      	movs	r3, #1
  38:	f006 060f 	and.w	r6, r6, #15
  3c:	fa13 f505 	lsls.w	r5, r3, r5
  40:	40b3      	lsls	r3, r6
  42:	ea4f 0848 	mov.w	r8, r8, lsl #1
  46:	60a0      	str	r0, [r4, #8]
  48:	81a5      	strh	r5, [r4, #12]
  4a:	81e3      	strh	r3, [r4, #14]
  4c:	f884 8002 	strb.w	r8, [r4, #2]
  50:	b10f      	cbz	r7, 56 <i2cConfig+0x56>
  52:	8267      	strh	r7, [r4, #18]
  54:	e001      	b.n	5a <i2cConfig+0x5a>
  56:	2308      	movs	r3, #8
  58:	8263      	strh	r3, [r4, #18]
  5a:	f7ff fffe 	bl	0 <sysGetMainClock>
  5e:	4b0f      	ldr	r3, [pc, #60]	; (9c <i2cConfig+0x9c>)
  60:	8a62      	ldrh	r2, [r4, #18]
  62:	4298      	cmp	r0, r3
  64:	bf38      	it	cc
  66:	4603      	movcc	r3, r0
  68:	f012 0f04 	tst.w	r2, #4
  6c:	d001      	beq.n	72 <i2cConfig+0x72>
  6e:	4a0c      	ldr	r2, [pc, #48]	; (a0 <i2cConfig+0xa0>)
  70:	e00f      	b.n	92 <i2cConfig+0x92>
  72:	f012 0f08 	tst.w	r2, #8
  76:	d001      	beq.n	7c <i2cConfig+0x7c>
  78:	4a0a      	ldr	r2, [pc, #40]	; (a4 <i2cConfig+0xa4>)
  7a:	e00a      	b.n	92 <i2cConfig+0x92>
  7c:	f012 0f10 	tst.w	r2, #16
  80:	d001      	beq.n	86 <i2cConfig+0x86>
  82:	4a09      	ldr	r2, [pc, #36]	; (a8 <i2cConfig+0xa8>)
  84:	e005      	b.n	92 <i2cConfig+0x92>
  86:	f012 0f20 	tst.w	r2, #32
  8a:	bf14      	ite	ne
  8c:	4a07      	ldrne	r2, [pc, #28]	; (ac <i2cConfig+0xac>)
  8e:	f649 4240 	movweq	r2, #40000	; 0x9c40
  92:	fbb3 f3f2 	udiv	r3, r3, r2
  96:	8223      	strh	r3, [r4, #16]
  98:	e8bd 81f0 	ldmia.w	sp!, {r4, r5, r6, r7, r8, pc}
  9c:	02faf080 	.word	0x02faf080
  a0:	00061a80 	.word	0x00061a80
  a4:	00186a00 	.word	0x00186a00
  a8:	003d0900 	.word	0x003d0900
  ac:	00cf8500 	.word	0x00cf8500

Disassembly of section .text.i2cDelay:

00000000 <i2cDelay>:
i2cDelay():
   0:	8a02      	ldrh	r2, [r0, #16]
   2:	2300      	movs	r3, #0
   4:	e002      	b.n	c <i2cDelay+0xc>
   6:	bf00      	nop
   8:	3301      	adds	r3, #1
   a:	b29b      	uxth	r3, r3
   c:	4293      	cmp	r3, r2
   e:	d3fa      	bcc.n	6 <i2cDelay+0x6>
  10:	4770      	bx	lr

Disassembly of section .text.i2cStretch:

00000000 <i2cStretch>:
i2cStretch():
   0:	6841      	ldr	r1, [r0, #4]
   2:	8982      	ldrh	r2, [r0, #12]
   4:	f64e 2360 	movw	r3, #60000	; 0xea60
   8:	6888      	ldr	r0, [r1, #8]
   a:	4202      	tst	r2, r0
   c:	d103      	bne.n	16 <i2cStretch+0x16>
   e:	3b01      	subs	r3, #1
  10:	b29b      	uxth	r3, r3
  12:	2b00      	cmp	r3, #0
  14:	d1f8      	bne.n	8 <i2cStretch+0x8>
  16:	4770      	bx	lr

Disassembly of section .text.i2cWriteBit:

00000000 <i2cWriteBit>:
i2cWriteBit():
   0:	b570      	push	{r4, r5, r6, lr}
   2:	4604      	mov	r4, r0
   4:	460d      	mov	r5, r1
   6:	b111      	cbz	r1, e <i2cWriteBit+0xe>
   8:	7840      	ldrb	r0, [r0, #1]
   a:	2118      	movs	r1, #24
   c:	e007      	b.n	1e <i2cWriteBit+0x1e>
   e:	6883      	ldr	r3, [r0, #8]
  10:	89c1      	ldrh	r1, [r0, #14]
  12:	68da      	ldr	r2, [r3, #12]
  14:	ea22 0201 	bic.w	r2, r2, r1
  18:	60da      	str	r2, [r3, #12]
  1a:	7840      	ldrb	r0, [r0, #1]
  1c:	2103      	movs	r1, #3
  1e:	f7ff fffe 	bl	0 <pinConfig>
  22:	4620      	mov	r0, r4
  24:	f7ff fffe 	bl	0 <i2cWriteBit>
  28:	7820      	ldrb	r0, [r4, #0]
  2a:	2118      	movs	r1, #24
  2c:	f7ff fffe 	bl	0 <pinConfig>
  30:	b12d      	cbz	r5, 3e <i2cWriteBit+0x3e>
  32:	7860      	ldrb	r0, [r4, #1]
  34:	2118      	movs	r1, #24
  36:	f7ff fffe 	bl	0 <pinConfig>
  3a:	68a3      	ldr	r3, [r4, #8]
  3c:	689b      	ldr	r3, [r3, #8]
  3e:	4620      	mov	r0, r4
  40:	f7ff fffe 	bl	0 <i2cWriteBit>
  44:	6863      	ldr	r3, [r4, #4]
  46:	89a1      	ldrh	r1, [r4, #12]
  48:	68da      	ldr	r2, [r3, #12]
  4a:	ea22 0201 	bic.w	r2, r2, r1
  4e:	60da      	str	r2, [r3, #12]
  50:	7820      	ldrb	r0, [r4, #0]
  52:	2103      	movs	r1, #3
  54:	e8bd 4070 	ldmia.w	sp!, {r4, r5, r6, lr}
  58:	f7ff bffe 	b.w	0 <pinConfig>

Disassembly of section .text.i2cReadBit:

00000000 <i2cReadBit>:
i2cReadBit():
   0:	b538      	push	{r3, r4, r5, lr}
   2:	2118      	movs	r1, #24
   4:	4604      	mov	r4, r0
   6:	7840      	ldrb	r0, [r0, #1]
   8:	f7ff fffe 	bl	0 <pinConfig>
   c:	4620      	mov	r0, r4
   e:	f7ff fffe 	bl	0 <i2cReadBit>
  12:	2118      	movs	r1, #24
  14:	7820      	ldrb	r0, [r4, #0]
  16:	f7ff fffe 	bl	0 <pinConfig>
  1a:	68a3      	ldr	r3, [r4, #8]
  1c:	89e2      	ldrh	r2, [r4, #14]
  1e:	689b      	ldr	r3, [r3, #8]
  20:	4620      	mov	r0, r4
  22:	421a      	tst	r2, r3
  24:	bf0c      	ite	eq
  26:	2500      	moveq	r5, #0
  28:	2501      	movne	r5, #1
  2a:	f7ff fffe 	bl	0 <i2cReadBit>
  2e:	6863      	ldr	r3, [r4, #4]
  30:	89a1      	ldrh	r1, [r4, #12]
  32:	68da      	ldr	r2, [r3, #12]
  34:	ea22 0201 	bic.w	r2, r2, r1
  38:	60da      	str	r2, [r3, #12]
  3a:	7820      	ldrb	r0, [r4, #0]
  3c:	2103      	movs	r1, #3
  3e:	f7ff fffe 	bl	0 <pinConfig>
  42:	4628      	mov	r0, r5
  44:	bd38      	pop	{r3, r4, r5, pc}

Disassembly of section .text.i2cWriteByte:

00000000 <i2cWriteByte>:
i2cWriteByte():
   0:	b570      	push	{r4, r5, r6, lr}
   2:	4604      	mov	r4, r0
   4:	460e      	mov	r6, r1
   6:	2508      	movs	r5, #8
   8:	f016 0f80 	tst.w	r6, #128	; 0x80
   c:	d002      	beq.n	14 <i2cWriteByte+0x14>
   e:	4620      	mov	r0, r4
  10:	2101      	movs	r1, #1
  12:	e001      	b.n	18 <i2cWriteByte+0x18>
  14:	4620      	mov	r0, r4
  16:	2100      	movs	r1, #0
  18:	3d01      	subs	r5, #1
  1a:	b2ed      	uxtb	r5, r5
  1c:	f7ff fffe 	bl	0 <i2cWriteByte>
  20:	b115      	cbz	r5, 28 <i2cWriteByte+0x28>
  22:	0076      	lsls	r6, r6, #1
  24:	b2f6      	uxtb	r6, r6
  26:	e7ef      	b.n	8 <i2cWriteByte+0x8>
  28:	4620      	mov	r0, r4
  2a:	e8bd 4070 	ldmia.w	sp!, {r4, r5, r6, lr}
  2e:	f7ff bffe 	b.w	0 <i2cWriteByte>

Disassembly of section .text.i2cReadByte:

00000000 <i2cReadByte>:
i2cReadByte():
   0:	b570      	push	{r4, r5, r6, lr}
   2:	4606      	mov	r6, r0
   4:	2508      	movs	r5, #8
   6:	2400      	movs	r4, #0
   8:	4630      	mov	r0, r6
   a:	f7ff fffe 	bl	0 <i2cReadByte>
   e:	3d01      	subs	r5, #1
  10:	ea40 0444 	orr.w	r4, r0, r4, lsl #1
  14:	b2ed      	uxtb	r5, r5
  16:	b2e4      	uxtb	r4, r4
  18:	2d00      	cmp	r5, #0
  1a:	d1f5      	bne.n	8 <i2cReadByte+0x8>
  1c:	4620      	mov	r0, r4
  1e:	bd70      	pop	{r4, r5, r6, pc}

Disassembly of section .text.i2cResetBus:

00000000 <i2cResetBus>:
i2cResetBus():
   0:	b570      	push	{r4, r5, r6, lr}
   2:	2103      	movs	r1, #3
   4:	4604      	mov	r4, r0
   6:	7800      	ldrb	r0, [r0, #0]
   8:	f7ff fffe 	bl	0 <pinConfig>
   c:	2509      	movs	r5, #9
   e:	68a3      	ldr	r3, [r4, #8]
  10:	89e1      	ldrh	r1, [r4, #14]
  12:	68da      	ldr	r2, [r3, #12]
  14:	ea41 0202 	orr.w	r2, r1, r2
  18:	60da      	str	r2, [r3, #12]
  1a:	2103      	movs	r1, #3
  1c:	7860      	ldrb	r0, [r4, #1]
  1e:	f7ff fffe 	bl	0 <pinConfig>
  22:	68a3      	ldr	r3, [r4, #8]
  24:	89e2      	ldrh	r2, [r4, #14]
  26:	689b      	ldr	r3, [r3, #8]
  28:	421a      	tst	r2, r3
  2a:	d104      	bne.n	36 <i2cResetBus+0x36>
  2c:	4620      	mov	r0, r4
  2e:	e8bd 4070 	ldmia.w	sp!, {r4, r5, r6, lr}
  32:	f7ff bffe 	b.w	0 <i2cResetBus>
  36:	4620      	mov	r0, r4
  38:	f7ff fffe 	bl	0 <i2cResetBus>
  3c:	6863      	ldr	r3, [r4, #4]
  3e:	89a1      	ldrh	r1, [r4, #12]
  40:	68da      	ldr	r2, [r3, #12]
  42:	4620      	mov	r0, r4
  44:	ea41 0202 	orr.w	r2, r1, r2
  48:	60da      	str	r2, [r3, #12]
  4a:	f7ff fffe 	bl	0 <i2cResetBus>
  4e:	6863      	ldr	r3, [r4, #4]
  50:	89a1      	ldrh	r1, [r4, #12]
  52:	68da      	ldr	r2, [r3, #12]
  54:	4620      	mov	r0, r4
  56:	ea22 0201 	bic.w	r2, r2, r1
  5a:	60da      	str	r2, [r3, #12]
  5c:	f7ff fffe 	bl	0 <i2cResetBus>
  60:	6863      	ldr	r3, [r4, #4]
  62:	89a1      	ldrh	r1, [r4, #12]
  64:	68da      	ldr	r2, [r3, #12]
  66:	3d01      	subs	r5, #1
  68:	ea41 0202 	orr.w	r2, r1, r2
  6c:	b2ed      	uxtb	r5, r5
  6e:	60da      	str	r2, [r3, #12]
  70:	2d00      	cmp	r5, #0
  72:	d1cc      	bne.n	e <i2cResetBus+0xe>
  74:	bd70      	pop	{r4, r5, r6, pc}

Disassembly of section .text.i2cStop:

00000000 <i2cStop>:
i2cStop():
   0:	b510      	push	{r4, lr}
   2:	6883      	ldr	r3, [r0, #8]
   4:	89c1      	ldrh	r1, [r0, #14]
   6:	68da      	ldr	r2, [r3, #12]
   8:	4604      	mov	r4, r0
   a:	ea22 0201 	bic.w	r2, r2, r1
   e:	60da      	str	r2, [r3, #12]
  10:	2103      	movs	r1, #3
  12:	7840      	ldrb	r0, [r0, #1]
  14:	f7ff fffe 	bl	0 <pinConfig>
  18:	4620      	mov	r0, r4
  1a:	f7ff fffe 	bl	0 <i2cStop>
  1e:	2118      	movs	r1, #24
  20:	7820      	ldrb	r0, [r4, #0]
  22:	f7ff fffe 	bl	0 <pinConfig>
  26:	2118      	movs	r1, #24
  28:	7860      	ldrb	r0, [r4, #1]
  2a:	f7ff fffe 	bl	0 <pinConfig>
  2e:	4620      	mov	r0, r4
  30:	f7ff fffe 	bl	0 <i2cStop>
  34:	68a3      	ldr	r3, [r4, #8]
  36:	89e2      	ldrh	r2, [r4, #14]
  38:	689b      	ldr	r3, [r3, #8]
  3a:	421a      	tst	r2, r3
  3c:	d104      	bne.n	48 <i2cStop+0x48>
  3e:	4620      	mov	r0, r4
  40:	e8bd 4010 	ldmia.w	sp!, {r4, lr}
  44:	f7ff bffe 	b.w	0 <i2cStop>
  48:	bd10      	pop	{r4, pc}

Disassembly of section .text.i2cStart:

00000000 <i2cStart>:
i2cStart():
   0:	b510      	push	{r4, lr}
   2:	2118      	movs	r1, #24
   4:	4604      	mov	r4, r0
   6:	7840      	ldrb	r0, [r0, #1]
   8:	f7ff fffe 	bl	0 <pinConfig>
   c:	4620      	mov	r0, r4
   e:	f7ff fffe 	bl	0 <i2cStart>
  12:	2118      	movs	r1, #24
  14:	7820      	ldrb	r0, [r4, #0]
  16:	f7ff fffe 	bl	0 <pinConfig>
  1a:	68a3      	ldr	r3, [r4, #8]
  1c:	89e2      	ldrh	r2, [r4, #14]
  1e:	689b      	ldr	r3, [r3, #8]
  20:	421a      	tst	r2, r3
  22:	d102      	bne.n	2a <i2cStart+0x2a>
  24:	4620      	mov	r0, r4
  26:	f7ff fffe 	bl	0 <i2cStart>
  2a:	68a3      	ldr	r3, [r4, #8]
  2c:	89e1      	ldrh	r1, [r4, #14]
  2e:	68da      	ldr	r2, [r3, #12]
  30:	ea22 0201 	bic.w	r2, r2, r1
  34:	60da      	str	r2, [r3, #12]
  36:	2103      	movs	r1, #3
  38:	7860      	ldrb	r0, [r4, #1]
  3a:	f7ff fffe 	bl	0 <pinConfig>
  3e:	4620      	mov	r0, r4
  40:	f7ff fffe 	bl	0 <i2cStart>
  44:	6863      	ldr	r3, [r4, #4]
  46:	89a1      	ldrh	r1, [r4, #12]
  48:	68da      	ldr	r2, [r3, #12]
  4a:	ea22 0201 	bic.w	r2, r2, r1
  4e:	60da      	str	r2, [r3, #12]
  50:	7820      	ldrb	r0, [r4, #0]
  52:	2103      	movs	r1, #3
  54:	e8bd 4010 	ldmia.w	sp!, {r4, lr}
  58:	f7ff bffe 	b.w	0 <pinConfig>

Disassembly of section .text.i2cGetChar:

00000000 <i2cGetChar>:
i2cGetChar():
   0:	b538      	push	{r3, r4, r5, lr}
   2:	4b17      	ldr	r3, [pc, #92]	; (60 <i2cGetChar+0x60>)
   4:	f64a 22aa 	movw	r2, #43690	; 0xaaaa
   8:	4604      	mov	r4, r0
   a:	601a      	str	r2, [r3, #0]
   c:	460d      	mov	r5, r1
   e:	f7ff fffe 	bl	0 <i2cGetChar>
  12:	4620      	mov	r0, r4
  14:	78a1      	ldrb	r1, [r4, #2]
  16:	f7ff fffe 	bl	0 <i2cGetChar>
  1a:	8a63      	ldrh	r3, [r4, #18]
  1c:	f013 0f02 	tst.w	r3, #2
  20:	d003      	beq.n	2a <i2cGetChar+0x2a>
  22:	4620      	mov	r0, r4
  24:	0a29      	lsrs	r1, r5, #8
  26:	f7ff fffe 	bl	0 <i2cGetChar>
  2a:	b2e9      	uxtb	r1, r5
  2c:	4620      	mov	r0, r4
  2e:	f7ff fffe 	bl	0 <i2cGetChar>
  32:	4620      	mov	r0, r4
  34:	f7ff fffe 	bl	0 <i2cGetChar>
  38:	78a1      	ldrb	r1, [r4, #2]
  3a:	4620      	mov	r0, r4
  3c:	f041 0101 	orr.w	r1, r1, #1
  40:	f7ff fffe 	bl	0 <i2cGetChar>
  44:	4620      	mov	r0, r4
  46:	f7ff fffe 	bl	0 <i2cGetChar>
  4a:	2101      	movs	r1, #1
  4c:	4605      	mov	r5, r0
  4e:	4620      	mov	r0, r4
  50:	f7ff fffe 	bl	0 <i2cGetChar>
  54:	4620      	mov	r0, r4
  56:	f7ff fffe 	bl	0 <i2cGetChar>
  5a:	4628      	mov	r0, r5
  5c:	bd38      	pop	{r3, r4, r5, pc}
  5e:	bf00      	nop
  60:	40003000 	.word	0x40003000

Disassembly of section .text.i2cGetBuffer:

00000000 <i2cGetBuffer>:
i2cGetBuffer():
   0:	e92d 41f0 	stmdb	sp!, {r4, r5, r6, r7, r8, lr}
   4:	4605      	mov	r5, r0
   6:	460c      	mov	r4, r1
   8:	4616      	mov	r6, r2
   a:	4698      	mov	r8, r3
   c:	2700      	movs	r7, #0
   e:	e007      	b.n	20 <i2cGetBuffer+0x20>
  10:	1939      	adds	r1, r7, r4
  12:	4628      	mov	r0, r5
  14:	b289      	uxth	r1, r1
  16:	f7ff fffe 	bl	0 <i2cGetBuffer>
  1a:	55f0      	strb	r0, [r6, r7]
  1c:	3701      	adds	r7, #1
  1e:	b2ff      	uxtb	r7, r7
  20:	4547      	cmp	r7, r8
  22:	d3f5      	bcc.n	10 <i2cGetBuffer+0x10>
  24:	e8bd 81f0 	ldmia.w	sp!, {r4, r5, r6, r7, r8, pc}

Disassembly of section .text.i2cPollAck:

00000000 <i2cPollAck>:
i2cPollAck():
   0:	b570      	push	{r4, r5, r6, lr}
   2:	4604      	mov	r4, r0
   4:	f64f 75ff 	movw	r5, #65535	; 0xffff
   8:	4620      	mov	r0, r4
   a:	f7ff fffe 	bl	0 <i2cPollAck>
   e:	4620      	mov	r0, r4
  10:	f7ff fffe 	bl	0 <i2cPollAck>
  14:	4620      	mov	r0, r4
  16:	78a1      	ldrb	r1, [r4, #2]
  18:	f7ff fffe 	bl	0 <i2cPollAck>
  1c:	4606      	mov	r6, r0
  1e:	4620      	mov	r0, r4
  20:	f7ff fffe 	bl	0 <i2cPollAck>
  24:	b11e      	cbz	r6, 2e <i2cPollAck+0x2e>
  26:	3d01      	subs	r5, #1
  28:	b2ad      	uxth	r5, r5
  2a:	2d00      	cmp	r5, #0
  2c:	d1ec      	bne.n	8 <i2cPollAck+0x8>
  2e:	bd70      	pop	{r4, r5, r6, pc}

Disassembly of section .text.i2cPutChar:

00000000 <i2cPutChar>:
i2cPutChar():
   0:	b5f8      	push	{r3, r4, r5, r6, r7, lr}
   2:	4b1c      	ldr	r3, [pc, #112]	; (74 <i2cPutChar+0x74>)
   4:	4617      	mov	r7, r2
   6:	f64a 22aa 	movw	r2, #43690	; 0xaaaa
   a:	4604      	mov	r4, r0
   c:	601a      	str	r2, [r3, #0]
   e:	460d      	mov	r5, r1
  10:	f7ff fffe 	bl	0 <i2cPutChar>
  14:	4620      	mov	r0, r4
  16:	78a1      	ldrb	r1, [r4, #2]
  18:	f7ff fffe 	bl	0 <i2cPutChar>
  1c:	8a63      	ldrh	r3, [r4, #18]
  1e:	4606      	mov	r6, r0
  20:	f013 0f02 	tst.w	r3, #2
  24:	d006      	beq.n	34 <i2cPutChar+0x34>
  26:	4620      	mov	r0, r4
  28:	0a29      	lsrs	r1, r5, #8
  2a:	f7ff fffe 	bl	0 <i2cPutChar>
  2e:	ea40 0606 	orr.w	r6, r0, r6
  32:	b2f6      	uxtb	r6, r6
  34:	b2e9      	uxtb	r1, r5
  36:	4620      	mov	r0, r4
  38:	f7ff fffe 	bl	0 <i2cPutChar>
  3c:	4639      	mov	r1, r7
  3e:	ea40 0606 	orr.w	r6, r0, r6
  42:	4620      	mov	r0, r4
  44:	f7ff fffe 	bl	0 <i2cPutChar>
  48:	b2f6      	uxtb	r6, r6
  4a:	4605      	mov	r5, r0
  4c:	432e      	orrs	r6, r5
  4e:	4620      	mov	r0, r4
  50:	f7ff fffe 	bl	0 <i2cPutChar>
  54:	f016 0fff 	tst.w	r6, #255	; 0xff
  58:	d108      	bne.n	6c <i2cPutChar+0x6c>
  5a:	8a63      	ldrh	r3, [r4, #18]
  5c:	f013 0f40 	tst.w	r3, #64	; 0x40
  60:	d006      	beq.n	70 <i2cPutChar+0x70>
  62:	4620      	mov	r0, r4
  64:	f7ff fffe 	bl	0 <i2cPutChar>
  68:	2001      	movs	r0, #1
  6a:	bdf8      	pop	{r3, r4, r5, r6, r7, pc}
  6c:	2000      	movs	r0, #0
  6e:	bdf8      	pop	{r3, r4, r5, r6, r7, pc}
  70:	2001      	movs	r0, #1
  72:	bdf8      	pop	{r3, r4, r5, r6, r7, pc}
  74:	40003000 	.word	0x40003000

Disassembly of section .text.i2cPutBuffer:

00000000 <i2cPutBuffer>:
i2cPutBuffer():
   0:	e92d 41f0 	stmdb	sp!, {r4, r5, r6, r7, r8, lr}
   4:	4606      	mov	r6, r0
   6:	460d      	mov	r5, r1
   8:	4614      	mov	r4, r2
   a:	4698      	mov	r8, r3
   c:	2700      	movs	r7, #0
   e:	e008      	b.n	22 <i2cPutBuffer+0x22>
  10:	1979      	adds	r1, r7, r5
  12:	4630      	mov	r0, r6
  14:	b289      	uxth	r1, r1
  16:	7822      	ldrb	r2, [r4, #0]
  18:	f7ff fffe 	bl	0 <i2cPutBuffer>
  1c:	b120      	cbz	r0, 28 <i2cPutBuffer+0x28>
  1e:	3701      	adds	r7, #1
  20:	b2bf      	uxth	r7, r7
  22:	4547      	cmp	r7, r8
  24:	d3f4      	bcc.n	10 <i2cPutBuffer+0x10>
  26:	2001      	movs	r0, #1
  28:	e8bd 81f0 	ldmia.w	sp!, {r4, r5, r6, r7, r8, pc}

Disassembly of section .text.i2cPutString:

00000000 <i2cPutString>:
i2cPutString():
   0:	b570      	push	{r4, r5, r6, lr}
   2:	4606      	mov	r6, r0
   4:	460c      	mov	r4, r1
   6:	4615      	mov	r5, r2
   8:	e006      	b.n	18 <i2cPutString+0x18>
   a:	4630      	mov	r0, r6
   c:	4621      	mov	r1, r4
   e:	f7ff fffe 	bl	0 <i2cPutString>
  12:	b130      	cbz	r0, 22 <i2cPutString+0x22>
  14:	3401      	adds	r4, #1
  16:	b2a4      	uxth	r4, r4
  18:	f815 2b01 	ldrb.w	r2, [r5], #1
  1c:	2a00      	cmp	r2, #0
  1e:	d1f4      	bne.n	a <i2cPutString+0xa>
  20:	2001      	movs	r0, #1
  22:	bd70      	pop	{r4, r5, r6, pc}

Disassembly of section .text.streamReset:

00000000 <streamReset>:
streamReset():
   0:	2803      	cmp	r0, #3
   2:	b510      	push	{r4, lr}
   4:	d816      	bhi.n	34 <streamReset+0x34>
   6:	2324      	movs	r3, #36	; 0x24
   8:	4358      	muls	r0, r3
   a:	490b      	ldr	r1, [pc, #44]	; (38 <streamReset+0x38>)
   c:	2200      	movs	r2, #0
   e:	180b      	adds	r3, r1, r0
  10:	520a      	strh	r2, [r1, r0]
  12:	4614      	mov	r4, r2
  14:	4909      	ldr	r1, [pc, #36]	; (3c <streamReset+0x3c>)
  16:	805a      	strh	r2, [r3, #2]
  18:	809a      	strh	r2, [r3, #4]
  1a:	80da      	strh	r2, [r3, #6]
  1c:	811a      	strh	r2, [r3, #8]
  1e:	815a      	strh	r2, [r3, #10]
  20:	615a      	str	r2, [r3, #20]
  22:	619a      	str	r2, [r3, #24]
  24:	f883 2020 	strb.w	r2, [r3, #32]
  28:	4a05      	ldr	r2, [pc, #20]	; (40 <streamReset+0x40>)
  2a:	60d9      	str	r1, [r3, #12]
  2c:	6119      	str	r1, [r3, #16]
  2e:	61da      	str	r2, [r3, #28]
  30:	2001      	movs	r0, #1
  32:	bd10      	pop	{r4, pc}
  34:	2000      	movs	r0, #0
  36:	bd10      	pop	{r4, pc}
	...

Disassembly of section .text.streamInit:

00000000 <streamInit>:
streamInit():
   0:	b510      	push	{r4, lr}
   2:	2400      	movs	r4, #0
   4:	4620      	mov	r0, r4
   6:	3401      	adds	r4, #1
   8:	b2e4      	uxtb	r4, r4
   a:	f7ff fffe 	bl	0 <streamInit>
   e:	2c04      	cmp	r4, #4
  10:	d1f8      	bne.n	4 <streamInit+0x4>
  12:	bd10      	pop	{r4, pc}

Disassembly of section .text.streamGetSTDIO:

00000000 <streamGetSTDIO>:
streamGetSTDIO():
   0:	4b01      	ldr	r3, [pc, #4]	; (8 <streamGetSTDIO+0x8>)
   2:	7818      	ldrb	r0, [r3, #0]
   4:	4770      	bx	lr
   6:	bf00      	nop
   8:	00000000 	.word	0x00000000

Disassembly of section .text.streamSetSTDIO:

00000000 <streamSetSTDIO>:
streamSetSTDIO():
   0:	4b10      	ldr	r3, [pc, #64]	; (44 <streamSetSTDIO+0x44>)
   2:	2224      	movs	r2, #36	; 0x24
   4:	7018      	strb	r0, [r3, #0]
   6:	4350      	muls	r0, r2
   8:	4b0f      	ldr	r3, [pc, #60]	; (48 <streamSetSTDIO+0x48>)
   a:	181a      	adds	r2, r3, r0
   c:	8851      	ldrh	r1, [r2, #2]
   e:	5a18      	ldrh	r0, [r3, r0]
  10:	8059      	strh	r1, [r3, #2]
  12:	8891      	ldrh	r1, [r2, #4]
  14:	8018      	strh	r0, [r3, #0]
  16:	8099      	strh	r1, [r3, #4]
  18:	88d1      	ldrh	r1, [r2, #6]
  1a:	80d9      	strh	r1, [r3, #6]
  1c:	8911      	ldrh	r1, [r2, #8]
  1e:	8119      	strh	r1, [r3, #8]
  20:	8951      	ldrh	r1, [r2, #10]
  22:	8159      	strh	r1, [r3, #10]
  24:	68d1      	ldr	r1, [r2, #12]
  26:	60d9      	str	r1, [r3, #12]
  28:	6911      	ldr	r1, [r2, #16]
  2a:	6119      	str	r1, [r3, #16]
  2c:	6951      	ldr	r1, [r2, #20]
  2e:	6159      	str	r1, [r3, #20]
  30:	6991      	ldr	r1, [r2, #24]
  32:	6199      	str	r1, [r3, #24]
  34:	f892 1020 	ldrb.w	r1, [r2, #32]
  38:	69d2      	ldr	r2, [r2, #28]
  3a:	f883 1020 	strb.w	r1, [r3, #32]
  3e:	61da      	str	r2, [r3, #28]
  40:	4770      	bx	lr
  42:	bf00      	nop
	...

Disassembly of section .text.streamResetRX:

00000000 <streamResetRX>:
streamResetRX():
   0:	2803      	cmp	r0, #3
   2:	d806      	bhi.n	12 <streamResetRX+0x12>
   4:	4b03      	ldr	r3, [pc, #12]	; (14 <streamResetRX+0x14>)
   6:	2224      	movs	r2, #36	; 0x24
   8:	fb02 3000 	mla	r0, r2, r0, r3
   c:	2300      	movs	r3, #0
   e:	8043      	strh	r3, [r0, #2]
  10:	8083      	strh	r3, [r0, #4]
  12:	4770      	bx	lr
  14:	00000000 	.word	0x00000000

Disassembly of section .text.streamResetTX:

00000000 <streamResetTX>:
streamResetTX():
   0:	2803      	cmp	r0, #3
   2:	d806      	bhi.n	12 <streamResetTX+0x12>
   4:	4b03      	ldr	r3, [pc, #12]	; (14 <streamResetTX+0x14>)
   6:	2224      	movs	r2, #36	; 0x24
   8:	fb02 3000 	mla	r0, r2, r0, r3
   c:	2300      	movs	r3, #0
   e:	8103      	strh	r3, [r0, #8]
  10:	8143      	strh	r3, [r0, #10]
  12:	4770      	bx	lr
  14:	00000000 	.word	0x00000000

Disassembly of section .text.streamTXChar:

00000000 <streamTXChar>:
streamTXChar():
   0:	2803      	cmp	r0, #3
   2:	d813      	bhi.n	2c <streamTXChar+0x2c>
   4:	4b0d      	ldr	r3, [pc, #52]	; (3c <streamTXChar+0x3c>)
   6:	2224      	movs	r2, #36	; 0x24
   8:	fb02 3000 	mla	r0, r2, r0, r3
   c:	8942      	ldrh	r2, [r0, #10]
   e:	b16a      	cbz	r2, 2c <streamTXChar+0x2c>
  10:	3a01      	subs	r2, #1
  12:	8142      	strh	r2, [r0, #10]
  14:	6983      	ldr	r3, [r0, #24]
  16:	8902      	ldrh	r2, [r0, #8]
  18:	5c9b      	ldrb	r3, [r3, r2]
  1a:	3201      	adds	r2, #1
  1c:	808b      	strh	r3, [r1, #4]
  1e:	88c3      	ldrh	r3, [r0, #6]
  20:	fb92 f1f3 	sdiv	r1, r2, r3
  24:	fb03 2311 	mls	r3, r3, r1, r2
  28:	8103      	strh	r3, [r0, #8]
  2a:	4770      	bx	lr
  2c:	898b      	ldrh	r3, [r1, #12]
  2e:	f023 0380 	bic.w	r3, r3, #128	; 0x80
  32:	041b      	lsls	r3, r3, #16
  34:	0c1b      	lsrs	r3, r3, #16
  36:	818b      	strh	r3, [r1, #12]
  38:	4770      	bx	lr
  3a:	bf00      	nop
  3c:	00000000 	.word	0x00000000

Disassembly of section .text.streamEchoChar:

00000000 <streamEchoChar>:
streamEchoChar():
   0:	2300b507 	.word	0x2300b507
   4:	2803      	cmp	r0, #3
   6:	f88d 1004 	strb.w	r1, [sp, #4]
   a:	f88d 3005 	strb.w	r3, [sp, #5]
   e:	d806      	bhi.n	1e <streamEchoChar+0x1e>
  10:	4b03      	ldr	r3, [pc, #12]	; (20 <streamEchoChar+0x20>)
  12:	2224      	movs	r2, #36	; 0x24
  14:	fb02 3000 	mla	r0, r2, r0, r3
  18:	68c3      	ldr	r3, [r0, #12]
  1a:	a801      	add	r0, sp, #4
  1c:	4798      	blx	r3
  1e:	bd0e      	pop	{r1, r2, r3, pc}
  20:	00000000 	.word	0x00000000

Disassembly of section .text.streamGetChar:

00000000 <streamGetChar>:
streamGetChar():
   0:	2803      	cmp	r0, #3
   2:	b530      	push	{r4, r5, lr}
   4:	d812      	bhi.n	2c <streamGetChar+0x2c>
   6:	2124      	movs	r1, #36	; 0x24
   8:	4341      	muls	r1, r0
   a:	4d09      	ldr	r5, [pc, #36]	; (30 <streamGetChar+0x30>)
   c:	186b      	adds	r3, r5, r1
   e:	8898      	ldrh	r0, [r3, #4]
  10:	b168      	cbz	r0, 2e <streamGetChar+0x2e>
  12:	885a      	ldrh	r2, [r3, #2]
  14:	5a69      	ldrh	r1, [r5, r1]
  16:	1c54      	adds	r4, r2, #1
  18:	fb94 f5f1 	sdiv	r5, r4, r1
  1c:	fb01 4115 	mls	r1, r1, r5, r4
  20:	3801      	subs	r0, #1
  22:	8059      	strh	r1, [r3, #2]
  24:	8098      	strh	r0, [r3, #4]
  26:	695b      	ldr	r3, [r3, #20]
  28:	5c98      	ldrb	r0, [r3, r2]
  2a:	bd30      	pop	{r4, r5, pc}
  2c:	2000      	movs	r0, #0
  2e:	bd30      	pop	{r4, r5, pc}
  30:	00000000 	.word	0x00000000

Disassembly of section .text.streamPutChar:

00000000 <streamPutChar>:
streamPutChar():
   0:	2803      	cmp	r0, #3
   2:	b530      	push	{r4, r5, lr}
   4:	d818      	bhi.n	38 <streamPutChar+0x38>
   6:	4b0e      	ldr	r3, [pc, #56]	; (40 <streamPutChar+0x40>)
   8:	2224      	movs	r2, #36	; 0x24
   a:	fb02 3000 	mla	r0, r2, r0, r3
   e:	88c2      	ldrh	r2, [r0, #6]
  10:	8944      	ldrh	r4, [r0, #10]
  12:	1e55      	subs	r5, r2, #1
  14:	42ac      	cmp	r4, r5
  16:	f100 0308 	add.w	r3, r0, #8
  1a:	da0f      	bge.n	3c <streamPutChar+0x3c>
  1c:	8905      	ldrh	r5, [r0, #8]
  1e:	6980      	ldr	r0, [r0, #24]
  20:	192c      	adds	r4, r5, r4
  22:	fb94 f5f2 	sdiv	r5, r4, r2
  26:	fb02 4215 	mls	r2, r2, r5, r4
  2a:	b292      	uxth	r2, r2
  2c:	5481      	strb	r1, [r0, r2]
  2e:	885a      	ldrh	r2, [r3, #2]
  30:	2001      	movs	r0, #1
  32:	3201      	adds	r2, #1
  34:	805a      	strh	r2, [r3, #2]
  36:	bd30      	pop	{r4, r5, pc}
  38:	2000      	movs	r0, #0
  3a:	bd30      	pop	{r4, r5, pc}
  3c:	2000      	movs	r0, #0
  3e:	bd30      	pop	{r4, r5, pc}
  40:	00000000 	.word	0x00000000

Disassembly of section .text.streamFIFOToString:

00000000 <streamFIFOToString>:
streamFIFOToString():
   0:	4604b538 	.word	0x4604b538
   4:	460d      	mov	r5, r1
   6:	e004      	b.n	12 <streamFIFOToString+0x12>
   8:	4620      	mov	r0, r4
   a:	f7ff fffe 	bl	0 <streamFIFOToString>
   e:	f805 0b01 	strb.w	r0, [r5], #1
  12:	4b04      	ldr	r3, [pc, #16]	; (24 <streamFIFOToString+0x24>)
  14:	2224      	movs	r2, #36	; 0x24
  16:	fb02 3304 	mla	r3, r2, r4, r3
  1a:	889b      	ldrh	r3, [r3, #4]
  1c:	2b00      	cmp	r3, #0
  1e:	d1f3      	bne.n	8 <streamFIFOToString+0x8>
  20:	702b      	strb	r3, [r5, #0]
  22:	bd38      	pop	{r3, r4, r5, pc}
  24:	00000000 	.word	0x00000000

Disassembly of section .text.streamIsEmpty:

00000000 <streamIsEmpty>:
streamIsEmpty():
   0:	22244b04 	.word	0x22244b04
   4:	fb02 3300 	mla	r3, r2, r0, r3
   8:	8898      	ldrh	r0, [r3, #4]
   a:	f1d0 0001 	rsbs	r0, r0, #1
   e:	bf38      	it	cc
  10:	2000      	movcc	r0, #0
  12:	4770      	bx	lr
  14:	00000000 	.word	0x00000000

Disassembly of section .text.streamPopChar:

00000000 <streamPopChar>:
streamPopChar():
   0:	2803      	cmp	r0, #3
   2:	b530      	push	{r4, r5, lr}
   4:	d813      	bhi.n	2e <streamPopChar+0x2e>
   6:	2424      	movs	r4, #36	; 0x24
   8:	4344      	muls	r4, r0
   a:	4d0a      	ldr	r5, [pc, #40]	; (34 <streamPopChar+0x34>)
   c:	192b      	adds	r3, r5, r4
   e:	8898      	ldrh	r0, [r3, #4]
  10:	b170      	cbz	r0, 30 <streamPopChar+0x30>
  12:	8859      	ldrh	r1, [r3, #2]
  14:	3801      	subs	r0, #1
  16:	b280      	uxth	r0, r0
  18:	5b2a      	ldrh	r2, [r5, r4]
  1a:	1841      	adds	r1, r0, r1
  1c:	8098      	strh	r0, [r3, #4]
  1e:	fb91 f0f2 	sdiv	r0, r1, r2
  22:	fb02 1210 	mls	r2, r2, r0, r1
  26:	695b      	ldr	r3, [r3, #20]
  28:	b292      	uxth	r2, r2
  2a:	5c98      	ldrb	r0, [r3, r2]
  2c:	bd30      	pop	{r4, r5, pc}
  2e:	2000      	movs	r0, #0
  30:	bd30      	pop	{r4, r5, pc}
  32:	bf00      	nop
  34:	00000000 	.word	0x00000000

Disassembly of section .text.streamPeekChar:

00000000 <streamPeekChar>:
streamPeekChar():
   0:	b5102803 	.word	0xb5102803
   4:	d811      	bhi.n	2a <streamPeekChar+0x2a>
   6:	2124      	movs	r1, #36	; 0x24
   8:	4341      	muls	r1, r0
   a:	4c09      	ldr	r4, [pc, #36]	; (30 <streamPeekChar+0x30>)
   c:	1863      	adds	r3, r4, r1
   e:	8898      	ldrh	r0, [r3, #4]
  10:	b160      	cbz	r0, 2c <streamPeekChar+0x2c>
  12:	885a      	ldrh	r2, [r3, #2]
  14:	695b      	ldr	r3, [r3, #20]
  16:	1810      	adds	r0, r2, r0
  18:	5a62      	ldrh	r2, [r4, r1]
  1a:	3801      	subs	r0, #1
  1c:	fb90 f1f2 	sdiv	r1, r0, r2
  20:	fb02 0011 	mls	r0, r2, r1, r0
  24:	b280      	uxth	r0, r0
  26:	5c18      	ldrb	r0, [r3, r0]
  28:	bd10      	pop	{r4, pc}
  2a:	2000      	movs	r0, #0
  2c:	bd10      	pop	{r4, pc}
  2e:	bf00      	nop
  30:	00000000 	.word	0x00000000

Disassembly of section .text.streamPushChar:

00000000 <streamPushChar>:
streamPushChar():
   0:	2803      	cmp	r0, #3
   2:	b530      	push	{r4, r5, lr}
   4:	d812      	bhi.n	2c <streamPushChar+0x2c>
   6:	2324      	movs	r3, #36	; 0x24
   8:	4358      	muls	r0, r3
   a:	4c09      	ldr	r4, [pc, #36]	; (30 <streamPushChar+0x30>)
   c:	1823      	adds	r3, r4, r0
   e:	889a      	ldrh	r2, [r3, #4]
  10:	5a20      	ldrh	r0, [r4, r0]
  12:	4282      	cmp	r2, r0
  14:	d20a      	bcs.n	2c <streamPushChar+0x2c>
  16:	885c      	ldrh	r4, [r3, #2]
  18:	1914      	adds	r4, r2, r4
  1a:	fb94 f5f0 	sdiv	r5, r4, r0
  1e:	fb00 4015 	mls	r0, r0, r5, r4
  22:	3201      	adds	r2, #1
  24:	809a      	strh	r2, [r3, #4]
  26:	695b      	ldr	r3, [r3, #20]
  28:	b280      	uxth	r0, r0
  2a:	5419      	strb	r1, [r3, r0]
  2c:	bd30      	pop	{r4, r5, pc}
  2e:	bf00      	nop
  30:	00000000 	.word	0x00000000

Disassembly of section .text.streamSetPut:

00000000 <streamSetPut>:
streamSetPut():
   0:	d8062803 	.word	0xd8062803
   4:	4b04      	ldr	r3, [pc, #16]	; (18 <streamSetPut+0x18>)
   6:	2224      	movs	r2, #36	; 0x24
   8:	fb02 3000 	mla	r0, r2, r0, r3
   c:	60c1      	str	r1, [r0, #12]
   e:	2001      	movs	r0, #1
  10:	4770      	bx	lr
  12:	2000      	movs	r0, #0
  14:	4770      	bx	lr
  16:	bf00      	nop
  18:	00000000 	.word	0x00000000

Disassembly of section .text.streamSetGet:

00000000 <streamSetGet>:
streamSetGet():
   0:	2803      	cmp	r0, #3
   2:	d806      	bhi.n	12 <streamSetGet+0x12>
   4:	4b04      	ldr	r3, [pc, #16]	; (18 <streamSetGet+0x18>)
   6:	2224      	movs	r2, #36	; 0x24
   8:	fb02 3000 	mla	r0, r2, r0, r3
   c:	6101      	str	r1, [r0, #16]
   e:	2001      	movs	r0, #1
  10:	4770      	bx	lr
  12:	2000      	movs	r0, #0
  14:	4770      	bx	lr
  16:	bf00      	nop
  18:	00000000 	.word	0x00000000

Disassembly of section .text.streamSetRXBuffer:

00000000 <streamSetRXBuffer>:
streamSetRXBuffer():
   0:	2803      	cmp	r0, #3
   2:	b510      	push	{r4, lr}
   4:	d807      	bhi.n	16 <streamSetRXBuffer+0x16>
   6:	2424      	movs	r4, #36	; 0x24
   8:	4360      	muls	r0, r4
   a:	4b04      	ldr	r3, [pc, #16]	; (1c <streamSetRXBuffer+0x1c>)
   c:	181c      	adds	r4, r3, r0
   e:	521a      	strh	r2, [r3, r0]
  10:	6161      	str	r1, [r4, #20]
  12:	2001      	movs	r0, #1
  14:	bd10      	pop	{r4, pc}
  16:	2000      	movs	r0, #0
  18:	bd10      	pop	{r4, pc}
  1a:	bf00      	nop
  1c:	00000000 	.word	0x00000000

Disassembly of section .text.streamSetTXBuffer:

00000000 <streamSetTXBuffer>:
streamSetTXBuffer():
   0:	2803      	cmp	r0, #3
   2:	b510      	push	{r4, lr}
   4:	d807      	bhi.n	16 <streamSetTXBuffer+0x16>
   6:	4b05      	ldr	r3, [pc, #20]	; (1c <streamSetTXBuffer+0x1c>)
   8:	2424      	movs	r4, #36	; 0x24
   a:	fb04 3000 	mla	r0, r4, r0, r3
   e:	6181      	str	r1, [r0, #24]
  10:	80c2      	strh	r2, [r0, #6]
  12:	2001      	movs	r0, #1
  14:	bd10      	pop	{r4, pc}
  16:	2000      	movs	r0, #0
  18:	bd10      	pop	{r4, pc}
  1a:	bf00      	nop
  1c:	00000000 	.word	0x00000000

Disassembly of section .text.streamSetActionChars:

00000000 <streamSetActionChars>:
streamSetActionChars():
   0:	22244b02 	.word	0x22244b02
   4:	fb02 3300 	mla	r3, r2, r0, r3
   8:	61d9      	str	r1, [r3, #28]
   a:	4770      	bx	lr
   c:	00000000 	.word	0x00000000

Disassembly of section .text.streamDisableDefaultGet:

00000000 <streamDisableDefaultGet>:
streamDisableDefaultGet():
   0:	4b05      	ldr	r3, [pc, #20]	; (18 <streamDisableDefaultGet+0x18>)
   2:	2224      	movs	r2, #36	; 0x24
   4:	fb02 3300 	mla	r3, r2, r0, r3
   8:	f893 2020 	ldrb.w	r2, [r3, #32]
   c:	f042 0220 	orr.w	r2, r2, #32
  10:	f883 2020 	strb.w	r2, [r3, #32]
  14:	4770      	bx	lr
  16:	bf00      	nop
  18:	00000000 	.word	0x00000000

Disassembly of section .text.streamEnableDefaultGet:

00000000 <streamEnableDefaultGet>:
streamEnableDefaultGet():
   0:	4b05      	ldr	r3, [pc, #20]	; (18 <streamEnableDefaultGet+0x18>)
   2:	2224      	movs	r2, #36	; 0x24
   4:	fb02 3300 	mla	r3, r2, r0, r3
   8:	f893 2020 	ldrb.w	r2, [r3, #32]
   c:	f022 0220 	bic.w	r2, r2, #32
  10:	f883 2020 	strb.w	r2, [r3, #32]
  14:	4770      	bx	lr
  16:	bf00      	nop
  18:	00000000 	.word	0x00000000

Disassembly of section .text.streamGetEcho:

00000000 <streamGetEcho>:
streamGetEcho():
   0:	22244b04 	.word	0x22244b04
   4:	fb02 3300 	mla	r3, r2, r0, r3
   8:	f893 0020 	ldrb.w	r0, [r3, #32]
   c:	f000 0002 	and.w	r0, r0, #2
  10:	4770      	bx	lr
  12:	bf00      	nop
  14:	00000000 	.word	0x00000000

Disassembly of section .text.streamEnableEcho:

00000000 <streamEnableEcho>:
streamEnableEcho():
   0:	4b05      	ldr	r3, [pc, #20]	; (18 <streamEnableEcho+0x18>)
   2:	2224      	movs	r2, #36	; 0x24
   4:	fb02 3300 	mla	r3, r2, r0, r3
   8:	f893 2020 	ldrb.w	r2, [r3, #32]
   c:	f042 0202 	orr.w	r2, r2, #2
  10:	f883 2020 	strb.w	r2, [r3, #32]
  14:	4770      	bx	lr
  16:	bf00      	nop
  18:	00000000 	.word	0x00000000

Disassembly of section .text.streamDisableEcho:

00000000 <streamDisableEcho>:
streamDisableEcho():
   0:	4b05      	ldr	r3, [pc, #20]	; (18 <streamDisableEcho+0x18>)
   2:	2224      	movs	r2, #36	; 0x24
   4:	fb02 3300 	mla	r3, r2, r0, r3
   8:	f893 2020 	ldrb.w	r2, [r3, #32]
   c:	f022 0202 	bic.w	r2, r2, #2
  10:	f883 2020 	strb.w	r2, [r3, #32]
  14:	4770      	bx	lr
  16:	bf00      	nop
  18:	00000000 	.word	0x00000000

Disassembly of section .text.streamEnableActionChars:

00000000 <streamEnableActionChars>:
streamEnableActionChars():
   0:	4b05      	ldr	r3, [pc, #20]	; (18 <streamEnableActionChars+0x18>)
   2:	2224      	movs	r2, #36	; 0x24
   4:	fb02 3300 	mla	r3, r2, r0, r3
   8:	f893 2020 	ldrb.w	r2, [r3, #32]
   c:	f042 0208 	orr.w	r2, r2, #8
  10:	f883 2020 	strb.w	r2, [r3, #32]
  14:	4770      	bx	lr
  16:	bf00      	nop
  18:	00000000 	.word	0x00000000

Disassembly of section .text.streamDisableActionChars:

00000000 <streamDisableActionChars>:
streamDisableActionChars():
   0:	4b05      	ldr	r3, [pc, #20]	; (18 <streamDisableActionChars+0x18>)
   2:	2224      	movs	r2, #36	; 0x24
   4:	fb02 3300 	mla	r3, r2, r0, r3
   8:	f893 2020 	ldrb.w	r2, [r3, #32]
   c:	f022 0208 	bic.w	r2, r2, #8
  10:	f883 2020 	strb.w	r2, [r3, #32]
  14:	4770      	bx	lr
  16:	bf00      	nop
  18:	00000000 	.word	0x00000000

Disassembly of section .text.streamEnableBackspace:

00000000 <streamEnableBackspace>:
streamEnableBackspace():
   0:	4b05      	ldr	r3, [pc, #20]	; (18 <streamEnableBackspace+0x18>)
   2:	2224      	movs	r2, #36	; 0x24
   4:	fb02 3300 	mla	r3, r2, r0, r3
   8:	f893 2020 	ldrb.w	r2, [r3, #32]
   c:	f042 0204 	orr.w	r2, r2, #4
  10:	f883 2020 	strb.w	r2, [r3, #32]
  14:	4770      	bx	lr
  16:	bf00      	nop
  18:	00000000 	.word	0x00000000

Disassembly of section .text.streamDisableBackspace:

00000000 <streamDisableBackspace>:
streamDisableBackspace():
   0:	4b05      	ldr	r3, [pc, #20]	; (18 <streamDisableBackspace+0x18>)
   2:	2224      	movs	r2, #36	; 0x24
   4:	fb02 3300 	mla	r3, r2, r0, r3
   8:	f893 2020 	ldrb.w	r2, [r3, #32]
   c:	f022 0204 	bic.w	r2, r2, #4
  10:	f883 2020 	strb.w	r2, [r3, #32]
  14:	4770      	bx	lr
  16:	bf00      	nop
  18:	00000000 	.word	0x00000000

Disassembly of section .text.streamHandler:

00000000 <streamHandler>:
streamHandler():
   0:	e92d 41f0 	stmdb	sp!, {r4, r5, r6, r7, r8, lr}
   4:	4f1b      	ldr	r7, [pc, #108]	; (74 <streamHandler+0x74>)
   6:	f04f 0824 	mov.w	r8, #36	; 0x24
   a:	fb08 7800 	mla	r8, r8, r0, r7
   e:	4604      	mov	r4, r0
  10:	460d      	mov	r5, r1
  12:	4608      	mov	r0, r1
  14:	f8d8 101c 	ldr.w	r1, [r8, #28]
  18:	f7ff fffe 	bl	0 <isCharInString>
  1c:	f898 3020 	ldrb.w	r3, [r8, #32]
  20:	b2c6      	uxtb	r6, r0
  22:	f013 0f02 	tst.w	r3, #2
  26:	d004      	beq.n	32 <streamHandler+0x32>
  28:	b91e      	cbnz	r6, 32 <streamHandler+0x32>
  2a:	4620      	mov	r0, r4
  2c:	4629      	mov	r1, r5
  2e:	f7ff fffe 	bl	0 <streamHandler>
  32:	2324      	movs	r3, #36	; 0x24
  34:	fb03 7304 	mla	r3, r3, r4, r7
  38:	f893 3020 	ldrb.w	r3, [r3, #32]
  3c:	f013 0f04 	tst.w	r3, #4
  40:	d005      	beq.n	4e <streamHandler+0x4e>
  42:	2d08      	cmp	r5, #8
  44:	d103      	bne.n	4e <streamHandler+0x4e>
  46:	4620      	mov	r0, r4
  48:	f7ff fffe 	bl	0 <streamHandler>
  4c:	e003      	b.n	56 <streamHandler+0x56>
  4e:	4620      	mov	r0, r4
  50:	4629      	mov	r1, r5
  52:	f7ff fffe 	bl	0 <streamHandler>
  56:	2324      	movs	r3, #36	; 0x24
  58:	fb03 7404 	mla	r4, r3, r4, r7
  5c:	6923      	ldr	r3, [r4, #16]
  5e:	b133      	cbz	r3, 6e <streamHandler+0x6e>
  60:	f894 2020 	ldrb.w	r2, [r4, #32]
  64:	f012 0f08 	tst.w	r2, #8
  68:	d000      	beq.n	6c <streamHandler+0x6c>
  6a:	b106      	cbz	r6, 6e <streamHandler+0x6e>
  6c:	4798      	blx	r3
  6e:	e8bd 81f0 	ldmia.w	sp!, {r4, r5, r6, r7, r8, pc}
  72:	bf00      	nop
  74:	00000000 	.word	0x00000000

Disassembly of section .text.USART3_IRQHandler:

00000000 <USART3_IRQHandler>:
USART3_IRQHandler():
   0:	4b0fb510 	.word	0x4b0fb510
   4:	881a      	ldrh	r2, [r3, #0]
   6:	f012 0f20 	tst.w	r2, #32
   a:	d00d      	beq.n	28 <USART3_IRQHandler+0x28>
   c:	4a0d      	ldr	r2, [pc, #52]	; (44 <USART3_IRQHandler+0x44>)
   e:	f892 1044 	ldrb.w	r1, [r2, #68]	; 0x44
  12:	f011 0f20 	tst.w	r1, #32
  16:	d002      	beq.n	1e <USART3_IRQHandler+0x1e>
  18:	6b53      	ldr	r3, [r2, #52]	; 0x34
  1a:	4798      	blx	r3
  1c:	e004      	b.n	28 <USART3_IRQHandler+0x28>
  1e:	8899      	ldrh	r1, [r3, #4]
  20:	2001      	movs	r0, #1
  22:	b2c9      	uxtb	r1, r1
  24:	f7ff fffe 	bl	0 <USART3_IRQHandler>
  28:	4c05      	ldr	r4, [pc, #20]	; (40 <USART3_IRQHandler+0x40>)
  2a:	8823      	ldrh	r3, [r4, #0]
  2c:	f013 0f80 	tst.w	r3, #128	; 0x80
  30:	d003      	beq.n	3a <USART3_IRQHandler+0x3a>
  32:	2001      	movs	r0, #1
  34:	4621      	mov	r1, r4
  36:	f7ff fffe 	bl	0 <USART3_IRQHandler>
  3a:	2300      	movs	r3, #0
  3c:	8023      	strh	r3, [r4, #0]
  3e:	bd10      	pop	{r4, pc}
  40:	40004800 	.word	0x40004800
  44:	00000000 	.word	0x00000000

Disassembly of section .text.putcUSART3:

00000000 <putcUSART3>:
putcUSART3():
   0:	737af44f 	.word	0x737af44f
   4:	4a06      	ldr	r2, [pc, #24]	; (20 <putcUSART3+0x20>)
   6:	8811      	ldrh	r1, [r2, #0]
   8:	f011 0f80 	tst.w	r1, #128	; 0x80
   c:	d002      	beq.n	14 <putcUSART3+0x14>
   e:	8090      	strh	r0, [r2, #4]
  10:	2001      	movs	r0, #1
  12:	4770      	bx	lr
  14:	3b01      	subs	r3, #1
  16:	b29b      	uxth	r3, r3
  18:	2b00      	cmp	r3, #0
  1a:	d1f3      	bne.n	4 <putcUSART3+0x4>
  1c:	4618      	mov	r0, r3
  1e:	4770      	bx	lr
  20:	40004800 	.word	0x40004800

Disassembly of section .text.putBufferUSART3:

00000000 <putBufferUSART3>:
putBufferUSART3():
   0:	b570      	push	{r4, r5, r6, lr}
   2:	460e      	mov	r6, r1
   4:	4605      	mov	r5, r0
   6:	2400      	movs	r4, #0
   8:	e005      	b.n	16 <putBufferUSART3+0x16>
   a:	f815 0b01 	ldrb.w	r0, [r5], #1
   e:	f7ff fffe 	bl	0 <putBufferUSART3>
  12:	3401      	adds	r4, #1
  14:	b2a4      	uxth	r4, r4
  16:	42b4      	cmp	r4, r6
  18:	d3f7      	bcc.n	a <putBufferUSART3+0xa>
  1a:	bd70      	pop	{r4, r5, r6, pc}

Disassembly of section .text.putsUSART3:

00000000 <putsUSART3>:
putsUSART3():
   0:	b510      	push	{r4, lr}
   2:	4604      	mov	r4, r0
   4:	e002      	b.n	c <putsUSART3+0xc>
   6:	f7ff fffe 	bl	0 <putsUSART3>
   a:	b120      	cbz	r0, 16 <putsUSART3+0x16>
   c:	f814 0b01 	ldrb.w	r0, [r4], #1
  10:	2800      	cmp	r0, #0
  12:	d1f8      	bne.n	6 <putsUSART3+0x6>
  14:	3001      	adds	r0, #1
  16:	bd10      	pop	{r4, pc}

Disassembly of section .text.putsUSART3FIFO:

00000000 <putsUSART3FIFO>:
putsUSART3FIFO():
   0:	b570      	push	{r4, r5, r6, lr}
   2:	4606      	mov	r6, r0
   4:	2400      	movs	r4, #0
   6:	e018      	b.n	3a <putsUSART3FIFO+0x3a>
   8:	4a0e      	ldr	r2, [pc, #56]	; (44 <putsUSART3FIFO+0x44>)
   a:	2580      	movs	r5, #128	; 0x80
   c:	8993      	ldrh	r3, [r2, #12]
   e:	f023 0380 	bic.w	r3, r3, #128	; 0x80
  12:	041b      	lsls	r3, r3, #16
  14:	0c1b      	lsrs	r3, r3, #16
  16:	8193      	strh	r3, [r2, #12]
  18:	2001      	movs	r0, #1
  1a:	5d31      	ldrb	r1, [r6, r4]
  1c:	f7ff fffe 	bl	0 <putsUSART3FIFO>
  20:	b108      	cbz	r0, 26 <putsUSART3FIFO+0x26>
  22:	3401      	adds	r4, #1
  24:	e009      	b.n	3a <putsUSART3FIFO+0x3a>
  26:	4b07      	ldr	r3, [pc, #28]	; (44 <putsUSART3FIFO+0x44>)
  28:	3d01      	subs	r5, #1
  2a:	899a      	ldrh	r2, [r3, #12]
  2c:	b2ad      	uxth	r5, r5
  2e:	b292      	uxth	r2, r2
  30:	f042 0280 	orr.w	r2, r2, #128	; 0x80
  34:	819a      	strh	r2, [r3, #12]
  36:	2d00      	cmp	r5, #0
  38:	d1ee      	bne.n	18 <putsUSART3FIFO+0x18>
  3a:	5d33      	ldrb	r3, [r6, r4]
  3c:	2b00      	cmp	r3, #0
  3e:	d1e3      	bne.n	8 <putsUSART3FIFO+0x8>
  40:	2001      	movs	r0, #1
  42:	bd70      	pop	{r4, r5, r6, pc}
  44:	40004800 	.word	0x40004800
