
C:\Users\MightyDubster\Documents\Projects\pygmyos.code\Gems\pygmy_fpec.o:     file format elf32-littlearm
C:\Users\MightyDubster\Documents\Projects\pygmyos.code\Gems\pygmy_fpec.o


Disassembly of section .text.fpecGetID:

00000000 <fpecGetID>:
fpecGetID():
   0:	4a0c      	ldr	r2, [pc, #48]	; (34 <fpecGetID+0x34>)
   2:	8813      	ldrh	r3, [r2, #0]
   4:	b29b      	uxth	r3, r3
   6:	f5b3 7f00 	cmp.w	r3, #512	; 0x200
   a:	4b0b      	ldr	r3, [pc, #44]	; (38 <fpecGetID+0x38>)
   c:	d301      	bcc.n	12 <fpecGetID+0x12>
   e:	4a0b      	ldr	r2, [pc, #44]	; (3c <fpecGetID+0x3c>)
  10:	e004      	b.n	1c <fpecGetID+0x1c>
  12:	8811      	ldrh	r1, [r2, #0]
  14:	4a0a      	ldr	r2, [pc, #40]	; (40 <fpecGetID+0x40>)
  16:	b289      	uxth	r1, r1
  18:	188a      	adds	r2, r1, r2
  1a:	0292      	lsls	r2, r2, #10
  1c:	601a      	str	r2, [r3, #0]
  1e:	681b      	ldr	r3, [r3, #0]
  20:	4a08      	ldr	r2, [pc, #32]	; (44 <fpecGetID+0x44>)
  22:	6819      	ldr	r1, [r3, #0]
  24:	f1b1 3fff 	cmp.w	r1, #4294967295
  28:	bf08      	it	eq
  2a:	4613      	moveq	r3, r2
  2c:	6818      	ldr	r0, [r3, #0]
  2e:	0500      	lsls	r0, r0, #20
  30:	0d00      	lsrs	r0, r0, #20
  32:	4770      	bx	lr
  34:	1ffff7e0 	.word	0x1ffff7e0
  38:	00000000 	.word	0x00000000
  3c:	080ff000 	.word	0x080ff000
  40:	0001fffe 	.word	0x0001fffe
  44:	e0042000 	.word	0xe0042000

Disassembly of section .text.fpecUnlock:

00000000 <fpecUnlock>:
fpecUnlock():
   0:	49054b04 	.word	0x49054b04
   4:	4a05      	ldr	r2, [pc, #20]	; (1c <fpecUnlock+0x1c>)
   6:	b110      	cbz	r0, e <fpecUnlock+0xe>
   8:	6459      	str	r1, [r3, #68]	; 0x44
   a:	645a      	str	r2, [r3, #68]	; 0x44
   c:	4770      	bx	lr
   e:	6059      	str	r1, [r3, #4]
  10:	605a      	str	r2, [r3, #4]
  12:	4770      	bx	lr
  14:	40022000 	.word	0x40022000
  18:	45670123 	.word	0x45670123
  1c:	cdef89ab 	.word	0xcdef89ab

Disassembly of section .text.fpecLock:

00000000 <fpecLock>:
fpecLock():
   0:	691a4b02 	.word	0x691a4b02
   4:	f042 0280 	orr.w	r2, r2, #128	; 0x80
   8:	611a      	str	r2, [r3, #16]
   a:	4770      	bx	lr
   c:	40022000 	.word	0x40022000

Disassembly of section .text.fpecWriteWord:

00000000 <fpecWriteWord>:
fpecWriteWord():
   0:	b538      	push	{r3, r4, r5, lr}
   2:	4b18      	ldr	r3, [pc, #96]	; (64 <fpecWriteWord+0x64>)
   4:	4604      	mov	r4, r0
   6:	4298      	cmp	r0, r3
   8:	460d      	mov	r5, r1
   a:	4b17      	ldr	r3, [pc, #92]	; (68 <fpecWriteWord+0x68>)
   c:	d912      	bls.n	34 <fpecWriteWord+0x34>
   e:	6d1b      	ldr	r3, [r3, #80]	; 0x50
  10:	f013 0f80 	tst.w	r3, #128	; 0x80
  14:	d002      	beq.n	1c <fpecWriteWord+0x1c>
  16:	2001      	movs	r0, #1
  18:	f7ff fffe 	bl	0 <fpecWriteWord>
  1c:	4b12      	ldr	r3, [pc, #72]	; (68 <fpecWriteWord+0x68>)
  1e:	6d1a      	ldr	r2, [r3, #80]	; 0x50
  20:	f042 0201 	orr.w	r2, r2, #1
  24:	651a      	str	r2, [r3, #80]	; 0x50
  26:	8025      	strh	r5, [r4, #0]
  28:	4b0f      	ldr	r3, [pc, #60]	; (68 <fpecWriteWord+0x68>)
  2a:	6cdb      	ldr	r3, [r3, #76]	; 0x4c
  2c:	f013 0f01 	tst.w	r3, #1
  30:	d1fa      	bne.n	28 <fpecWriteWord+0x28>
  32:	e011      	b.n	58 <fpecWriteWord+0x58>
  34:	691b      	ldr	r3, [r3, #16]
  36:	f013 0f80 	tst.w	r3, #128	; 0x80
  3a:	d002      	beq.n	42 <fpecWriteWord+0x42>
  3c:	2000      	movs	r0, #0
  3e:	f7ff fffe 	bl	0 <fpecWriteWord>
  42:	4b09      	ldr	r3, [pc, #36]	; (68 <fpecWriteWord+0x68>)
  44:	691a      	ldr	r2, [r3, #16]
  46:	f042 0201 	orr.w	r2, r2, #1
  4a:	611a      	str	r2, [r3, #16]
  4c:	8025      	strh	r5, [r4, #0]
  4e:	4b06      	ldr	r3, [pc, #24]	; (68 <fpecWriteWord+0x68>)
  50:	68db      	ldr	r3, [r3, #12]
  52:	f013 0f01 	tst.w	r3, #1
  56:	d1fa      	bne.n	4e <fpecWriteWord+0x4e>
  58:	8820      	ldrh	r0, [r4, #0]
  5a:	1b43      	subs	r3, r0, r5
  5c:	4258      	negs	r0, r3
  5e:	eb40 0003 	adc.w	r0, r0, r3
  62:	bd38      	pop	{r3, r4, r5, pc}
  64:	0807ffff 	.word	0x0807ffff
  68:	40022000 	.word	0x40022000

Disassembly of section .text.fpecWriteLong:

00000000 <fpecWriteLong>:
fpecWriteLong():
   0:	b570      	push	{r4, r5, r6, lr}
   2:	460c      	mov	r4, r1
   4:	b289      	uxth	r1, r1
   6:	4606      	mov	r6, r0
   8:	f7ff fffe 	bl	0 <fpecWriteLong>
   c:	0c21      	lsrs	r1, r4, #16
   e:	4605      	mov	r5, r0
  10:	1cb0      	adds	r0, r6, #2
  12:	f7ff fffe 	bl	0 <fpecWriteLong>
  16:	4028      	ands	r0, r5
  18:	b2c0      	uxtb	r0, r0
  1a:	bd70      	pop	{r4, r5, r6, pc}

Disassembly of section .text.fpecProcessIHEX:

00000000 <fpecProcessIHEX>:
fpecProcessIHEX():
   0:	b5f0      	push	{r4, r5, r6, r7, lr}
   2:	b091      	sub	sp, #68	; 0x44
   4:	4669      	mov	r1, sp
   6:	f7ff fffe 	bl	0 <convertHexEncodedStringToBuffer>
   a:	f89d 3003 	ldrb.w	r3, [sp, #3]
   e:	f89d 7000 	ldrb.w	r7, [sp]
  12:	2b05      	cmp	r3, #5
  14:	d845      	bhi.n	a2 <fpecProcessIHEX+0xa2>
  16:	e8df f003 	tbb	[pc, r3]
  1a:	0305      	.short	0x0305
  1c:	342c4444 	.word	0x342c4444
  20:	20ff      	movs	r0, #255	; 0xff
  22:	e03f      	b.n	a4 <fpecProcessIHEX+0xa4>
  24:	f89d 5001 	ldrb.w	r5, [sp, #1]
  28:	f89d 3002 	ldrb.w	r3, [sp, #2]
  2c:	4e1e      	ldr	r6, [pc, #120]	; (a8 <fpecProcessIHEX+0xa8>)
  2e:	022d      	lsls	r5, r5, #8
  30:	18ed      	adds	r5, r5, r3
  32:	7933      	ldrb	r3, [r6, #4]
  34:	6035      	str	r5, [r6, #0]
  36:	b93b      	cbnz	r3, 48 <fpecProcessIHEX+0x48>
  38:	68b0      	ldr	r0, [r6, #8]
  3a:	f64f 71ff 	movw	r1, #65535	; 0xffff
  3e:	1828      	adds	r0, r5, r0
  40:	f7ff fffe 	bl	0 <fpecProcessIHEX>
  44:	2301      	movs	r3, #1
  46:	7133      	strb	r3, [r6, #4]
  48:	2400      	movs	r4, #0
  4a:	e00f      	b.n	6c <fpecProcessIHEX+0x6c>
  4c:	aa10      	add	r2, sp, #64	; 0x40
  4e:	1913      	adds	r3, r2, r4
  50:	68b0      	ldr	r0, [r6, #8]
  52:	f813 1c3b 	ldrb.w	r1, [r3, #-59]
  56:	f813 3c3c 	ldrb.w	r3, [r3, #-60]
  5a:	1828      	adds	r0, r5, r0
  5c:	1900      	adds	r0, r0, r4
  5e:	ea43 2101 	orr.w	r1, r3, r1, lsl #8
  62:	f7ff fffe 	bl	0 <fpecProcessIHEX>
  66:	b1e8      	cbz	r0, a4 <fpecProcessIHEX+0xa4>
  68:	3402      	adds	r4, #2
  6a:	b2a4      	uxth	r4, r4
  6c:	42bc      	cmp	r4, r7
  6e:	d3ed      	bcc.n	4c <fpecProcessIHEX+0x4c>
  70:	e017      	b.n	a2 <fpecProcessIHEX+0xa2>
  72:	f89d 2004 	ldrb.w	r2, [sp, #4]
  76:	f89d 3005 	ldrb.w	r3, [sp, #5]
  7a:	0612      	lsls	r2, r2, #24
  7c:	ea42 4203 	orr.w	r2, r2, r3, lsl #16
  80:	e00d      	b.n	9e <fpecProcessIHEX+0x9e>
  82:	f89d 2005 	ldrb.w	r2, [sp, #5]
  86:	f89d 3004 	ldrb.w	r3, [sp, #4]
  8a:	0412      	lsls	r2, r2, #16
  8c:	ea42 6203 	orr.w	r2, r2, r3, lsl #24
  90:	f89d 3007 	ldrb.w	r3, [sp, #7]
  94:	431a      	orrs	r2, r3
  96:	f89d 3006 	ldrb.w	r3, [sp, #6]
  9a:	ea42 2203 	orr.w	r2, r2, r3, lsl #8
  9e:	4b02      	ldr	r3, [pc, #8]	; (a8 <fpecProcessIHEX+0xa8>)
  a0:	609a      	str	r2, [r3, #8]
  a2:	2001      	movs	r0, #1
  a4:	b011      	add	sp, #68	; 0x44
  a6:	bdf0      	pop	{r4, r5, r6, r7, pc}
  a8:	00000000 	.word	0x00000000

Disassembly of section .text.fpecWriteDescriptor:

00000000 <fpecWriteDescriptor>:
fpecWriteDescriptor():
   0:	46024b06 	.word	0x46024b06
   4:	681b      	ldr	r3, [r3, #0]
   6:	eb03 0080 	add.w	r0, r3, r0, lsl #2
   a:	f853 3022 	ldr.w	r3, [r3, r2, lsl #2]
   e:	f1b3 3fff 	cmp.w	r3, #4294967295
  12:	d101      	bne.n	6 <fpecWriteDescriptor+0x6>
  14:	f7ff bffe 	b.w	0 <fpecWriteDescriptor>
  18:	2000      	movs	r0, #0
  1a:	4770      	bx	lr
  1c:	00000000 	.word	0x00000000

Disassembly of section .text.fpecErasePage:

00000000 <fpecErasePage>:
fpecErasePage():
   0:	b570      	push	{r4, r5, r6, lr}
   2:	4b2a      	ldr	r3, [pc, #168]	; (ac <fpecErasePage+0xac>)
   4:	4605      	mov	r5, r0
   6:	881e      	ldrh	r6, [r3, #0]
   8:	4602      	mov	r2, r0
   a:	b2b6      	uxth	r6, r6
   c:	f5b6 7f00 	cmp.w	r6, #512	; 0x200
  10:	bf34      	ite	cc
  12:	f44f 7680 	movcc.w	r6, #256	; 0x100
  16:	f44f 7600 	movcs.w	r6, #512	; 0x200
  1a:	2300      	movs	r3, #0
  1c:	f852 1b04 	ldr.w	r1, [r2], #4
  20:	f1b1 3fff 	cmp.w	r1, #4294967295
  24:	d103      	bne.n	2e <fpecErasePage+0x2e>
  26:	3301      	adds	r3, #1
  28:	b29b      	uxth	r3, r3
  2a:	42b3      	cmp	r3, r6
  2c:	d3f6      	bcc.n	1c <fpecErasePage+0x1c>
  2e:	42b3      	cmp	r3, r6
  30:	d038      	beq.n	a4 <fpecErasePage+0xa4>
  32:	4b1f      	ldr	r3, [pc, #124]	; (b0 <fpecErasePage+0xb0>)
  34:	4c1f      	ldr	r4, [pc, #124]	; (b4 <fpecErasePage+0xb4>)
  36:	429d      	cmp	r5, r3
  38:	d915      	bls.n	66 <fpecErasePage+0x66>
  3a:	2001      	movs	r0, #1
  3c:	f7ff fffe 	bl	0 <fpecErasePage>
  40:	6d23      	ldr	r3, [r4, #80]	; 0x50
  42:	f043 0302 	orr.w	r3, r3, #2
  46:	6523      	str	r3, [r4, #80]	; 0x50
  48:	6565      	str	r5, [r4, #84]	; 0x54
  4a:	6d23      	ldr	r3, [r4, #80]	; 0x50
  4c:	f043 0340 	orr.w	r3, r3, #64	; 0x40
  50:	6523      	str	r3, [r4, #80]	; 0x50
  52:	4b18      	ldr	r3, [pc, #96]	; (b4 <fpecErasePage+0xb4>)
  54:	6cda      	ldr	r2, [r3, #76]	; 0x4c
  56:	f012 0f01 	tst.w	r2, #1
  5a:	d1fa      	bne.n	52 <fpecErasePage+0x52>
  5c:	6d1a      	ldr	r2, [r3, #80]	; 0x50
  5e:	f022 0242 	bic.w	r2, r2, #66	; 0x42
  62:	651a      	str	r2, [r3, #80]	; 0x50
  64:	e014      	b.n	90 <fpecErasePage+0x90>
  66:	2000      	movs	r0, #0
  68:	f7ff fffe 	bl	0 <fpecErasePage>
  6c:	6923      	ldr	r3, [r4, #16]
  6e:	f043 0302 	orr.w	r3, r3, #2
  72:	6123      	str	r3, [r4, #16]
  74:	6165      	str	r5, [r4, #20]
  76:	6923      	ldr	r3, [r4, #16]
  78:	f043 0340 	orr.w	r3, r3, #64	; 0x40
  7c:	6123      	str	r3, [r4, #16]
  7e:	4b0d      	ldr	r3, [pc, #52]	; (b4 <fpecErasePage+0xb4>)
  80:	68da      	ldr	r2, [r3, #12]
  82:	f012 0f01 	tst.w	r2, #1
  86:	d1fa      	bne.n	7e <fpecErasePage+0x7e>
  88:	691a      	ldr	r2, [r3, #16]
  8a:	f022 0242 	bic.w	r2, r2, #66	; 0x42
  8e:	611a      	str	r2, [r3, #16]
  90:	2300      	movs	r3, #0
  92:	f855 2b04 	ldr.w	r2, [r5], #4
  96:	f1b2 3fff 	cmp.w	r2, #4294967295
  9a:	d105      	bne.n	a8 <fpecErasePage+0xa8>
  9c:	3301      	adds	r3, #1
  9e:	b29b      	uxth	r3, r3
  a0:	42b3      	cmp	r3, r6
  a2:	d3f6      	bcc.n	92 <fpecErasePage+0x92>
  a4:	2001      	movs	r0, #1
  a6:	bd70      	pop	{r4, r5, r6, pc}
  a8:	2000      	movs	r0, #0
  aa:	bd70      	pop	{r4, r5, r6, pc}
  ac:	1ffff7e0 	.word	0x1ffff7e0
  b0:	0807ffff 	.word	0x0807ffff
  b4:	40022000 	.word	0x40022000

Disassembly of section .text.fpecEraseProgramMemory:

00000000 <fpecEraseProgramMemory>:
fpecEraseProgramMemory():
   0:	4b13b5f8 	.word	0x4b13b5f8
   4:	881a      	ldrh	r2, [r3, #0]
   6:	b292      	uxth	r2, r2
   8:	f5b2 7f00 	cmp.w	r2, #512	; 0x200
   c:	d30c      	bcc.n	28 <fpecEraseProgramMemory+0x28>
   e:	881f      	ldrh	r7, [r3, #0]
  10:	f44f 6500 	mov.w	r5, #2048	; 0x800
  14:	b2bf      	uxth	r7, r7
  16:	087f      	lsrs	r7, r7, #1
  18:	3f02      	subs	r7, #2
  1a:	b2bf      	uxth	r7, r7
  1c:	2404      	movs	r4, #4
  1e:	fb04 f605 	mul.w	r6, r4, r5
  22:	f106 6600 	add.w	r6, r6, #134217728	; 0x8000000
  26:	e00e      	b.n	46 <fpecEraseProgramMemory+0x46>
  28:	881f      	ldrh	r7, [r3, #0]
  2a:	f44f 6580 	mov.w	r5, #1024	; 0x400
  2e:	3f02      	subs	r7, #2
  30:	b2bf      	uxth	r7, r7
  32:	2408      	movs	r4, #8
  34:	e7f3      	b.n	1e <fpecEraseProgramMemory+0x1e>
  36:	4b07      	ldr	r3, [pc, #28]	; (54 <fpecEraseProgramMemory+0x54>)
  38:	f64a 22aa 	movw	r2, #43690	; 0xaaaa
  3c:	601a      	str	r2, [r3, #0]
  3e:	1b70      	subs	r0, r6, r5
  40:	f7ff fffe 	bl	0 <fpecEraseProgramMemory>
  44:	3401      	adds	r4, #1
  46:	42bc      	cmp	r4, r7
  48:	442e      	add	r6, r5
  4a:	d3f4      	bcc.n	36 <fpecEraseProgramMemory+0x36>
  4c:	2001      	movs	r0, #1
  4e:	bdf8      	pop	{r3, r4, r5, r6, r7, pc}
  50:	1ffff7e0 	.word	0x1ffff7e0
  54:	40003000 	.word	0x40003000
