
C:\Users\MightyDubster\Documents\Projects\pygmyos.code\Gems\pygmy_audio.o:     file format elf32-littlearm
C:\Users\MightyDubster\Documents\Projects\pygmyos.code\Gems\pygmy_audio.o


Disassembly of section .text.DMA1_Channel3_IRQHandler:

00000000 <DMA1_Channel3_IRQHandler>:
DMA1_Channel3_IRQHandler():
   0:	b538      	push	{r3, r4, r5, lr}
   2:	4b15      	ldr	r3, [pc, #84]	; (58 <DMA1_Channel3_IRQHandler+0x58>)
   4:	681a      	ldr	r2, [r3, #0]
   6:	f412 6f80 	tst.w	r2, #1024	; 0x400
   a:	d103      	bne.n	14 <DMA1_Channel3_IRQHandler+0x14>
   c:	f44f 6270 	mov.w	r2, #3840	; 0xf00
  10:	605a      	str	r2, [r3, #4]
  12:	bd38      	pop	{r3, r4, r5, pc}
  14:	4c11      	ldr	r4, [pc, #68]	; (5c <DMA1_Channel3_IRQHandler+0x5c>)
  16:	4d12      	ldr	r5, [pc, #72]	; (60 <DMA1_Channel3_IRQHandler+0x60>)
  18:	7822      	ldrb	r2, [r4, #0]
  1a:	4812      	ldr	r0, [pc, #72]	; (64 <DMA1_Channel3_IRQHandler+0x64>)
  1c:	0252      	lsls	r2, r2, #9
  1e:	f44f 7100 	mov.w	r1, #512	; 0x200
  22:	18aa      	adds	r2, r5, r2
  24:	f7ff fffe 	bl	0 <fileGetBuffer>
  28:	7823      	ldrb	r3, [r4, #0]
  2a:	b123      	cbz	r3, 36 <DMA1_Channel3_IRQHandler+0x36>
  2c:	2300      	movs	r3, #0
  2e:	7023      	strb	r3, [r4, #0]
  30:	4b0d      	ldr	r3, [pc, #52]	; (68 <DMA1_Channel3_IRQHandler+0x68>)
  32:	60dd      	str	r5, [r3, #12]
  34:	e001      	b.n	3a <DMA1_Channel3_IRQHandler+0x3a>
  36:	2301      	movs	r3, #1
  38:	7023      	strb	r3, [r4, #0]
  3a:	4b07      	ldr	r3, [pc, #28]	; (58 <DMA1_Channel3_IRQHandler+0x58>)
  3c:	f44f 6270 	mov.w	r2, #3840	; 0xf00
  40:	605a      	str	r2, [r3, #4]
  42:	4808      	ldr	r0, [pc, #32]	; (64 <DMA1_Channel3_IRQHandler+0x64>)
  44:	f7ff fffe 	bl	0 <fileIsEOF>
  48:	b120      	cbz	r0, 54 <DMA1_Channel3_IRQHandler+0x54>
  4a:	4b07      	ldr	r3, [pc, #28]	; (68 <DMA1_Channel3_IRQHandler+0x68>)
  4c:	681a      	ldr	r2, [r3, #0]
  4e:	f022 0201 	bic.w	r2, r2, #1
  52:	601a      	str	r2, [r3, #0]
  54:	bd38      	pop	{r3, r4, r5, pc}
  56:	bf00      	nop
  58:	40020000 	.word	0x40020000
	...
  68:	40020030 	.word	0x40020030

Disassembly of section .text.generateSineWave:

00000000 <generateSineWave>:
generateSineWave():
   0:	e92d 4df3 	stmdb	sp!, {r0, r1, r4, r5, r6, r7, r8, sl, fp, lr}
   4:	fbb2 f6f1 	udiv	r6, r2, r1
   8:	4607      	mov	r7, r0
   a:	4630      	mov	r0, r6
   c:	461d      	mov	r5, r3
   e:	f7ff fffe 	bl	0 <__aeabi_ui2d>
  12:	4602      	mov	r2, r0
  14:	460b      	mov	r3, r1
  16:	a11a      	add	r1, pc, #104	; (adr r1, 80 <generateSineWave+0x80>)
  18:	e9d1 0100 	ldrd	r0, r1, [r1]
  1c:	f7ff fffe 	bl	0 <__aeabi_ddiv>
  20:	f7ff fffe 	bl	0 <__aeabi_d2f>
  24:	086d      	lsrs	r5, r5, #1
  26:	4680      	mov	r8, r0
  28:	2400      	movs	r4, #0
  2a:	e025      	b.n	78 <generateSineWave+0x78>
  2c:	4620      	mov	r0, r4
  2e:	f7ff fffe 	bl	0 <__aeabi_ui2f>
  32:	4641      	mov	r1, r8
  34:	f7ff fffe 	bl	0 <__aeabi_fmul>
  38:	f7ff fffe 	bl	0 <__aeabi_f2d>
  3c:	f7ff fffe 	bl	0 <sin>
  40:	4682      	mov	sl, r0
  42:	4628      	mov	r0, r5
  44:	468b      	mov	fp, r1
  46:	f7ff fffe 	bl	0 <__aeabi_i2d>
  4a:	e9cd 0100 	strd	r0, r1, [sp]
  4e:	4628      	mov	r0, r5
  50:	f7ff fffe 	bl	0 <__aeabi_i2f>
  54:	f7ff fffe 	bl	0 <__aeabi_f2d>
  58:	4602      	mov	r2, r0
  5a:	460b      	mov	r3, r1
  5c:	4650      	mov	r0, sl
  5e:	4659      	mov	r1, fp
  60:	f7ff fffe 	bl	0 <__aeabi_dmul>
  64:	4602      	mov	r2, r0
  66:	460b      	mov	r3, r1
  68:	e9dd 0100 	ldrd	r0, r1, [sp]
  6c:	f7ff fffe 	bl	0 <__aeabi_dadd>
  70:	f7ff fffe 	bl	0 <__aeabi_d2uiz>
  74:	5538      	strb	r0, [r7, r4]
  76:	3401      	adds	r4, #1
  78:	42b4      	cmp	r4, r6
  7a:	d3d7      	bcc.n	2c <generateSineWave+0x2c>
  7c:	e8bd 8dfc 	ldmia.w	sp!, {r2, r3, r4, r5, r6, r7, r8, sl, fp, pc}
  80:	53c8d4f1 	.word	0x53c8d4f1
  84:	401921fb 	.word	0x401921fb

Disassembly of section .text.generateDTMF:

00000000 <generateDTMF>:
generateDTMF():
   0:	e92d 4ff0 	stmdb	sp!, {r4, r5, r6, r7, r8, r9, sl, fp, lr}
   4:	b087      	sub	sp, #28
   6:	f8bd 4040 	ldrh.w	r4, [sp, #64]	; 0x40
   a:	4681      	mov	r9, r0
   c:	fbb4 f0f1 	udiv	r0, r4, r1
  10:	4616      	mov	r6, r2
  12:	9305      	str	r3, [sp, #20]
  14:	f7ff fffe 	bl	0 <__aeabi_i2d>
  18:	4602      	mov	r2, r0
  1a:	460b      	mov	r3, r1
  1c:	a130      	add	r1, pc, #192	; (adr r1, e0 <generateDTMF+0xe0>)
  1e:	e9d1 0100 	ldrd	r0, r1, [r1]
  22:	f7ff fffe 	bl	0 <__aeabi_ddiv>
  26:	f7ff fffe 	bl	0 <__aeabi_d2f>
  2a:	4607      	mov	r7, r0
  2c:	fbb4 f0f6 	udiv	r0, r4, r6
  30:	f7ff fffe 	bl	0 <__aeabi_i2d>
  34:	4602      	mov	r2, r0
  36:	460b      	mov	r3, r1
  38:	a129      	add	r1, pc, #164	; (adr r1, e0 <generateDTMF+0xe0>)
  3a:	e9d1 0100 	ldrd	r0, r1, [r1]
  3e:	f7ff fffe 	bl	0 <__aeabi_ddiv>
  42:	f7ff fffe 	bl	0 <__aeabi_d2f>
  46:	f8bd 5044 	ldrh.w	r5, [sp, #68]	; 0x44
  4a:	4680      	mov	r8, r0
  4c:	086d      	lsrs	r5, r5, #1
  4e:	2400      	movs	r4, #0
  50:	e040      	b.n	d4 <generateDTMF+0xd4>
  52:	4628      	mov	r0, r5
  54:	f7ff fffe 	bl	0 <__aeabi_i2d>
  58:	e9cd 0100 	strd	r0, r1, [sp]
  5c:	4620      	mov	r0, r4
  5e:	f7ff fffe 	bl	0 <__aeabi_ui2f>
  62:	4639      	mov	r1, r7
  64:	4606      	mov	r6, r0
  66:	f7ff fffe 	bl	0 <__aeabi_fmul>
  6a:	f7ff fffe 	bl	0 <__aeabi_f2d>
  6e:	f7ff fffe 	bl	0 <sin>
  72:	e9cd 0102 	strd	r0, r1, [sp, #8]
  76:	4628      	mov	r0, r5
  78:	f7ff fffe 	bl	0 <__aeabi_ui2f>
  7c:	f7ff fffe 	bl	0 <__aeabi_f2d>
  80:	4682      	mov	sl, r0
  82:	468b      	mov	fp, r1
  84:	4630      	mov	r0, r6
  86:	4641      	mov	r1, r8
  88:	f7ff fffe 	bl	0 <__aeabi_fmul>
  8c:	f7ff fffe 	bl	0 <__aeabi_f2d>
  90:	f7ff fffe 	bl	0 <sin>
  94:	4652      	mov	r2, sl
  96:	465b      	mov	r3, fp
  98:	f7ff fffe 	bl	0 <__aeabi_dmul>
  9c:	4602      	mov	r2, r0
  9e:	460b      	mov	r3, r1
  a0:	e9dd 0100 	ldrd	r0, r1, [sp]
  a4:	f7ff fffe 	bl	0 <__aeabi_dadd>
  a8:	f7ff fffe 	bl	0 <__aeabi_d2uiz>
  ac:	4652      	mov	r2, sl
  ae:	4606      	mov	r6, r0
  b0:	465b      	mov	r3, fp
  b2:	e9dd 0102 	ldrd	r0, r1, [sp, #8]
  b6:	f7ff fffe 	bl	0 <__aeabi_dmul>
  ba:	4602      	mov	r2, r0
  bc:	460b      	mov	r3, r1
  be:	e9dd 0100 	ldrd	r0, r1, [sp]
  c2:	f7ff fffe 	bl	0 <__aeabi_dadd>
  c6:	f7ff fffe 	bl	0 <__aeabi_d2uiz>
  ca:	1836      	adds	r6, r6, r0
  cc:	0876      	lsrs	r6, r6, #1
  ce:	f809 6004 	strb.w	r6, [r9, r4]
  d2:	3401      	adds	r4, #1
  d4:	9b05      	ldr	r3, [sp, #20]
  d6:	429c      	cmp	r4, r3
  d8:	d3bb      	bcc.n	52 <generateDTMF+0x52>
  da:	b007      	add	sp, #28
  dc:	e8bd 8ff0 	ldmia.w	sp!, {r4, r5, r6, r7, r8, r9, sl, fp, pc}
  e0:	53c8d4f1 	.word	0x53c8d4f1
  e4:	401921fb 	.word	0x401921fb

Disassembly of section .text.generateSquareWave:

00000000 <generateSquareWave>:
generateSquareWave():
   0:	fbb2 f2f1 	udiv	r2, r2, r1
   4:	b530      	push	{r4, r5, lr}
   6:	0854      	lsrs	r4, r2, #1
   8:	2500      	movs	r5, #0
   a:	e001      	b.n	10 <generateSquareWave+0x10>
   c:	5543      	strb	r3, [r0, r5]
   e:	3501      	adds	r5, #1
  10:	42a5      	cmp	r5, r4
  12:	d3fb      	bcc.n	c <generateSquareWave+0xc>
  14:	e002      	b.n	1c <generateSquareWave+0x1c>
  16:	2300      	movs	r3, #0
  18:	5503      	strb	r3, [r0, r4]
  1a:	3401      	adds	r4, #1
  1c:	4294      	cmp	r4, r2
  1e:	d3fa      	bcc.n	16 <generateSquareWave+0x16>
  20:	bd30      	pop	{r4, r5, pc}

Disassembly of section .text.generateTriangleWave:

00000000 <generateTriangleWave>:
generateTriangleWave():
   0:	fbb2 f2f1 	udiv	r2, r2, r1
   4:	b530      	push	{r4, r5, lr}
   6:	f002 0401 	and.w	r4, r2, #1
   a:	2b00      	cmp	r3, #0
   c:	bf08      	it	eq
   e:	2301      	moveq	r3, #1
  10:	eb04 0152 	add.w	r1, r4, r2, lsr #1
  14:	b114      	cbz	r4, 1c <generateTriangleWave+0x1c>
  16:	2400      	movs	r4, #0
  18:	7004      	strb	r4, [r0, #0]
  1a:	3401      	adds	r4, #1
  1c:	3201      	adds	r2, #1
  1e:	1b12      	subs	r2, r2, r4
  20:	1882      	adds	r2, r0, r2
  22:	e00a      	b.n	3a <generateTriangleWave+0x3a>
  24:	fbb3 f5f1 	udiv	r5, r3, r1
  28:	4365      	muls	r5, r4
  2a:	2dff      	cmp	r5, #255	; 0xff
  2c:	bf28      	it	cs
  2e:	25ff      	movcs	r5, #255	; 0xff
  30:	b2ed      	uxtb	r5, r5
  32:	5505      	strb	r5, [r0, r4]
  34:	f802 5d01 	strb.w	r5, [r2, #-1]!
  38:	3401      	adds	r4, #1
  3a:	428c      	cmp	r4, r1
  3c:	d9f2      	bls.n	24 <generateTriangleWave+0x24>
  3e:	bd30      	pop	{r4, r5, pc}

Disassembly of section .text.generateSawWave:

00000000 <generateSawWave>:
generateSawWave():
   0:	b510      	push	{r4, lr}
   2:	fbb2 f2f1 	udiv	r2, r2, r1
   6:	2400      	movs	r4, #0
   8:	e004      	b.n	14 <generateSawWave+0x14>
   a:	fbb3 f1f2 	udiv	r1, r3, r2
   e:	4361      	muls	r1, r4
  10:	5501      	strb	r1, [r0, r4]
  12:	3401      	adds	r4, #1
  14:	4294      	cmp	r4, r2
  16:	d3f8      	bcc.n	a <generateSawWave+0xa>
  18:	bd10      	pop	{r4, pc}

Disassembly of section .text.blendWaves:

00000000 <blendWaves>:
blendWaves():
   0:	b5f0      	push	{r4, r5, r6, r7, lr}
   2:	2400      	movs	r4, #0
   4:	4625      	mov	r5, r4
   6:	e009      	b.n	1c <blendWaves+0x1c>
   8:	429c      	cmp	r4, r3
   a:	bf08      	it	eq
   c:	2400      	moveq	r4, #0
   e:	5d17      	ldrb	r7, [r2, r4]
  10:	5d46      	ldrb	r6, [r0, r5]
  12:	3401      	adds	r4, #1
  14:	19be      	adds	r6, r7, r6
  16:	1076      	asrs	r6, r6, #1
  18:	5546      	strb	r6, [r0, r5]
  1a:	3501      	adds	r5, #1
  1c:	428d      	cmp	r5, r1
  1e:	d3f3      	bcc.n	8 <blendWaves+0x8>
  20:	bdf0      	pop	{r4, r5, r6, r7, pc}

Disassembly of section .text.dac1Output:

00000000 <dac1Output>:
dac1Output():
   0:	b570      	push	{r4, r5, r6, lr}
   2:	4c14      	ldr	r4, [pc, #80]	; (54 <dac1Output+0x54>)
   4:	2600      	movs	r6, #0
   6:	6825      	ldr	r5, [r4, #0]
   8:	f025 0501 	bic.w	r5, r5, #1
   c:	6025      	str	r5, [r4, #0]
   e:	4d12      	ldr	r5, [pc, #72]	; (58 <dac1Output+0x58>)
  10:	84ae      	strh	r6, [r5, #36]	; 0x24
  12:	852e      	strh	r6, [r5, #40]	; 0x28
  14:	4e11      	ldr	r6, [pc, #68]	; (5c <dac1Output+0x5c>)
  16:	6836      	ldr	r6, [r6, #0]
  18:	fbb6 f6f2 	udiv	r6, r6, r2
  1c:	b2b6      	uxth	r6, r6
  1e:	2200      	movs	r2, #0
  20:	85ae      	strh	r6, [r5, #44]	; 0x2c
  22:	81aa      	strh	r2, [r5, #12]
  24:	2620      	movs	r6, #32
  26:	2201      	movs	r2, #1
  28:	80ae      	strh	r6, [r5, #4]
  2a:	802a      	strh	r2, [r5, #0]
  2c:	4d0c      	ldr	r5, [pc, #48]	; (60 <dac1Output+0x60>)
  2e:	f013 0f01 	tst.w	r3, #1
  32:	682a      	ldr	r2, [r5, #0]
  34:	f442 5280 	orr.w	r2, r2, #4096	; 0x1000
  38:	f042 0207 	orr.w	r2, r2, #7
  3c:	602a      	str	r2, [r5, #0]
  3e:	4a09      	ldr	r2, [pc, #36]	; (64 <dac1Output+0x64>)
  40:	6061      	str	r1, [r4, #4]
  42:	60a2      	str	r2, [r4, #8]
  44:	60e0      	str	r0, [r4, #12]
  46:	d001      	beq.n	4c <dac1Output+0x4c>
  48:	23b5      	movs	r3, #181	; 0xb5
  4a:	e000      	b.n	4e <dac1Output+0x4e>
  4c:	2395      	movs	r3, #149	; 0x95
  4e:	6023      	str	r3, [r4, #0]
  50:	bd70      	pop	{r4, r5, r6, pc}
  52:	bf00      	nop
  54:	40020030 	.word	0x40020030
  58:	40001000 	.word	0x40001000
  5c:	00000000 	.word	0x00000000
  60:	40007400 	.word	0x40007400
  64:	40007410 	.word	0x40007410

Disassembly of section .text.audioPlayWave:

00000000 <audioPlayWave>:
audioPlayWave():
   0:	e92d 4ff7 	stmdb	sp!, {r0, r1, r2, r4, r5, r6, r7, r8, r9, sl, fp, lr}
   4:	4601      	mov	r1, r0
   6:	2201      	movs	r2, #1
   8:	4855      	ldr	r0, [pc, #340]	; (160 <audioPlayWave+0x160>)
   a:	f7ff fffe 	bl	0 <fileOpen>
   e:	2800      	cmp	r0, #0
  10:	f000 80a4 	beq.w	15c <audioPlayWave+0x15c>
  14:	2104      	movs	r1, #4
  16:	4852      	ldr	r0, [pc, #328]	; (160 <audioPlayWave+0x160>)
  18:	466a      	mov	r2, sp
  1a:	f7ff fffe 	bl	0 <fileGetBuffer>
  1e:	2400      	movs	r4, #0
  20:	4668      	mov	r0, sp
  22:	4950      	ldr	r1, [pc, #320]	; (164 <audioPlayWave+0x164>)
  24:	f88d 4004 	strb.w	r4, [sp, #4]
  28:	f7ff fffe 	bl	0 <isStringSame>
  2c:	2800      	cmp	r0, #0
  2e:	f000 8095 	beq.w	15c <audioPlayWave+0x15c>
  32:	4621      	mov	r1, r4
  34:	484a      	ldr	r0, [pc, #296]	; (160 <audioPlayWave+0x160>)
  36:	f7ff fffe 	bl	0 <fileGetLong>
  3a:	2104      	movs	r1, #4
  3c:	4848      	ldr	r0, [pc, #288]	; (160 <audioPlayWave+0x160>)
  3e:	466a      	mov	r2, sp
  40:	f7ff fffe 	bl	0 <fileGetBuffer>
  44:	4668      	mov	r0, sp
  46:	4948      	ldr	r1, [pc, #288]	; (168 <audioPlayWave+0x168>)
  48:	f88d 4004 	strb.w	r4, [sp, #4]
  4c:	f7ff fffe 	bl	0 <isStringSame>
  50:	2800      	cmp	r0, #0
  52:	f000 8083 	beq.w	15c <audioPlayWave+0x15c>
  56:	2104      	movs	r1, #4
  58:	4841      	ldr	r0, [pc, #260]	; (160 <audioPlayWave+0x160>)
  5a:	466a      	mov	r2, sp
  5c:	f7ff fffe 	bl	0 <fileGetBuffer>
  60:	4668      	mov	r0, sp
  62:	4942      	ldr	r1, [pc, #264]	; (16c <audioPlayWave+0x16c>)
  64:	f88d 4004 	strb.w	r4, [sp, #4]
  68:	f7ff fffe 	bl	0 <isStringSame>
  6c:	2800      	cmp	r0, #0
  6e:	d075      	beq.n	15c <audioPlayWave+0x15c>
  70:	4621      	mov	r1, r4
  72:	483b      	ldr	r0, [pc, #236]	; (160 <audioPlayWave+0x160>)
  74:	f7ff fffe 	bl	0 <fileGetLong>
  78:	4621      	mov	r1, r4
  7a:	4839      	ldr	r0, [pc, #228]	; (160 <audioPlayWave+0x160>)
  7c:	f7ff fffe 	bl	0 <fileGetWord>
  80:	4621      	mov	r1, r4
  82:	4681      	mov	r9, r0
  84:	4836      	ldr	r0, [pc, #216]	; (160 <audioPlayWave+0x160>)
  86:	f7ff fffe 	bl	0 <fileGetWord>
  8a:	4621      	mov	r1, r4
  8c:	4680      	mov	r8, r0
  8e:	4834      	ldr	r0, [pc, #208]	; (160 <audioPlayWave+0x160>)
  90:	f7ff fffe 	bl	0 <fileGetLong>
  94:	4621      	mov	r1, r4
  96:	4605      	mov	r5, r0
  98:	4831      	ldr	r0, [pc, #196]	; (160 <audioPlayWave+0x160>)
  9a:	f7ff fffe 	bl	0 <fileGetLong>
  9e:	4621      	mov	r1, r4
  a0:	4607      	mov	r7, r0
  a2:	482f      	ldr	r0, [pc, #188]	; (160 <audioPlayWave+0x160>)
  a4:	f7ff fffe 	bl	0 <fileGetWord>
  a8:	4621      	mov	r1, r4
  aa:	4606      	mov	r6, r0
  ac:	482c      	ldr	r0, [pc, #176]	; (160 <audioPlayWave+0x160>)
  ae:	f7ff fffe 	bl	0 <fileGetWord>
  b2:	2104      	movs	r1, #4
  b4:	4682      	mov	sl, r0
  b6:	466a      	mov	r2, sp
  b8:	4829      	ldr	r0, [pc, #164]	; (160 <audioPlayWave+0x160>)
  ba:	f7ff fffe 	bl	0 <fileGetBuffer>
  be:	4668      	mov	r0, sp
  c0:	492b      	ldr	r1, [pc, #172]	; (170 <audioPlayWave+0x170>)
  c2:	f88d 4004 	strb.w	r4, [sp, #4]
  c6:	f7ff fffe 	bl	0 <isStringSame>
  ca:	2800      	cmp	r0, #0
  cc:	d046      	beq.n	15c <audioPlayWave+0x15c>
  ce:	4621      	mov	r1, r4
  d0:	4823      	ldr	r0, [pc, #140]	; (160 <audioPlayWave+0x160>)
  d2:	f7ff fffe 	bl	0 <fileGetLong>
  d6:	4927      	ldr	r1, [pc, #156]	; (174 <audioPlayWave+0x174>)
  d8:	4683      	mov	fp, r0
  da:	2001      	movs	r0, #1
  dc:	f7ff fffe 	bl	0 <print>
  e0:	2001      	movs	r0, #1
  e2:	4925      	ldr	r1, [pc, #148]	; (178 <audioPlayWave+0x178>)
  e4:	464a      	mov	r2, r9
  e6:	f7ff fffe 	bl	0 <print>
  ea:	2001      	movs	r0, #1
  ec:	4923      	ldr	r1, [pc, #140]	; (17c <audioPlayWave+0x17c>)
  ee:	4642      	mov	r2, r8
  f0:	f7ff fffe 	bl	0 <print>
  f4:	2001      	movs	r0, #1
  f6:	4922      	ldr	r1, [pc, #136]	; (180 <audioPlayWave+0x180>)
  f8:	462a      	mov	r2, r5
  fa:	f7ff fffe 	bl	0 <print>
  fe:	2001      	movs	r0, #1
 100:	4920      	ldr	r1, [pc, #128]	; (184 <audioPlayWave+0x184>)
 102:	463a      	mov	r2, r7
 104:	f7ff fffe 	bl	0 <print>
 108:	2001      	movs	r0, #1
 10a:	491f      	ldr	r1, [pc, #124]	; (188 <audioPlayWave+0x188>)
 10c:	4632      	mov	r2, r6
 10e:	f7ff fffe 	bl	0 <print>
 112:	2001      	movs	r0, #1
 114:	491d      	ldr	r1, [pc, #116]	; (18c <audioPlayWave+0x18c>)
 116:	4652      	mov	r2, sl
 118:	f7ff fffe 	bl	0 <print>
 11c:	2001      	movs	r0, #1
 11e:	491c      	ldr	r1, [pc, #112]	; (190 <audioPlayWave+0x190>)
 120:	465a      	mov	r2, fp
 122:	f7ff fffe 	bl	0 <print>
 126:	f44f 6180 	mov.w	r1, #1024	; 0x400
 12a:	4a1a      	ldr	r2, [pc, #104]	; (194 <audioPlayWave+0x194>)
 12c:	480c      	ldr	r0, [pc, #48]	; (160 <audioPlayWave+0x160>)
 12e:	f7ff fffe 	bl	0 <fileGetBuffer>
 132:	4b19      	ldr	r3, [pc, #100]	; (198 <audioPlayWave+0x198>)
 134:	200d      	movs	r0, #13
 136:	701c      	strb	r4, [r3, #0]
 138:	4b18      	ldr	r3, [pc, #96]	; (19c <audioPlayWave+0x19c>)
 13a:	681a      	ldr	r2, [r3, #0]
 13c:	f422 2270 	bic.w	r2, r2, #983040	; 0xf0000
 140:	601a      	str	r2, [r3, #0]
 142:	681a      	ldr	r2, [r3, #0]
 144:	f442 2230 	orr.w	r2, r2, #720896	; 0xb0000
 148:	601a      	str	r2, [r3, #0]
 14a:	f7ff fffe 	bl	0 <interruptEnable>
 14e:	4811      	ldr	r0, [pc, #68]	; (194 <audioPlayWave+0x194>)
 150:	f44f 6180 	mov.w	r1, #1024	; 0x400
 154:	b2aa      	uxth	r2, r5
 156:	2301      	movs	r3, #1
 158:	f7ff fffe 	bl	0 <audioPlayWave>
 15c:	e8bd 8ffe 	ldmia.w	sp!, {r1, r2, r3, r4, r5, r6, r7, r8, r9, sl, fp, pc}
	...
 168:	00000005 	.word	0x00000005
 16c:	0000000a 	.word	0x0000000a
 170:	0000000f 	.word	0x0000000f
 174:	00000014 	.word	0x00000014
 178:	00000025 	.word	0x00000025
 17c:	00000036 	.word	0x00000036
 180:	00000044 	.word	0x00000044
 184:	00000054 	.word	0x00000054
 188:	00000062 	.word	0x00000062
 18c:	00000072 	.word	0x00000072
 190:	00000085 	.word	0x00000085
	...
 19c:	40010800 	.word	0x40010800

Disassembly of section .text.dac2Output:

00000000 <dac2Output>:
dac2Output():
   0:	4c14b530 	.word	0x4c14b530
   4:	6825      	ldr	r5, [r4, #0]
   6:	f025 0501 	bic.w	r5, r5, #1
   a:	6025      	str	r5, [r4, #0]
   c:	4c12      	ldr	r4, [pc, #72]	; (58 <dac2Output+0x58>)
   e:	2500      	movs	r5, #0
  10:	84a5      	strh	r5, [r4, #36]	; 0x24
  12:	8525      	strh	r5, [r4, #40]	; 0x28
  14:	4d11      	ldr	r5, [pc, #68]	; (5c <dac2Output+0x5c>)
  16:	fbb5 f5f2 	udiv	r5, r5, r2
  1a:	b2ad      	uxth	r5, r5
  1c:	2200      	movs	r2, #0
  1e:	85a5      	strh	r5, [r4, #44]	; 0x2c
  20:	81a2      	strh	r2, [r4, #12]
  22:	2520      	movs	r5, #32
  24:	2201      	movs	r2, #1
  26:	80a5      	strh	r5, [r4, #4]
  28:	8022      	strh	r2, [r4, #0]
  2a:	4c0d      	ldr	r4, [pc, #52]	; (60 <dac2Output+0x60>)
  2c:	f013 0f01 	tst.w	r3, #1
  30:	6822      	ldr	r2, [r4, #0]
  32:	f042 5280 	orr.w	r2, r2, #268435456	; 0x10000000
  36:	f442 12a8 	orr.w	r2, r2, #1376256	; 0x150000
  3a:	6022      	str	r2, [r4, #0]
  3c:	4a09      	ldr	r2, [pc, #36]	; (64 <dac2Output+0x64>)
  3e:	6051      	str	r1, [r2, #4]
  40:	4909      	ldr	r1, [pc, #36]	; (68 <dac2Output+0x68>)
  42:	6091      	str	r1, [r2, #8]
  44:	60d0      	str	r0, [r2, #12]
  46:	d001      	beq.n	4c <dac2Output+0x4c>
  48:	23b1      	movs	r3, #177	; 0xb1
  4a:	e000      	b.n	4e <dac2Output+0x4e>
  4c:	2391      	movs	r3, #145	; 0x91
  4e:	6013      	str	r3, [r2, #0]
  50:	bd30      	pop	{r4, r5, pc}
  52:	bf00      	nop
  54:	40020008 	.word	0x40020008
  58:	40001400 	.word	0x40001400
  5c:	016e3600 	.word	0x016e3600
  60:	40007400 	.word	0x40007400
  64:	40020044 	.word	0x40020044
  68:	4000741c 	.word	0x4000741c
