
C:\Users\MightyDubster\Documents\Projects\pygmyos.code\gsm\gsmModem.o:     file format elf32-littlearm
C:\Users\MightyDubster\Documents\Projects\pygmyos.code\gsm\gsmModem.o


Disassembly of section .text.modem_imei:

00000000 <modem_imei>:
modem_imei():
C:\Users\MightyDubster\Documents\Projects\pygmyos\profiles\nebula\shields/gsmModem.c:269

u8 modem_imei( u8 *ucBuffer )
{

    return( FALSE );
}
   0:	f04f 0000 	mov.w	r0, #0
   4:	4770      	bx	lr
   6:	bf00      	nop

Disassembly of section .text.pftp_close_handler:

00000000 <pftp_close_handler>:
pftp_close_handler():
C:\Users\MightyDubster\Documents\Projects\pygmyos\profiles\nebula\shields/gsmModem.c:652
    cmdQueue( &globalModemQueue, &pygmyCmd );
}

u8 pftp_close_handler( u8 *ucBuffer )
{
    globalModemStatus &= ~MODEM_HTTPINPROGRESS;
   0:	f240 0300 	movw	r3, #0
   4:	f2c0 0300 	movt	r3, #0
   8:	681a      	ldr	r2, [r3, #0]
   a:	f022 0204 	bic.w	r2, r2, #4
   e:	601a      	str	r2, [r3, #0]
C:\Users\MightyDubster\Documents\Projects\pygmyos\profiles\nebula\shields/gsmModem.c:655

    return( TRUE );
}
  10:	f04f 0001 	mov.w	r0, #1
  14:	4770      	bx	lr
  16:	bf00      	nop

Disassembly of section .text.handler_ATSERVINFO:

00000000 <handler_ATSERVINFO>:
handler_ATSERVINFO():
C:\Users\MightyDubster\Documents\Projects\pygmyos\profiles\nebula\shields/gsmModem.c:984

u8 handler_ATSERVINFO( u8 *ucBuffer )
{
  
    return( FALSE );
}
   0:	f04f 0000 	mov.w	r0, #0
   4:	4770      	bx	lr
   6:	bf00      	nop

Disassembly of section .text.print_wait:

00000000 <print_wait>:
print_wait():
C:\Users\MightyDubster\Documents\Projects\pygmyos\profiles\nebula\shields/gsmModem.c:1421
}

void print_wait( void )
{
    // This page left blank intentionally :)
}
   0:	4770      	bx	lr
   2:	bf00      	nop

Disassembly of section .text.print_CSAS:

00000000 <print_CSAS>:
print_CSAS():
C:\Users\MightyDubster\Documents\Projects\pygmyos\profiles\nebula\shields/gsmModem.c:1482
{
    print( MODEM_COM, "AT+CSDH=1\r" );
}

void print_CSAS( void )
{
   0:	b508      	push	{r3, lr}
C:\Users\MightyDubster\Documents\Projects\pygmyos\profiles\nebula\shields/gsmModem.c:1483
    print( MODEM_COM, "AT+CSAS\r" );
   2:	f04f 0001 	mov.w	r0, #1
   6:	f240 0100 	movw	r1, #0
   a:	f2c0 0100 	movt	r1, #0
   e:	f7ff fffe 	bl	0 <print>
C:\Users\MightyDubster\Documents\Projects\pygmyos\profiles\nebula\shields/gsmModem.c:1484
}
  12:	bd08      	pop	{r3, pc}

Disassembly of section .text.print_ATESCAPE:

00000000 <print_ATESCAPE>:
print_ATESCAPE():
C:\Users\MightyDubster\Documents\Projects\pygmyos\profiles\nebula\shields/gsmModem.c:1453
    print( MODEM_COM, "Host: %s%s", globalModemHostName, (u8*)AT_CRLF );
    print( MODEM_COM, "Connection: keep-alive%s%s", (u8*)AT_CRLF, (u8*)AT_CRLF );
}

void print_ATESCAPE( void )
{
   0:	b508      	push	{r3, lr}
C:\Users\MightyDubster\Documents\Projects\pygmyos\profiles\nebula\shields/gsmModem.c:1454
    print( MODEM_COM, (u8*)AT_ESCAPE );
   2:	f04f 0001 	mov.w	r0, #1
   6:	f240 0100 	movw	r1, #0
   a:	f2c0 0100 	movt	r1, #0
   e:	f7ff fffe 	bl	0 <print>
C:\Users\MightyDubster\Documents\Projects\pygmyos\profiles\nebula\shields/gsmModem.c:1455
}
  12:	bd08      	pop	{r3, pc}

Disassembly of section .text.print_http:

00000000 <print_http>:
print_http():
C:\Users\MightyDubster\Documents\Projects\pygmyos\profiles\nebula\shields/gsmModem.c:1446
    print_http();
    
}

void print_http( void )
{
   0:	b510      	push	{r4, lr}
C:\Users\MightyDubster\Documents\Projects\pygmyos\profiles\nebula\shields/gsmModem.c:1447
    print( MODEM_COM, " HTTP/1.1%s", (u8*)AT_CRLF );
   2:	4c11      	ldr	r4, [pc, #68]	; (48 <print_http+0x48>)
   4:	f04f 0001 	mov.w	r0, #1
   8:	f240 0100 	movw	r1, #0
   c:	f2c0 0100 	movt	r1, #0
  10:	4622      	mov	r2, r4
  12:	f7ff fffe 	bl	0 <print>
C:\Users\MightyDubster\Documents\Projects\pygmyos\profiles\nebula\shields/gsmModem.c:1448
    print( MODEM_COM, "Host: %s%s", globalModemHostName, (u8*)AT_CRLF );
  16:	f04f 0001 	mov.w	r0, #1
  1a:	f240 0100 	movw	r1, #0
  1e:	f2c0 0100 	movt	r1, #0
  22:	f240 0200 	movw	r2, #0
  26:	f2c0 0200 	movt	r2, #0
  2a:	4623      	mov	r3, r4
  2c:	f7ff fffe 	bl	0 <print>
C:\Users\MightyDubster\Documents\Projects\pygmyos\profiles\nebula\shields/gsmModem.c:1449
    print( MODEM_COM, "Connection: keep-alive%s%s", (u8*)AT_CRLF, (u8*)AT_CRLF );
  30:	f04f 0001 	mov.w	r0, #1
  34:	f240 0100 	movw	r1, #0
  38:	f2c0 0100 	movt	r1, #0
  3c:	4622      	mov	r2, r4
  3e:	4623      	mov	r3, r4
  40:	f7ff fffe 	bl	0 <print>
C:\Users\MightyDubster\Documents\Projects\pygmyos\profiles\nebula\shields/gsmModem.c:1450
}
  44:	bd10      	pop	{r4, pc}
  46:	bf00      	nop
  48:	00000004 	.word	0x00000004

Disassembly of section .text.print_pftp_get:

00000000 <print_pftp_get>:
print_pftp_get():
C:\Users\MightyDubster\Documents\Projects\pygmyos\profiles\nebula\shields/gsmModem.c:1433
    // End Payload for CGI   
    print_HTTP_GET_secondhalf();
}

void print_pftp_get( void )
{
   0:	b510      	push	{r4, lr}
C:\Users\MightyDubster\Documents\Projects\pygmyos\profiles\nebula\shields/gsmModem.c:1435
    // This function establishes connection
    globalModemStatus |= MODEM_PFTPINPROGRESS;
   2:	f240 0300 	movw	r3, #0
   6:	f2c0 0300 	movt	r3, #0
   a:	681a      	ldr	r2, [r3, #0]
   c:	f042 0208 	orr.w	r2, r2, #8
  10:	601a      	str	r2, [r3, #0]
C:\Users\MightyDubster\Documents\Projects\pygmyos\profiles\nebula\shields/gsmModem.c:1436
    print( MODEM_COM, "GET /cgi/pftp.py?get=", globalModemPFTP.File.Name );
  12:	4c13      	ldr	r4, [pc, #76]	; (60 <print_pftp_get+0x60>)
  14:	f04f 0001 	mov.w	r0, #1
  18:	f240 0100 	movw	r1, #0
  1c:	f2c0 0100 	movt	r1, #0
  20:	4622      	mov	r2, r4
  22:	f7ff fffe 	bl	0 <print>
C:\Users\MightyDubster\Documents\Projects\pygmyos\profiles\nebula\shields/gsmModem.c:1437
    if( globalModemPFTP.ChunkSize != 256 ) { // 256 is PFTP server default
  26:	f834 2c20 	ldrh.w	r2, [r4, #-32]
  2a:	f5b2 7f80 	cmp.w	r2, #256	; 0x100
  2e:	d007      	beq.n	40 <print_pftp_get+0x40>
C:\Users\MightyDubster\Documents\Projects\pygmyos\profiles\nebula\shields/gsmModem.c:1438
        print( MODEM_COM, "&sz=%d", globalModemPFTP.ChunkSize);
  30:	f04f 0001 	mov.w	r0, #1
  34:	f240 0100 	movw	r1, #0
  38:	f2c0 0100 	movt	r1, #0
  3c:	f7ff fffe 	bl	0 <print>
C:\Users\MightyDubster\Documents\Projects\pygmyos\profiles\nebula\shields/gsmModem.c:1440
    } // if
    print( MODEM_COM, "&chk=%d", globalModemPFTP.CurrentChunk );
  40:	f240 0300 	movw	r3, #0
  44:	f2c0 0300 	movt	r3, #0
  48:	f04f 0001 	mov.w	r0, #1
  4c:	f240 0100 	movw	r1, #0
  50:	f2c0 0100 	movt	r1, #0
  54:	885a      	ldrh	r2, [r3, #2]
  56:	f7ff fffe 	bl	0 <print>
C:\Users\MightyDubster\Documents\Projects\pygmyos\profiles\nebula\shields/gsmModem.c:1441
    print_http();
  5a:	f7ff fffe 	bl	0 <print_pftp_get>
C:\Users\MightyDubster\Documents\Projects\pygmyos\profiles\nebula\shields/gsmModem.c:1443
    
}
  5e:	bd10      	pop	{r4, pc}
  60:	00000020 	.word	0x00000020

Disassembly of section .text.print_QUIT:

00000000 <print_QUIT>:
print_QUIT():
C:\Users\MightyDubster\Documents\Projects\pygmyos\profiles\nebula\shields/gsmModem.c:1412
    // Content Of Email
    // ToDo: Add email content print code
}

void print_QUIT( void )
{
   0:	b083b500 	.word	0xb083b500
C:\Users\MightyDubster\Documents\Projects\pygmyos\profiles\nebula\shields/gsmModem.c:1415
    // End sequence for SMTP is <CR><LF>.<CR><LF>
    // Ends body of e-mail, does not close connection
    print( MODEM_COM, "%s%s.%s%s", (u8*)AT_CRLF, (u8*)AT_CRLF, (u8*)AT_CRLF, (u8*)AT_CRLF ); 
   4:	4b06      	ldr	r3, [pc, #24]	; (20 <print_QUIT+0x20>)
   6:	9300      	str	r3, [sp, #0]
   8:	9301      	str	r3, [sp, #4]
   a:	f04f 0001 	mov.w	r0, #1
   e:	f240 0100 	movw	r1, #0
  12:	f2c0 0100 	movt	r1, #0
  16:	461a      	mov	r2, r3
  18:	f7ff fffe 	bl	0 <print>
C:\Users\MightyDubster\Documents\Projects\pygmyos\profiles\nebula\shields/gsmModem.c:1416
}
  1c:	b003      	add	sp, #12
  1e:	bd00      	pop	{pc}
  20:	00000004 	.word	0x00000004

Disassembly of section .text.print_EMAILBODY:

00000000 <print_EMAILBODY>:
print_EMAILBODY():
C:\Users\MightyDubster\Documents\Projects\pygmyos\profiles\nebula\shields/gsmModem.c:1396
    print( MODEM_COM, "%s%s", (u8*)EMAIL_DATA, (u8*)AT_CRLF );
    // Now we wait for a 354 response and then send Email body
}

void print_EMAILBODY( void )
{
   0:	e92d 41f0 	stmdb	sp!, {r4, r5, r6, r7, r8, lr}
   4:	b082      	sub	sp, #8
C:\Users\MightyDubster\Documents\Projects\pygmyos\profiles\nebula\shields/gsmModem.c:1397
    print( MODEM_COM, "%s <%s>%s", (u8*)EMAIL_From, globalModemEmail.From, (u8*)AT_CRLF );
   6:	f240 0500 	movw	r5, #0
   a:	f2c0 0500 	movt	r5, #0
   e:	f240 0400 	movw	r4, #0
  12:	f2c0 0400 	movt	r4, #0
  16:	f8df 80b8 	ldr.w	r8, [pc, #184]	; d0 <print_EMAILBODY+0xd0>
  1a:	f104 0604 	add.w	r6, r4, #4
  1e:	9600      	str	r6, [sp, #0]
  20:	f04f 0001 	mov.w	r0, #1
  24:	4629      	mov	r1, r5
  26:	f104 0208 	add.w	r2, r4, #8
  2a:	4643      	mov	r3, r8
  2c:	f7ff fffe 	bl	0 <print>
C:\Users\MightyDubster\Documents\Projects\pygmyos\profiles\nebula\shields/gsmModem.c:1398
    print( MODEM_COM, "%s <%s>%s", (u8*)EMAIL_To, globalModemEmail.To, (u8*)AT_CRLF );
  30:	9600      	str	r6, [sp, #0]
  32:	f04f 0001 	mov.w	r0, #1
  36:	4629      	mov	r1, r5
  38:	f104 0210 	add.w	r2, r4, #16
  3c:	f1a8 0328 	sub.w	r3, r8, #40	; 0x28
  40:	f7ff fffe 	bl	0 <print>
C:\Users\MightyDubster\Documents\Projects\pygmyos\profiles\nebula\shields/gsmModem.c:1400
   
    print( MODEM_COM, "%s %s%s", (u8*)EMAIL_Subject, globalModemEmail.Subject, (u8*)AT_CRLF );
  44:	f240 0700 	movw	r7, #0
  48:	f2c0 0700 	movt	r7, #0
  4c:	9600      	str	r6, [sp, #0]
  4e:	f04f 0001 	mov.w	r0, #1
  52:	4639      	mov	r1, r7
  54:	f104 0214 	add.w	r2, r4, #20
  58:	f108 0328 	add.w	r3, r8, #40	; 0x28
  5c:	f7ff fffe 	bl	0 <print>
C:\Users\MightyDubster\Documents\Projects\pygmyos\profiles\nebula\shields/gsmModem.c:1401
    print( MODEM_COM, "%s%s", (u8*)EMAIL_MIMVersion, (u8*)AT_CRLF );
  60:	f240 0500 	movw	r5, #0
  64:	f2c0 0500 	movt	r5, #0
  68:	f04f 0001 	mov.w	r0, #1
  6c:	4629      	mov	r1, r5
  6e:	f104 0220 	add.w	r2, r4, #32
  72:	4633      	mov	r3, r6
  74:	f7ff fffe 	bl	0 <print>
C:\Users\MightyDubster\Documents\Projects\pygmyos\profiles\nebula\shields/gsmModem.c:1402
    print( MODEM_COM, "%s %s%s", (u8*)EMAIL_Priority, globalModemEmail.Priority, (u8*)AT_CRLF );
  78:	9600      	str	r6, [sp, #0]
  7a:	f04f 0001 	mov.w	r0, #1
  7e:	4639      	mov	r1, r7
  80:	f104 0234 	add.w	r2, r4, #52	; 0x34
  84:	f1a8 0340 	sub.w	r3, r8, #64	; 0x40
  88:	f7ff fffe 	bl	0 <print>
C:\Users\MightyDubster\Documents\Projects\pygmyos\profiles\nebula\shields/gsmModem.c:1403
    print( MODEM_COM, "%s %s%s", (u8*)EMAIL_Importance, globalModemEmail.Importance, (u8*)AT_CRLF );
  8c:	9600      	str	r6, [sp, #0]
  8e:	f04f 0001 	mov.w	r0, #1
  92:	4639      	mov	r1, r7
  94:	f104 0240 	add.w	r2, r4, #64	; 0x40
  98:	f1a8 0334 	sub.w	r3, r8, #52	; 0x34
  9c:	f7ff fffe 	bl	0 <print>
C:\Users\MightyDubster\Documents\Projects\pygmyos\profiles\nebula\shields/gsmModem.c:1404
    print( MODEM_COM, "%s%s", (u8*)EMAIL_ContentType, (u8*)AT_CRLF );
  a0:	f04f 0001 	mov.w	r0, #1
  a4:	4629      	mov	r1, r5
  a6:	f104 024c 	add.w	r2, r4, #76	; 0x4c
  aa:	4633      	mov	r3, r6
  ac:	f7ff fffe 	bl	0 <print>
C:\Users\MightyDubster\Documents\Projects\pygmyos\profiles\nebula\shields/gsmModem.c:1405
    print( MODEM_COM, "%s%s%s", (u8*)EMAIL_ContentEncoding, (u8*)AT_CRLF, (u8*)AT_CRLF );
  b0:	9600      	str	r6, [sp, #0]
  b2:	f04f 0001 	mov.w	r0, #1
  b6:	f240 0100 	movw	r1, #0
  ba:	f2c0 0100 	movt	r1, #0
  be:	f104 027c 	add.w	r2, r4, #124	; 0x7c
  c2:	4633      	mov	r3, r6
  c4:	f7ff fffe 	bl	0 <print>
C:\Users\MightyDubster\Documents\Projects\pygmyos\profiles\nebula\shields/gsmModem.c:1409
    
    // Content Of Email
    // ToDo: Add email content print code
}
  c8:	b002      	add	sp, #8
  ca:	e8bd 81f0 	ldmia.w	sp!, {r4, r5, r6, r7, r8, pc}
  ce:	bf00      	nop
  d0:	0000007c 	.word	0x0000007c

Disassembly of section .text.print_DATA:

00000000 <print_DATA>:
print_DATA():
C:\Users\MightyDubster\Documents\Projects\pygmyos\profiles\nebula\shields/gsmModem.c:1390
{
    print( MODEM_COM, "%s <%s>%s", (u8*)EMAIL_RCPT, globalModemEmail.To, (u8*)AT_CRLF );
}

void print_DATA( void )
{
   0:	b508      	push	{r3, lr}
C:\Users\MightyDubster\Documents\Projects\pygmyos\profiles\nebula\shields/gsmModem.c:1391
    print( MODEM_COM, "%s%s", (u8*)EMAIL_DATA, (u8*)AT_CRLF );
   2:	f240 0300 	movw	r3, #0
   6:	f2c0 0300 	movt	r3, #0
   a:	f04f 0001 	mov.w	r0, #1
   e:	f240 0100 	movw	r1, #0
  12:	f2c0 0100 	movt	r1, #0
  16:	f103 029c 	add.w	r2, r3, #156	; 0x9c
  1a:	f103 0304 	add.w	r3, r3, #4
  1e:	f7ff fffe 	bl	0 <print>
C:\Users\MightyDubster\Documents\Projects\pygmyos\profiles\nebula\shields/gsmModem.c:1393
    // Now we wait for a 354 response and then send Email body
}
  22:	bd08      	pop	{r3, pc}

Disassembly of section .text.print_RCPT:

00000000 <print_RCPT>:
print_RCPT():
C:\Users\MightyDubster\Documents\Projects\pygmyos\profiles\nebula\shields/gsmModem.c:1385
    // ToDo: Add variable email from address
    print( MODEM_COM, "%s %s%s", (u8*)EMAIL_MAILFROM, globalModemEmail.From, (u8*)AT_CRLF );
}

void print_RCPT( void )
{
   0:	b500      	push	{lr}
   2:	b083      	sub	sp, #12
C:\Users\MightyDubster\Documents\Projects\pygmyos\profiles\nebula\shields/gsmModem.c:1386
    print( MODEM_COM, "%s <%s>%s", (u8*)EMAIL_RCPT, globalModemEmail.To, (u8*)AT_CRLF );
   4:	f240 0200 	movw	r2, #0
   8:	f2c0 0200 	movt	r2, #0
   c:	f102 0304 	add.w	r3, r2, #4
  10:	9300      	str	r3, [sp, #0]
  12:	f04f 0001 	mov.w	r0, #1
  16:	f240 0100 	movw	r1, #0
  1a:	f2c0 0100 	movt	r1, #0
  1e:	f102 02a4 	add.w	r2, r2, #164	; 0xa4
  22:	4b02      	ldr	r3, [pc, #8]	; (c <print+0xc>)
  24:	f7ff fffe 	bl	0 <print>
C:\Users\MightyDubster\Documents\Projects\pygmyos\profiles\nebula\shields/gsmModem.c:1387
}
  28:	b003      	add	sp, #12
  2a:	bd00      	pop	{pc}
  2c:	00000054 	.word	0x00000054

Disassembly of section .text.print_MAILFROM:

00000000 <print_MAILFROM>:
print_MAILFROM():
C:\Users\MightyDubster\Documents\Projects\pygmyos\profiles\nebula\shields/gsmModem.c:1379
    // ToDo: Add variable email server string
    print( MODEM_COM, "%s %s%s", (u8*)EMAIL_HELO, globalModemEmail.Domain, (u8*)AT_CRLF  ); 
}

void print_MAILFROM( void )
{
   0:	b500      	push	{lr}
   2:	b083      	sub	sp, #12
C:\Users\MightyDubster\Documents\Projects\pygmyos\profiles\nebula\shields/gsmModem.c:1381
    // ToDo: Add variable email from address
    print( MODEM_COM, "%s %s%s", (u8*)EMAIL_MAILFROM, globalModemEmail.From, (u8*)AT_CRLF );
   4:	f240 0200 	movw	r2, #0
   8:	f2c0 0200 	movt	r2, #0
   c:	f102 0304 	add.w	r3, r2, #4
  10:	9300      	str	r3, [sp, #0]
  12:	f04f 0001 	mov.w	r0, #1
  16:	f240 0100 	movw	r1, #0
  1a:	f2c0 0100 	movt	r1, #0
  1e:	f102 02b0 	add.w	r2, r2, #176	; 0xb0
  22:	4b02      	ldr	r3, [pc, #8]	; (c <print+0xc>)
  24:	f7ff fffe 	bl	0 <print>
C:\Users\MightyDubster\Documents\Projects\pygmyos\profiles\nebula\shields/gsmModem.c:1382
}
  28:	b003      	add	sp, #12
  2a:	bd00      	pop	{pc}
  2c:	0000007c 	.word	0x0000007c

Disassembly of section .text.print_HELO:

00000000 <print_HELO>:
print_HELO():
C:\Users\MightyDubster\Documents\Projects\pygmyos\profiles\nebula\shields/gsmModem.c:1373
    convertStringToBase64( globalModemEmail.From, ucBuffer ); // SMTP Servers use Base64 encoded login data
    print( MODEM_COM, "%s%s", ucBuffer, (u8*)AT_CRLF );
}

void print_HELO( void )
{
   0:	b500      	push	{lr}
   2:	b083      	sub	sp, #12
C:\Users\MightyDubster\Documents\Projects\pygmyos\profiles\nebula\shields/gsmModem.c:1375
    // ToDo: Add variable email server string
    print( MODEM_COM, "%s %s%s", (u8*)EMAIL_HELO, globalModemEmail.Domain, (u8*)AT_CRLF  ); 
   4:	f240 0200 	movw	r2, #0
   8:	f2c0 0200 	movt	r2, #0
   c:	f102 0304 	add.w	r3, r2, #4
  10:	9300      	str	r3, [sp, #0]
  12:	f04f 0001 	mov.w	r0, #1
  16:	f240 0100 	movw	r1, #0
  1a:	f2c0 0100 	movt	r1, #0
  1e:	f102 02bc 	add.w	r2, r2, #188	; 0xbc
  22:	f240 0300 	movw	r3, #0
  26:	f2c0 0300 	movt	r3, #0
  2a:	f7ff fffe 	bl	0 <print>
C:\Users\MightyDubster\Documents\Projects\pygmyos\profiles\nebula\shields/gsmModem.c:1376
}
  2e:	b003      	add	sp, #12
  30:	bd00      	pop	{pc}
  32:	bf00      	nop

Disassembly of section .text.print_AUTHLOGIN:

00000000 <print_AUTHLOGIN>:
print_AUTHLOGIN():
C:\Users\MightyDubster\Documents\Projects\pygmyos\profiles\nebula\shields/gsmModem.c:1350
{
    println( MODEM_COM, "AT+CSQ" ); 
}

void print_AUTHLOGIN( void )
{
   0:	b508      	push	{r3, lr}
C:\Users\MightyDubster\Documents\Projects\pygmyos\profiles\nebula\shields/gsmModem.c:1351
    print( MODEM_COM, "%s%s", (u8*)EMAIL_AUTHLOGIN, (u8*)AT_CRLF );
   2:	f240 0300 	movw	r3, #0
   6:	f2c0 0300 	movt	r3, #0
   a:	f04f 0001 	mov.w	r0, #1
   e:	f240 0100 	movw	r1, #0
  12:	f2c0 0100 	movt	r1, #0
  16:	f103 02c4 	add.w	r2, r3, #196	; 0xc4
  1a:	f103 0304 	add.w	r3, r3, #4
  1e:	f7ff fffe 	bl	0 <print>
C:\Users\MightyDubster\Documents\Projects\pygmyos\profiles\nebula\shields/gsmModem.c:1352
}
  22:	bd08      	pop	{r3, pc}

Disassembly of section .text.print_CGDCONT:

00000000 <print_CGDCONT>:
print_CGDCONT():
C:\Users\MightyDubster\Documents\Projects\pygmyos\profiles\nebula\shields/gsmModem.c:1307
        print( MODEM_COM, "%s\"\r", globalModemHostName ); // URL 1st half
    }  // else
}

void print_CGDCONT( void )
{
   0:	b508      	push	{r3, lr}
C:\Users\MightyDubster\Documents\Projects\pygmyos\profiles\nebula\shields/gsmModem.c:1308
    print( MODEM_COM, "AT+CGDCONT=1,\"IP\",\"" );
   2:	f04f 0001 	mov.w	r0, #1
   6:	f240 0100 	movw	r1, #0
   a:	f2c0 0100 	movt	r1, #0
   e:	f7ff fffe 	bl	0 <print>
C:\Users\MightyDubster\Documents\Projects\pygmyos\profiles\nebula\shields/gsmModem.c:1310
    //print( MODEM_COM,  ); //ToDo: Add global portal ( APN ) string
    print( MODEM_COM, "\",\"0.0.0.0\",0,0\r" );
  12:	f04f 0001 	mov.w	r0, #1
  16:	f240 0100 	movw	r1, #0
  1a:	f2c0 0100 	movt	r1, #0
  1e:	f7ff fffe 	bl	0 <print>
C:\Users\MightyDubster\Documents\Projects\pygmyos\profiles\nebula\shields/gsmModem.c:1311
}
  22:	bd08      	pop	{r3, pc}

Disassembly of section .text.print_SD:

00000000 <print_SD>:
print_SD():
C:\Users\MightyDubster\Documents\Projects\pygmyos\profiles\nebula\shields/gsmModem.c:1291
{
    print( MODEM_COM, "%sAT#SH=1\r", (u8*)AT_CTRLZ );
}

void print_SD( void )
{
   0:	b510      	push	{r4, lr}
C:\Users\MightyDubster\Documents\Projects\pygmyos\profiles\nebula\shields/gsmModem.c:1298
    // <port> 0 = TCP, 1 = UDP
    // <closure> 0 = auto ( default )
    // <localport> for UDP connections
    // <mode> 0 = online, 1 = command
    
    print( MODEM_COM, "AT#SD=1,0,%d,\"", globalModemTCPPort);
   2:	f240 0400 	movw	r4, #0
   6:	f2c0 0400 	movt	r4, #0
   a:	f04f 0001 	mov.w	r0, #1
   e:	f240 0100 	movw	r1, #0
  12:	f2c0 0100 	movt	r1, #0
  16:	8822      	ldrh	r2, [r4, #0]
  18:	f7ff fffe 	bl	0 <print>
C:\Users\MightyDubster\Documents\Projects\pygmyos\profiles\nebula\shields/gsmModem.c:1299
    if( globalModemTCPPort == 25 ){
  1c:	8823      	ldrh	r3, [r4, #0]
  1e:	2b19      	cmp	r3, #25
C:\Users\MightyDubster\Documents\Projects\pygmyos\profiles\nebula\shields/gsmModem.c:1300
        print( MODEM_COM, "%s\"\r", globalModemSMTPServer );
  20:	f04f 0001 	mov.w	r0, #1
  24:	f240 0100 	movw	r1, #0
  28:	f2c0 0100 	movt	r1, #0
  2c:	bf07      	ittee	eq
  2e:	f240 0200 	movweq	r2, #0
  32:	f2c0 0200 	movteq	r2, #0
C:\Users\MightyDubster\Documents\Projects\pygmyos\profiles\nebula\shields/gsmModem.c:1302
    } else{ 
        print( MODEM_COM, "%s\"\r", globalModemHostName ); // URL 1st half
  36:	f240 0200 	movwne	r2, #0
  3a:	f2c0 0200 	movtne	r2, #0
  3e:	f7ff fffe 	bl	0 <print>
  42:	bd10      	pop	{r4, pc}

Disassembly of section .text.print_SH:

00000000 <print_SH>:
print_SH():
C:\Users\MightyDubster\Documents\Projects\pygmyos\profiles\nebula\shields/gsmModem.c:1286
{
    print( MODEM_COM, "%sAT+CMGF=1\r", (u8*)AT_CTRLZ );
}

void print_SH( void )
{
   0:	b508      	push	{r3, lr}
C:\Users\MightyDubster\Documents\Projects\pygmyos\profiles\nebula\shields/gsmModem.c:1287
    print( MODEM_COM, "%sAT#SH=1\r", (u8*)AT_CTRLZ );
   2:	f04f 0001 	mov.w	r0, #1
   6:	f240 0100 	movw	r1, #0
   a:	f2c0 0100 	movt	r1, #0
   e:	4a02      	ldr	r2, [pc, #8]	; (c <print+0xc>)
  10:	f7ff fffe 	bl	0 <print>
C:\Users\MightyDubster\Documents\Projects\pygmyos\profiles\nebula\shields/gsmModem.c:1288
}
  14:	bd08      	pop	{r3, pc}
  16:	bf00      	nop
  18:	000000d0 	.word	0x000000d0

Disassembly of section .text.print_CMGSMessage:

00000000 <print_CMGSMessage>:
print_CMGSMessage():
C:\Users\MightyDubster\Documents\Projects\pygmyos\profiles\nebula\shields/gsmModem.c:1274
{
    print( MODEM_COM, "AT+CMGS=%s\r", globalModemSMS.PhoneNumber );
}

void print_CMGSMessage( void )
{
   0:	b508      	push	{r3, lr}
C:\Users\MightyDubster\Documents\Projects\pygmyos\profiles\nebula\shields/gsmModem.c:1277
    //print( MODEM_DEBUG, "\rSent \"%s\"", globalModemSMS.Message );
    //streamSetActionChars( MODEM_COM, "\r>" );
    print( MODEM_COM, "%s%s", globalModemSMS.Message, (u8*)AT_CTRLZ );
   2:	f04f 0001 	mov.w	r0, #1
   6:	f240 0100 	movw	r1, #0
   a:	f2c0 0100 	movt	r1, #0
   e:	4a02      	ldr	r2, [pc, #8]	; (18 <print_CMGSMessage+0x18>)
  10:	4b02      	ldr	r3, [pc, #8]	; (1c <print_CMGSMessage+0x1c>)
  12:	f7ff fffe 	bl	0 <print>
C:\Users\MightyDubster\Documents\Projects\pygmyos\profiles\nebula\shields/gsmModem.c:1278
}
  16:	bd08      	pop	{r3, pc}
  18:	00000010 	.word	0x00000010
  1c:	000000d0 	.word	0x000000d0

Disassembly of section .text.print_CMGS:

00000000 <print_CMGS>:
print_CMGS():
C:\Users\MightyDubster\Documents\Projects\pygmyos\profiles\nebula\shields/gsmModem.c:1269
    // If modem doesn't respond within 1 second power cycle
    print( MODEM_COM, "ATE0&W\r" );
}

void print_CMGS( void )
{
   0:	b508      	push	{r3, lr}
C:\Users\MightyDubster\Documents\Projects\pygmyos\profiles\nebula\shields/gsmModem.c:1270
    print( MODEM_COM, "AT+CMGS=%s\r", globalModemSMS.PhoneNumber );
   2:	f04f 0001 	mov.w	r0, #1
   6:	f240 0100 	movw	r1, #0
   a:	f2c0 0100 	movt	r1, #0
   e:	f240 0200 	movw	r2, #0
  12:	f2c0 0200 	movt	r2, #0
  16:	f7ff fffe 	bl	0 <print>
C:\Users\MightyDubster\Documents\Projects\pygmyos\profiles\nebula\shields/gsmModem.c:1271
}
  1a:	bd08      	pop	{r3, pc}

Disassembly of section .text.print_EMAILUSER:

00000000 <print_EMAILUSER>:
print_EMAILUSER():
C:\Users\MightyDubster\Documents\Projects\pygmyos\profiles\nebula\shields/gsmModem.c:1364
    convertStringToBase64( globalModemEmail.Password, ucBuffer ); // SMTP Servers use Base64 encoded login data
    print( MODEM_COM, "%s%s", ucBuffer, (u8*)AT_CRLF );
}

void print_EMAILUSER( void )
{
   0:	b500      	push	{lr}
   2:	b091      	sub	sp, #68	; 0x44
C:\Users\MightyDubster\Documents\Projects\pygmyos\profiles\nebula\shields/gsmModem.c:1368
    u8 ucBuffer[64];
    
    // ToDo: Add variable email address string
    convertStringToBase64( globalModemEmail.From, ucBuffer ); // SMTP Servers use Base64 encoded login data
   4:	4807      	ldr	r0, [pc, #28]	; (24 <print_EMAILUSER+0x24>)
   6:	4669      	mov	r1, sp
   8:	f7ff fffe 	bl	0 <convertStringToBase64>
C:\Users\MightyDubster\Documents\Projects\pygmyos\profiles\nebula\shields/gsmModem.c:1369
    print( MODEM_COM, "%s%s", ucBuffer, (u8*)AT_CRLF );
   c:	f04f 0001 	mov.w	r0, #1
  10:	f240 0100 	movw	r1, #0
  14:	f2c0 0100 	movt	r1, #0
  18:	466a      	mov	r2, sp
  1a:	4b03      	ldr	r3, [pc, #12]	; (28 <print_EMAILUSER+0x28>)
  1c:	f7ff fffe 	bl	0 <print>
C:\Users\MightyDubster\Documents\Projects\pygmyos\profiles\nebula\shields/gsmModem.c:1370
}
  20:	b011      	add	sp, #68	; 0x44
  22:	bd00      	pop	{pc}
  24:	0000007c 	.word	0x0000007c
  28:	00000004 	.word	0x00000004

Disassembly of section .text.print_EMAILPW:

00000000 <print_EMAILPW>:
print_EMAILPW():
C:\Users\MightyDubster\Documents\Projects\pygmyos\profiles\nebula\shields/gsmModem.c:1355
{
    print( MODEM_COM, "%s%s", (u8*)EMAIL_AUTHLOGIN, (u8*)AT_CRLF );
}

void print_EMAILPW( void )
{
   0:	b500      	push	{lr}
   2:	b08b      	sub	sp, #44	; 0x2c
C:\Users\MightyDubster\Documents\Projects\pygmyos\profiles\nebula\shields/gsmModem.c:1359
    u8 ucBuffer[40];
    
    // ToDo: Add variable pw string
    convertStringToBase64( globalModemEmail.Password, ucBuffer ); // SMTP Servers use Base64 encoded login data
   4:	4807      	ldr	r0, [pc, #28]	; (24 <print_EMAILPW+0x24>)
   6:	4669      	mov	r1, sp
   8:	f7ff fffe 	bl	0 <convertStringToBase64>
C:\Users\MightyDubster\Documents\Projects\pygmyos\profiles\nebula\shields/gsmModem.c:1360
    print( MODEM_COM, "%s%s", ucBuffer, (u8*)AT_CRLF );
   c:	f04f 0001 	mov.w	r0, #1
  10:	f240 0100 	movw	r1, #0
  14:	f2c0 0100 	movt	r1, #0
  18:	466a      	mov	r2, sp
  1a:	4b03      	ldr	r3, [pc, #12]	; (28 <print_EMAILPW+0x28>)
  1c:	f7ff fffe 	bl	0 <print>
C:\Users\MightyDubster\Documents\Projects\pygmyos\profiles\nebula\shields/gsmModem.c:1361
}
  20:	b00b      	add	sp, #44	; 0x2c
  22:	bd00      	pop	{pc}
  24:	00000028 	.word	0x00000028
  28:	00000004 	.word	0x00000004

Disassembly of section .text.print_CSQ:

00000000 <print_CSQ>:
print_CSQ():
C:\Users\MightyDubster\Documents\Projects\pygmyos\profiles\nebula\shields/gsmModem.c:1345
{
    println( MODEM_COM, "AT#QSS?" );
}

void print_CSQ( void )
{
   0:	b508      	push	{r3, lr}
C:\Users\MightyDubster\Documents\Projects\pygmyos\profiles\nebula\shields/gsmModem.c:1346
    println( MODEM_COM, "AT+CSQ" ); 
   2:	f04f 0001 	mov.w	r0, #1
   6:	f240 0100 	movw	r1, #0
   a:	f2c0 0100 	movt	r1, #0
   e:	f7ff fffe 	bl	0 <println>
C:\Users\MightyDubster\Documents\Projects\pygmyos\profiles\nebula\shields/gsmModem.c:1347
}
  12:	bd08      	pop	{r3, pc}

Disassembly of section .text.print_QSS:

00000000 <print_QSS>:
print_QSS():
C:\Users\MightyDubster\Documents\Projects\pygmyos\profiles\nebula\shields/gsmModem.c:1340
{
    println( MODEM_COM, "AT#SERVINFO" );
}

void print_QSS( void )
{
   0:	b508      	push	{r3, lr}
C:\Users\MightyDubster\Documents\Projects\pygmyos\profiles\nebula\shields/gsmModem.c:1341
    println( MODEM_COM, "AT#QSS?" );
   2:	f04f 0001 	mov.w	r0, #1
   6:	f240 0100 	movw	r1, #0
   a:	f2c0 0100 	movt	r1, #0
   e:	f7ff fffe 	bl	0 <println>
C:\Users\MightyDubster\Documents\Projects\pygmyos\profiles\nebula\shields/gsmModem.c:1342
}
  12:	bd08      	pop	{r3, pc}

Disassembly of section .text.print_SERVINFO:

00000000 <print_SERVINFO>:
print_SERVINFO():
C:\Users\MightyDubster\Documents\Projects\pygmyos\profiles\nebula\shields/gsmModem.c:1335
{
    println( MODEM_COM, "AT+CCLK?" );
}

void print_SERVINFO( void )
{
   0:	b508      	push	{r3, lr}
C:\Users\MightyDubster\Documents\Projects\pygmyos\profiles\nebula\shields/gsmModem.c:1336
    println( MODEM_COM, "AT#SERVINFO" );
   2:	f04f 0001 	mov.w	r0, #1
   6:	f240 0100 	movw	r1, #0
   a:	f2c0 0100 	movt	r1, #0
   e:	f7ff fffe 	bl	0 <println>
C:\Users\MightyDubster\Documents\Projects\pygmyos\profiles\nebula\shields/gsmModem.c:1337
}
  12:	bd08      	pop	{r3, pc}

Disassembly of section .text.print_CCLK:

00000000 <print_CCLK>:
print_CCLK():
C:\Users\MightyDubster\Documents\Projects\pygmyos\profiles\nebula\shields/gsmModem.c:1330
{ 
    println( MODEM_COM, "AT#SGACT=1,1" );
}

void print_CCLK( void )
{
   0:	b508      	push	{r3, lr}
C:\Users\MightyDubster\Documents\Projects\pygmyos\profiles\nebula\shields/gsmModem.c:1331
    println( MODEM_COM, "AT+CCLK?" );
   2:	f04f 0001 	mov.w	r0, #1
   6:	f240 0100 	movw	r1, #0
   a:	f2c0 0100 	movt	r1, #0
   e:	f7ff fffe 	bl	0 <println>
C:\Users\MightyDubster\Documents\Projects\pygmyos\profiles\nebula\shields/gsmModem.c:1332
}
  12:	bd08      	pop	{r3, pc}

Disassembly of section .text.print_SGACT1:

00000000 <print_SGACT1>:
print_SGACT1():
C:\Users\MightyDubster\Documents\Projects\pygmyos\profiles\nebula\shields/gsmModem.c:1325
{
    println( MODEM_COM, "AT#SGACT=1,0" );
}

void print_SGACT1( void )
{ 
   0:	b508      	push	{r3, lr}
C:\Users\MightyDubster\Documents\Projects\pygmyos\profiles\nebula\shields/gsmModem.c:1326
    println( MODEM_COM, "AT#SGACT=1,1" );
   2:	f04f 0001 	mov.w	r0, #1
   6:	f240 0100 	movw	r1, #0
   a:	f2c0 0100 	movt	r1, #0
   e:	f7ff fffe 	bl	0 <println>
C:\Users\MightyDubster\Documents\Projects\pygmyos\profiles\nebula\shields/gsmModem.c:1327
}
  12:	bd08      	pop	{r3, pc}

Disassembly of section .text.print_SGACT0:

00000000 <print_SGACT0>:
print_SGACT0():
C:\Users\MightyDubster\Documents\Projects\pygmyos\profiles\nebula\shields/gsmModem.c:1320
    // This function only prints out the basic command and context 
    println( MODEM_COM, "AT#SGACT?" );
}

void print_SGACT0( void )
{
   0:	b508      	push	{r3, lr}
C:\Users\MightyDubster\Documents\Projects\pygmyos\profiles\nebula\shields/gsmModem.c:1321
    println( MODEM_COM, "AT#SGACT=1,0" );
   2:	f04f 0001 	mov.w	r0, #1
   6:	f240 0100 	movw	r1, #0
   a:	f2c0 0100 	movt	r1, #0
   e:	f7ff fffe 	bl	0 <println>
C:\Users\MightyDubster\Documents\Projects\pygmyos\profiles\nebula\shields/gsmModem.c:1322
}
  12:	bd08      	pop	{r3, pc}

Disassembly of section .text.print_SGACT:

00000000 <print_SGACT>:
print_SGACT():
C:\Users\MightyDubster\Documents\Projects\pygmyos\profiles\nebula\shields/gsmModem.c:1314
    //print( MODEM_COM,  ); //ToDo: Add global portal ( APN ) string
    print( MODEM_COM, "\",\"0.0.0.0\",0,0\r" );
}

void print_SGACT( void )
{
   0:	b508      	push	{r3, lr}
C:\Users\MightyDubster\Documents\Projects\pygmyos\profiles\nebula\shields/gsmModem.c:1316
    // This function only prints out the basic command and context 
    println( MODEM_COM, "AT#SGACT?" );
   2:	f04f 0001 	mov.w	r0, #1
   6:	f240 0100 	movw	r1, #0
   a:	f2c0 0100 	movt	r1, #0
   e:	f7ff fffe 	bl	0 <println>
C:\Users\MightyDubster\Documents\Projects\pygmyos\profiles\nebula\shields/gsmModem.c:1317
}
  12:	bd08      	pop	{r3, pc}

Disassembly of section .text.handler_ATSH:

00000000 <handler_ATSH>:
handler_ATSH():
C:\Users\MightyDubster\Documents\Projects\pygmyos\profiles\nebula\shields/gsmModem.c:1025

    return( FALSE );
}

u8 handler_ATSH( u8 *ucBuffer )
{
   0:	b510      	push	{r4, lr}
C:\Users\MightyDubster\Documents\Projects\pygmyos\profiles\nebula\shields/gsmModem.c:1028
    u8 *ucSubString;
    
    ucSubString = getNextSubString( ucBuffer, WHITESPACE|PUNCT|NEWLINE );
   2:	f04f 0107 	mov.w	r1, #7
   6:	f7ff fffe 	bl	0 <getNextSubString>
   a:	4604      	mov	r4, r0
C:\Users\MightyDubster\Documents\Projects\pygmyos\profiles\nebula\shields/gsmModem.c:1029
    if( isStringSame( ucSubString, (u8*)AT_OK ) || isStringSame( ucSubString, (u8*)AT_ERROR ) ){
   c:	4907      	ldr	r1, [pc, #28]	; (2c <handler_ATSH+0x2c>)
   e:	f7ff fffe 	bl	0 <isStringSame>
  12:	b938      	cbnz	r0, 24 <handler_ATSH+0x24>
  14:	4620      	mov	r0, r4
  16:	4906      	ldr	r1, [pc, #24]	; (30 <handler_ATSH+0x30>)
  18:	f7ff fffe 	bl	0 <isStringSame>
C:\Users\MightyDubster\Documents\Projects\pygmyos\profiles\nebula\shields/gsmModem.c:1030
        return( TRUE ); // if already disconnected ERROR is valid
  1c:	3800      	subs	r0, #0
  1e:	bf18      	it	ne
  20:	2001      	movne	r0, #1
  22:	bd10      	pop	{r4, pc}
  24:	f04f 0001 	mov.w	r0, #1
C:\Users\MightyDubster\Documents\Projects\pygmyos\profiles\nebula\shields/gsmModem.c:1034
    } // if

    return( FALSE );
}
  28:	bd10      	pop	{r4, pc}
  2a:	bf00      	nop
  2c:	000000d4 	.word	0x000000d4
  30:	000000d8 	.word	0x000000d8

Disassembly of section .text.handler_ATSD:

00000000 <handler_ATSD>:
handler_ATSD():
C:\Users\MightyDubster\Documents\Projects\pygmyos\profiles\nebula\shields/gsmModem.c:1009
    
    return( FALSE );
}

u8 handler_ATSD( u8 *ucBuffer )
{
   0:	f04fb510 	.word	0xf04fb510
C:\Users\MightyDubster\Documents\Projects\pygmyos\profiles\nebula\shields/gsmModem.c:1012
    u8 *ucSubString;
    
    ucSubString = getNextSubString( ucBuffer, WHITESPACE|PUNCT );
   4:	0103      	lsls	r3, r0, #4
   6:	f7ff fffe 	bl	0 <getNextSubString>
   a:	4604      	mov	r4, r0
C:\Users\MightyDubster\Documents\Projects\pygmyos\profiles\nebula\shields/gsmModem.c:1014
    
    if( isStringSame( ucSubString, (u8*)AT_CONNECT ) ){
   c:	4906      	ldr	r1, [pc, #24]	; (28 <handler_ATSD+0x28>)
   e:	f7ff fffe 	bl	0 <isStringSame>
  12:	b930      	cbnz	r0, 22 <handler_ATSD+0x22>
C:\Users\MightyDubster\Documents\Projects\pygmyos\profiles\nebula\shields/gsmModem.c:1016
        return( TRUE );
    } else if( isStringSame( ucSubString, (u8*)AT_ERROR ) ){
  14:	4620      	mov	r0, r4
  16:	4905      	ldr	r1, [pc, #20]	; (2c <handler_ATSD+0x2c>)
  18:	f7ff fffe 	bl	0 <isStringSame>
C:\Users\MightyDubster\Documents\Projects\pygmyos\profiles\nebula\shields/gsmModem.c:1021
        //cell_close( (u8*)PYGMY_CMD_now );
        //cell_at( "" );
    } // else if

    return( FALSE );
  1c:	f04f 0000 	mov.w	r0, #0
  20:	bd10      	pop	{r4, pc}
C:\Users\MightyDubster\Documents\Projects\pygmyos\profiles\nebula\shields/gsmModem.c:1015
    u8 *ucSubString;
    
    ucSubString = getNextSubString( ucBuffer, WHITESPACE|PUNCT );
    
    if( isStringSame( ucSubString, (u8*)AT_CONNECT ) ){
        return( TRUE );
  22:	f04f 0001 	mov.w	r0, #1
C:\Users\MightyDubster\Documents\Projects\pygmyos\profiles\nebula\shields/gsmModem.c:1022
        //cell_close( (u8*)PYGMY_CMD_now );
        //cell_at( "" );
    } // else if

    return( FALSE );
}
  26:	bd10      	pop	{r4, pc}
  28:	000000e0 	.word	0x000000e0
  2c:	000000d8 	.word	0x000000d8

Disassembly of section .text.handler_ATCGDCONT:

00000000 <handler_ATCGDCONT>:
handler_ATCGDCONT():
C:\Users\MightyDubster\Documents\Projects\pygmyos\profiles\nebula\shields/gsmModem.c:1000

    return( FALSE );
}

u8 handler_ATCGDCONT( u8 *ucBuffer )
{
   0:	f04fb508 	.word	0xf04fb508
C:\Users\MightyDubster\Documents\Projects\pygmyos\profiles\nebula\shields/gsmModem.c:1001
    if( isStringSame( getNextSubString( ucBuffer, WHITESPACE|PUNCT ), (u8*)AT_OK ) ){
   4:	0103      	lsls	r3, r0, #4
   6:	f7ff fffe 	bl	0 <getNextSubString>
   a:	4903      	ldr	r1, [pc, #12]	; (10 <isStringSame+0x10>)
   c:	f7ff fffe 	bl	0 <isStringSame>
C:\Users\MightyDubster\Documents\Projects\pygmyos\profiles\nebula\shields/gsmModem.c:1006
        return( TRUE );
    } // if
    
    return( FALSE );
}
  10:	3800      	subs	r0, #0
  12:	bf18      	it	ne
  14:	2001      	movne	r0, #1
  16:	bd08      	pop	{r3, pc}
  18:	000000d4 	.word	0x000000d4

Disassembly of section .text.handler_ATSGACT:

00000000 <handler_ATSGACT>:
handler_ATSGACT():
C:\Users\MightyDubster\Documents\Projects\pygmyos\profiles\nebula\shields/gsmModem.c:987
  
    return( FALSE );
}

u8 handler_ATSGACT( u8 *ucBuffer )
{
   0:	b510      	push	{r4, lr}
C:\Users\MightyDubster\Documents\Projects\pygmyos\profiles\nebula\shields/gsmModem.c:990
    u8 *ucSubString;
    
    ucSubString = getNextSubString( ucBuffer, WHITESPACE|PUNCT|NEWLINE );
   2:	f04f 0107 	mov.w	r1, #7
   6:	f7ff fffe 	bl	0 <getNextSubString>
   a:	4604      	mov	r4, r0
C:\Users\MightyDubster\Documents\Projects\pygmyos\profiles\nebula\shields/gsmModem.c:992
   
    if( isStringSame( ucSubString, (u8*)AT_SGACT ) || isStringSame( ucSubString, (u8*)AT_OK ) ){
   c:	4907      	ldr	r1, [pc, #28]	; (2c <handler_ATSGACT+0x2c>)
   e:	f7ff fffe 	bl	0 <isStringSame>
  12:	b938      	cbnz	r0, 24 <handler_ATSGACT+0x24>
  14:	4620      	mov	r0, r4
  16:	4906      	ldr	r1, [pc, #24]	; (30 <handler_ATSGACT+0x30>)
  18:	f7ff fffe 	bl	0 <isStringSame>
C:\Users\MightyDubster\Documents\Projects\pygmyos\profiles\nebula\shields/gsmModem.c:993
        return( TRUE );
  1c:	3800      	subs	r0, #0
  1e:	bf18      	it	ne
  20:	2001      	movne	r0, #1
  22:	bd10      	pop	{r4, pc}
  24:	f04f 0001 	mov.w	r0, #1
C:\Users\MightyDubster\Documents\Projects\pygmyos\profiles\nebula\shields/gsmModem.c:997
    } // if

    return( FALSE );
}
  28:	bd10      	pop	{r4, pc}
  2a:	bf00      	nop
  2c:	000000e8 	.word	0x000000e8
  30:	000000d4 	.word	0x000000d4

Disassembly of section .text.handler_ATCCLK:

00000000 <handler_ATCCLK>:
handler_ATCCLK():
C:\Users\MightyDubster\Documents\Projects\pygmyos\profiles\nebula\shields/gsmModem.c:950

    return( TRUE );
}

u8 handler_ATCCLK( u8 *ucBuffer )
{
   0:	b510      	push	{r4, lr}
C:\Users\MightyDubster\Documents\Projects\pygmyos\profiles\nebula\shields/gsmModem.c:953
    u8 *ucParam, *ucTime;//[ 2 ];

    ucParam = getNextSubString( ucBuffer, WHITESPACE );
   2:	f04f 0102 	mov.w	r1, #2
   6:	f7ff fffe 	bl	0 <getNextSubString>
   a:	4604      	mov	r4, r0
C:\Users\MightyDubster\Documents\Projects\pygmyos\profiles\nebula\shields/gsmModem.c:954
    ucTime = getNextSubString( NULL, NEWLINE );
   c:	f04f 0000 	mov.w	r0, #0
  10:	f04f 0104 	mov.w	r1, #4
  14:	f7ff fffe 	bl	0 <getNextSubString>
  18:	4603      	mov	r3, r0
C:\Users\MightyDubster\Documents\Projects\pygmyos\profiles\nebula\shields/gsmModem.c:955
    print( MODEM_DEBUG, "\rATCCLK( %s, %s )", ucParam, ucTime );
  1a:	f04f 0002 	mov.w	r0, #2
  1e:	f240 0100 	movw	r1, #0
  22:	f2c0 0100 	movt	r1, #0
  26:	4622      	mov	r2, r4
  28:	f7ff fffe 	bl	0 <print>
C:\Users\MightyDubster\Documents\Projects\pygmyos\profiles\nebula\shields/gsmModem.c:956
    if( isStringSame( ucParam,  (u8*)AT_CCLK ) ){//&& set_time( ucParams[ 1 ] ) ){
  2c:	4620      	mov	r0, r4
  2e:	4909      	ldr	r1, [pc, #36]	; (54 <handler_ATCCLK+0x54>)
  30:	f7ff fffe 	bl	0 <isStringSame>
  34:	b150      	cbz	r0, 4c <handler_ATCCLK+0x4c>
C:\Users\MightyDubster\Documents\Projects\pygmyos\profiles\nebula\shields/gsmModem.c:957
        print( MODEM_DEBUG, "TIME( %s )" );
  36:	f04f 0002 	mov.w	r0, #2
  3a:	f240 0100 	movw	r1, #0
  3e:	f2c0 0100 	movt	r1, #0
  42:	f7ff fffe 	bl	0 <print>
C:\Users\MightyDubster\Documents\Projects\pygmyos\profiles\nebula\shields/gsmModem.c:958
        return( TRUE );
  46:	f04f 0001 	mov.w	r0, #1
  4a:	bd10      	pop	{r4, pc}
C:\Users\MightyDubster\Documents\Projects\pygmyos\profiles\nebula\shields/gsmModem.c:961
    } // if
    
    return( FALSE );
  4c:	f04f 0000 	mov.w	r0, #0
C:\Users\MightyDubster\Documents\Projects\pygmyos\profiles\nebula\shields/gsmModem.c:962
}
  50:	bd10      	pop	{r4, pc}
  52:	bf00      	nop
  54:	000000f0 	.word	0x000000f0

Disassembly of section .text.handler_ATESCAPE:

00000000 <handler_ATESCAPE>:
handler_ATESCAPE():
C:\Users\MightyDubster\Documents\Projects\pygmyos\profiles\nebula\shields/gsmModem.c:884

//--------------------------------------Response Handlers-------------------------------------
//--------------------------------------------------------------------------------------------

u8 handler_ATESCAPE( u8 *ucBuffer )
{
   0:	f04fb508 	.word	0xf04fb508
C:\Users\MightyDubster\Documents\Projects\pygmyos\profiles\nebula\shields/gsmModem.c:887
    u8 *ucParam, ucLen;

    ucParam = getNextSubString( ucBuffer, WHITESPACE|PUNCT );
   4:	0103      	lsls	r3, r0, #4
   6:	f7ff fffe 	bl	0 <getNextSubString>
C:\Users\MightyDubster\Documents\Projects\pygmyos\profiles\nebula\shields/gsmModem.c:888
    if( isStringSame( ucParam, (u8*)AT_OK ) ){
   a:	4903      	ldr	r1, [pc, #12]	; (10 <isStringSame+0x10>)
   c:	f7ff fffe 	bl	0 <isStringSame>
C:\Users\MightyDubster\Documents\Projects\pygmyos\profiles\nebula\shields/gsmModem.c:893
        return( TRUE );
    }

    return( FALSE );
}
  10:	3800      	subs	r0, #0
  12:	bf18      	it	ne
  14:	2001      	movne	r0, #1
  16:	bd08      	pop	{r3, pc}
  18:	000000d4 	.word	0x000000d4

Disassembly of section .text.handler_ATQSS:

00000000 <handler_ATQSS>:
handler_ATQSS():
C:\Users\MightyDubster\Documents\Projects\pygmyos\profiles\nebula\shields/gsmModem.c:965
    
    return( FALSE );
}

u8 handler_ATQSS( u8 *ucBuffer )
{
   0:	b500      	push	{lr}
   2:	b085      	sub	sp, #20
C:\Users\MightyDubster\Documents\Projects\pygmyos\profiles\nebula\shields/gsmModem.c:968
    u8 *ucParams[ 4 ];
 
    getAllSubStrings( ucBuffer, ucParams, 4, WHITESPACE|PUNCT );
   4:	4669      	mov	r1, sp
   6:	f04f 0204 	mov.w	r2, #4
   a:	f04f 0303 	mov.w	r3, #3
   e:	f7ff fffe 	bl	0 <getAllSubStrings>
C:\Users\MightyDubster\Documents\Projects\pygmyos\profiles\nebula\shields/gsmModem.c:969
    if( !isStringSame( ucParams[ 0 ], (u8*)AT_QSS ) ){
  12:	9800      	ldr	r0, [sp, #0]
  14:	4906      	ldr	r1, [pc, #24]	; (30 <handler_ATQSS+0x30>)
  16:	f7ff fffe 	bl	0 <isStringSame>
  1a:	b128      	cbz	r0, 28 <handler_ATQSS+0x28>
C:\Users\MightyDubster\Documents\Projects\pygmyos\profiles\nebula\shields/gsmModem.c:973
        return( FALSE );
    } // if

    if( convertStringToInt( ucParams[ 2 ] ) ){
  1c:	9802      	ldr	r0, [sp, #8]
  1e:	f7ff fffe 	bl	0 <convertStringToInt>
C:\Users\MightyDubster\Documents\Projects\pygmyos\profiles\nebula\shields/gsmModem.c:977
       // ToDo: Add code to do something with QSS value
    } // if

    return( TRUE );
  22:	f04f 0001 	mov.w	r0, #1
  26:	e001      	b.n	2c <handler_ATQSS+0x2c>
C:\Users\MightyDubster\Documents\Projects\pygmyos\profiles\nebula\shields/gsmModem.c:970
{
    u8 *ucParams[ 4 ];
 
    getAllSubStrings( ucBuffer, ucParams, 4, WHITESPACE|PUNCT );
    if( !isStringSame( ucParams[ 0 ], (u8*)AT_QSS ) ){
        return( FALSE );
  28:	f04f 0000 	mov.w	r0, #0
C:\Users\MightyDubster\Documents\Projects\pygmyos\profiles\nebula\shields/gsmModem.c:978
    if( convertStringToInt( ucParams[ 2 ] ) ){
       // ToDo: Add code to do something with QSS value
    } // if

    return( TRUE );
}
  2c:	b005      	add	sp, #20
  2e:	bd00      	pop	{pc}
  30:	000000f8 	.word	0x000000f8

Disassembly of section .text.handler_ATCSQ:

00000000 <handler_ATCSQ>:
handler_ATCSQ():
C:\Users\MightyDubster\Documents\Projects\pygmyos\profiles\nebula\shields/gsmModem.c:936
    
    return( FALSE );
}

u8 handler_ATCSQ( u8 *ucBuffer )
{
   0:	b083b500 	.word	0xb083b500
C:\Users\MightyDubster\Documents\Projects\pygmyos\profiles\nebula\shields/gsmModem.c:940
    // +CSQ is the AT response for Signal Quality, 0-31, 99 = no service or unknown
    u8 *ucParams[ 2 ], ucSignal;
    
    getAllSubStrings( ucBuffer, ucParams, 2, WHITESPACE|PUNCT );
   4:	4669      	mov	r1, sp
   6:	f04f 0202 	mov.w	r2, #2
   a:	f04f 0303 	mov.w	r3, #3
   e:	f7ff fffe 	bl	0 <getAllSubStrings>
C:\Users\MightyDubster\Documents\Projects\pygmyos\profiles\nebula\shields/gsmModem.c:941
    if( isStringSame( ucParams[ 0 ], (u8*)AT_CSQ ) ){
  12:	9800      	ldr	r0, [sp, #0]
  14:	4905      	ldr	r1, [pc, #20]	; (2c <handler_ATCSQ+0x2c>)
  16:	f7ff fffe 	bl	0 <isStringSame>
  1a:	b110      	cbz	r0, 22 <handler_ATCSQ+0x22>
C:\Users\MightyDubster\Documents\Projects\pygmyos\profiles\nebula\shields/gsmModem.c:942
        ucSignal = convertStringToInt( ucParams[ 1 ] );
  1c:	9801      	ldr	r0, [sp, #4]
  1e:	f7ff fffe 	bl	0 <convertStringToInt>
C:\Users\MightyDubster\Documents\Projects\pygmyos\profiles\nebula\shields/gsmModem.c:947
        // ToDo: Do something with signal strength        
    } // if

    return( TRUE );
}
  22:	f04f 0001 	mov.w	r0, #1
  26:	b003      	add	sp, #12
  28:	bd00      	pop	{pc}
  2a:	bf00      	nop
  2c:	00000100 	.word	0x00000100

Disassembly of section .text.modem_smsdel:

00000000 <modem_smsdel>:
modem_smsdel():
C:\Users\MightyDubster\Documents\Projects\pygmyos\profiles\nebula\shields/gsmModem.c:832
    
    return( TRUE );
}

u8 modem_smsdel( u8 *ucBuffer )
{
   0:	b510      	push	{r4, lr}
   2:	b082      	sub	sp, #8
C:\Users\MightyDubster\Documents\Projects\pygmyos\profiles\nebula\shields/gsmModem.c:835
    u8 *ucParams[ 2 ], ucLen;

    ucLen = getAllSubStrings( ucBuffer, ucParams, 2, WHITESPACE|PUNCT|NEWLINE );
   4:	4669      	mov	r1, sp
   6:	f04f 0202 	mov.w	r2, #2
   a:	f04f 0307 	mov.w	r3, #7
   e:	f7ff fffe 	bl	0 <getAllSubStrings>
C:\Users\MightyDubster\Documents\Projects\pygmyos\profiles\nebula\shields/gsmModem.c:836
    if( ucLen > 1 ){
  12:	b2c0      	uxtb	r0, r0
  14:	2801      	cmp	r0, #1
C:\Users\MightyDubster\Documents\Projects\pygmyos\profiles\nebula\shields/gsmModem.c:851
    pygmyCmd.Expire = 15;
    pygmyCmd.Retry = 1;
    cmdQueue( &globalModemQueue, &pygmyCmd );
    */

    return( FALSE );
  16:	bf98      	it	ls
  18:	2000      	movls	r0, #0
C:\Users\MightyDubster\Documents\Projects\pygmyos\profiles\nebula\shields/gsmModem.c:836
u8 modem_smsdel( u8 *ucBuffer )
{
    u8 *ucParams[ 2 ], ucLen;

    ucLen = getAllSubStrings( ucBuffer, ucParams, 2, WHITESPACE|PUNCT|NEWLINE );
    if( ucLen > 1 ){
  1a:	d912      	bls.n	42 <modem_smsdel+0x42>
C:\Users\MightyDubster\Documents\Projects\pygmyos\profiles\nebula\shields/gsmModem.c:837
        print( MODEM_COM, "AT+CMGD=%d,%d\r", convertStringToInt( ucParams[ 0 ] ), convertStringToInt( ucParams[ 1 ] ) );
  1c:	9800      	ldr	r0, [sp, #0]
  1e:	f7ff fffe 	bl	0 <convertStringToInt>
  22:	4604      	mov	r4, r0
  24:	9801      	ldr	r0, [sp, #4]
  26:	f7ff fffe 	bl	0 <convertStringToInt>
  2a:	4603      	mov	r3, r0
  2c:	f04f 0001 	mov.w	r0, #1
  30:	f240 0100 	movw	r1, #0
  34:	f2c0 0100 	movt	r1, #0
  38:	4622      	mov	r2, r4
  3a:	f7ff fffe 	bl	0 <print>
C:\Users\MightyDubster\Documents\Projects\pygmyos\profiles\nebula\shields/gsmModem.c:839
        
        return( TRUE );
  3e:	f04f 0001 	mov.w	r0, #1
C:\Users\MightyDubster\Documents\Projects\pygmyos\profiles\nebula\shields/gsmModem.c:852
    pygmyCmd.Retry = 1;
    cmdQueue( &globalModemQueue, &pygmyCmd );
    */

    return( FALSE );
}
  42:	b002      	add	sp, #8
  44:	bd10      	pop	{r4, pc}
  46:	bf00      	nop

Disassembly of section .text.modem_flow:

00000000 <modem_flow>:
modem_flow():
C:\Users\MightyDubster\Documents\Projects\pygmyos\profiles\nebula\shields/gsmModem.c:221

//---------------------------------------Modem Commands---------------------------------------
//--------------------------------------------------------------------------------------------

u8 modem_flow( u8 *ucBuffer )
{
   0:	b510      	push	{r4, lr}
   2:	b082      	sub	sp, #8
C:\Users\MightyDubster\Documents\Projects\pygmyos\profiles\nebula\shields/gsmModem.c:224
    u8 *ucParams[ 2 ], ucLen;

    ucLen = getAllSubStrings( ucBuffer, ucParams, 2, WHITESPACE|PUNCT|NEWLINE );
   4:	4669      	mov	r1, sp
   6:	f04f 0202 	mov.w	r2, #2
   a:	f04f 0307 	mov.w	r3, #7
   e:	f7ff fffe 	bl	0 <getAllSubStrings>
C:\Users\MightyDubster\Documents\Projects\pygmyos\profiles\nebula\shields/gsmModem.c:225
    if( ucLen > 1 ){
  12:	b2c0      	uxtb	r0, r0
  14:	2801      	cmp	r0, #1
C:\Users\MightyDubster\Documents\Projects\pygmyos\profiles\nebula\shields/gsmModem.c:231
        print( MODEM_COM, "AT+IFC=%d,%d\r", convertStringToInt( ucParams[ 0 ] ), 
            convertStringToInt( ucParams[ 1 ] ) );
        return( TRUE );
    } // if

    return( FALSE );
  16:	bf98      	it	ls
  18:	2000      	movls	r0, #0
C:\Users\MightyDubster\Documents\Projects\pygmyos\profiles\nebula\shields/gsmModem.c:225
u8 modem_flow( u8 *ucBuffer )
{
    u8 *ucParams[ 2 ], ucLen;

    ucLen = getAllSubStrings( ucBuffer, ucParams, 2, WHITESPACE|PUNCT|NEWLINE );
    if( ucLen > 1 ){
  1a:	d912      	bls.n	42 <modem_flow+0x42>
C:\Users\MightyDubster\Documents\Projects\pygmyos\profiles\nebula\shields/gsmModem.c:226
        print( MODEM_COM, "AT+IFC=%d,%d\r", convertStringToInt( ucParams[ 0 ] ), 
  1c:	9800      	ldr	r0, [sp, #0]
  1e:	f7ff fffe 	bl	0 <convertStringToInt>
  22:	4604      	mov	r4, r0
  24:	9801      	ldr	r0, [sp, #4]
  26:	f7ff fffe 	bl	0 <convertStringToInt>
  2a:	4603      	mov	r3, r0
  2c:	f04f 0001 	mov.w	r0, #1
  30:	f240 0100 	movw	r1, #0
  34:	f2c0 0100 	movt	r1, #0
  38:	4622      	mov	r2, r4
  3a:	f7ff fffe 	bl	0 <print>
C:\Users\MightyDubster\Documents\Projects\pygmyos\profiles\nebula\shields/gsmModem.c:228
            convertStringToInt( ucParams[ 1 ] ) );
        return( TRUE );
  3e:	f04f 0001 	mov.w	r0, #1
C:\Users\MightyDubster\Documents\Projects\pygmyos\profiles\nebula\shields/gsmModem.c:232
    } // if

    return( FALSE );
}
  42:	b002      	add	sp, #8
  44:	bd10      	pop	{r4, pc}
  46:	bf00      	nop

Disassembly of section .text.handler_ATSMSPROMPT:

00000000 <handler_ATSMSPROMPT>:
handler_ATSMSPROMPT():
C:\Users\MightyDubster\Documents\Projects\pygmyos\profiles\nebula\shields/gsmModem.c:1054

    return( FALSE );
}

u8 handler_ATSMSPROMPT( u8 *ucBuffer )
{
   0:	b510      	push	{r4, lr}
C:\Users\MightyDubster\Documents\Projects\pygmyos\profiles\nebula\shields/gsmModem.c:1057
    u8 *ucParam;

    ucParam = getNextSubString( ucBuffer, NEWLINE );
   2:	f04f 0104 	mov.w	r1, #4
   6:	f7ff fffe 	bl	0 <getNextSubString>
   a:	4604      	mov	r4, r0
C:\Users\MightyDubster\Documents\Projects\pygmyos\profiles\nebula\shields/gsmModem.c:1059
    
    if( replaceChars( ucParam, ">", ' ' ) ){
   c:	f240 0100 	movw	r1, #0
  10:	f2c0 0100 	movt	r1, #0
  14:	f04f 0220 	mov.w	r2, #32
  18:	f7ff fffe 	bl	0 <replaceChars>
  1c:	b140      	cbz	r0, 30 <handler_ATSMSPROMPT+0x30>
C:\Users\MightyDubster\Documents\Projects\pygmyos\profiles\nebula\shields/gsmModem.c:1060
        print( MODEM_COM, "\rATSMSPROMPT", ucParam );
  1e:	f04f 0001 	mov.w	r0, #1
  22:	f240 0100 	movw	r1, #0
  26:	f2c0 0100 	movt	r1, #0
  2a:	4622      	mov	r2, r4
  2c:	f7ff fffe 	bl	0 <print>
C:\Users\MightyDubster\Documents\Projects\pygmyos\profiles\nebula\shields/gsmModem.c:1065
        return( TRUE );
    } // if
    
    return( TRUE );
}
  30:	f04f 0001 	mov.w	r0, #1
  34:	bd10      	pop	{r4, pc}
  36:	bf00      	nop

Disassembly of section .text.handler_ATCMGS:

00000000 <handler_ATCMGS>:
handler_ATCMGS():
C:\Users\MightyDubster\Documents\Projects\pygmyos\profiles\nebula\shields/gsmModem.c:1037

    return( FALSE );
}

u8 handler_ATCMGS( u8 *ucBuffer )
{
   0:	b510      	push	{r4, lr}
C:\Users\MightyDubster\Documents\Projects\pygmyos\profiles\nebula\shields/gsmModem.c:1040
    u8 *ucSubString;

    ucSubString = getNextSubString( ucBuffer, WHITESPACE|PUNCT|NEWLINE );
   2:	f04f 0107 	mov.w	r1, #7
   6:	f7ff fffe 	bl	0 <getNextSubString>
   a:	4604      	mov	r4, r0
C:\Users\MightyDubster\Documents\Projects\pygmyos\profiles\nebula\shields/gsmModem.c:1042
   // print( MODEM_COM, "\rATCMGS( %s )", ucSubString );
    if( isStringSame( ucSubString, (u8*)AT_CMGS ) || isStringSame( ucSubString, (u8*)AT_CMS ) ){ 
   c:	490b      	ldr	r1, [pc, #44]	; (3c <handler_ATCMGS+0x3c>)
   e:	f7ff fffe 	bl	0 <isStringSame>
  12:	b920      	cbnz	r0, 1e <handler_ATCMGS+0x1e>
  14:	4620      	mov	r0, r4
  16:	490a      	ldr	r1, [pc, #40]	; (40 <handler_ATCMGS+0x40>)
  18:	f7ff fffe 	bl	0 <isStringSame>
  1c:	b158      	cbz	r0, 1fe <HTTP_GET+0x2>
C:\Users\MightyDubster\Documents\Projects\pygmyos\profiles\nebula\shields/gsmModem.c:1044
        // Message fail
        if( cmdIsQueued( &globalModemQueue, (u8*)AT_CMGS ) == 1 ){
  1e:	f240 0000 	movw	r0, #0
  22:	f2c0 0000 	movt	r0, #0
  26:	4905      	ldr	r1, [pc, #20]	; (18 <cmdIsQueued+0x18>)
  28:	f7ff fffe 	bl	0 <cmdIsQueued>
C:\Users\MightyDubster\Documents\Projects\pygmyos\profiles\nebula\shields/gsmModem.c:1046
            
            return( TRUE );
  2c:	2801      	cmp	r0, #1
  2e:	bf14      	ite	ne
  30:	2000      	movne	r0, #0
  32:	2001      	moveq	r0, #1
  34:	bd10      	pop	{r4, pc}
C:\Users\MightyDubster\Documents\Projects\pygmyos\profiles\nebula\shields/gsmModem.c:1050
        } // if
    } // if

    return( FALSE );
  36:	f04f 0000 	mov.w	r0, #0
C:\Users\MightyDubster\Documents\Projects\pygmyos\profiles\nebula\shields/gsmModem.c:1051
}
  3a:	bd10      	pop	{r4, pc}
  3c:	00000108 	.word	0x00000108
  40:	00000110 	.word	0x00000110

Disassembly of section .text.modem_suspend:

00000000 <modem_suspend>:
modem_suspend():
C:\Users\MightyDubster\Documents\Projects\pygmyos\profiles\nebula\shields/gsmModem.c:757

    return( TRUE );
}
                                    
u8 modem_suspend( u8 *ucBuffer )
{
   0:	b510      	push	{r4, lr}
   2:	b086      	sub	sp, #24
C:\Users\MightyDubster\Documents\Projects\pygmyos\profiles\nebula\shields/gsmModem.c:760
    PYGMYCOMMAND pygmyCmd;

    pygmyCmd.Name = (u8*)AT_ESCAPE;
   4:	f240 0300 	movw	r3, #0
   8:	f2c0 0300 	movt	r3, #0
   c:	9301      	str	r3, [sp, #4]
C:\Users\MightyDubster\Documents\Projects\pygmyos\profiles\nebula\shields/gsmModem.c:761
    pygmyCmd.PrintHandler = print_ATESCAPE;
   e:	f240 0300 	movw	r3, #0
  12:	f2c0 0300 	movt	r3, #0
  16:	9302      	str	r3, [sp, #8]
C:\Users\MightyDubster\Documents\Projects\pygmyos\profiles\nebula\shields/gsmModem.c:762
    pygmyCmd.EventHandler = handler_ATESCAPE;
  18:	f240 0300 	movw	r3, #0
  1c:	f2c0 0300 	movt	r3, #0
  20:	9303      	str	r3, [sp, #12]
C:\Users\MightyDubster\Documents\Projects\pygmyos\profiles\nebula\shields/gsmModem.c:763
    pygmyCmd.Expire = 1;
  22:	f04f 0301 	mov.w	r3, #1
  26:	9305      	str	r3, [sp, #20]
C:\Users\MightyDubster\Documents\Projects\pygmyos\profiles\nebula\shields/gsmModem.c:764
    pygmyCmd.Retry = 0;
  28:	f04f 0400 	mov.w	r4, #0
  2c:	f88d 4001 	strb.w	r4, [sp, #1]
C:\Users\MightyDubster\Documents\Projects\pygmyos\profiles\nebula\shields/gsmModem.c:766

    cmdQueue( &globalModemQueue, &pygmyCmd );
  30:	f240 0000 	movw	r0, #0
  34:	f2c0 0000 	movt	r0, #0
  38:	4669      	mov	r1, sp
  3a:	f7ff fffe 	bl	0 <cmdQueue>
C:\Users\MightyDubster\Documents\Projects\pygmyos\profiles\nebula\shields/gsmModem.c:769

    return( FALSE );
}
  3e:	4620      	mov	r0, r4
  40:	b006      	add	sp, #24
  42:	bd10      	pop	{r4, pc}

Disassembly of section .text.modem_portal:

00000000 <modem_portal>:
modem_portal():
C:\Users\MightyDubster\Documents\Projects\pygmyos\profiles\nebula\shields/gsmModem.c:742

    return( FALSE );
}
                  
u8 modem_portal( u8 *ucBuffer )
{
   0:	b510      	push	{r4, lr}
   2:	b086      	sub	sp, #24
C:\Users\MightyDubster\Documents\Projects\pygmyos\profiles\nebula\shields/gsmModem.c:746
    // Applies portal settings currently configured ( APN )
    PYGMYCOMMAND pygmyCmd;

    pygmyCmd.Name = (u8*)AT_CGDCONT;
   4:	4b0e      	ldr	r3, [pc, #56]	; (40 <modem_portal+0x40>)
   6:	9301      	str	r3, [sp, #4]
C:\Users\MightyDubster\Documents\Projects\pygmyos\profiles\nebula\shields/gsmModem.c:747
    pygmyCmd.PrintHandler = print_CGDCONT;
   8:	f240 0300 	movw	r3, #0
   c:	f2c0 0300 	movt	r3, #0
  10:	9302      	str	r3, [sp, #8]
C:\Users\MightyDubster\Documents\Projects\pygmyos\profiles\nebula\shields/gsmModem.c:748
    pygmyCmd.EventHandler = handler_ATCGDCONT;
  12:	f240 0300 	movw	r3, #0
  16:	f2c0 0300 	movt	r3, #0
  1a:	9303      	str	r3, [sp, #12]
C:\Users\MightyDubster\Documents\Projects\pygmyos\profiles\nebula\shields/gsmModem.c:749
    pygmyCmd.Expire = 4;
  1c:	f04f 0304 	mov.w	r3, #4
  20:	9305      	str	r3, [sp, #20]
C:\Users\MightyDubster\Documents\Projects\pygmyos\profiles\nebula\shields/gsmModem.c:750
    pygmyCmd.Retry = 1;
  22:	f04f 0401 	mov.w	r4, #1
  26:	f88d 4001 	strb.w	r4, [sp, #1]
C:\Users\MightyDubster\Documents\Projects\pygmyos\profiles\nebula\shields/gsmModem.c:751
    cmdQueue( &globalModemQueue, &pygmyCmd );
  2a:	f240 0000 	movw	r0, #0
  2e:	f2c0 0000 	movt	r0, #0
  32:	4669      	mov	r1, sp
  34:	f7ff fffe 	bl	0 <cmdQueue>
C:\Users\MightyDubster\Documents\Projects\pygmyos\profiles\nebula\shields/gsmModem.c:754

    return( TRUE );
}
  38:	4620      	mov	r0, r4
  3a:	b006      	add	sp, #24
  3c:	bd10      	pop	{r4, pc}
  3e:	bf00      	nop
  40:	00000118 	.word	0x00000118

Disassembly of section .text.modem_detach:

00000000 <modem_detach>:
modem_detach():
C:\Users\MightyDubster\Documents\Projects\pygmyos\profiles\nebula\shields/gsmModem.c:728

    return( FALSE );
}
                                   
u8 modem_detach( u8 *ucBuffer )
{
   0:	b500      	push	{lr}
   2:	b087      	sub	sp, #28
C:\Users\MightyDubster\Documents\Projects\pygmyos\profiles\nebula\shields/gsmModem.c:731
    PYGMYCOMMAND pygmyCmd;

    pygmyCmd.Name = (u8*)AT_SGACT;
   4:	4b0e      	ldr	r3, [pc, #56]	; (40 <modem_detach+0x40>)
   6:	9301      	str	r3, [sp, #4]
C:\Users\MightyDubster\Documents\Projects\pygmyos\profiles\nebula\shields/gsmModem.c:732
    pygmyCmd.PrintHandler = print_SGACT0;
   8:	f240 0300 	movw	r3, #0
   c:	f2c0 0300 	movt	r3, #0
  10:	9302      	str	r3, [sp, #8]
C:\Users\MightyDubster\Documents\Projects\pygmyos\profiles\nebula\shields/gsmModem.c:733
    pygmyCmd.EventHandler = handler_ATSGACT;
  12:	f240 0300 	movw	r3, #0
  16:	f2c0 0300 	movt	r3, #0
  1a:	9303      	str	r3, [sp, #12]
C:\Users\MightyDubster\Documents\Projects\pygmyos\profiles\nebula\shields/gsmModem.c:734
    pygmyCmd.Expire = 2;
  1c:	f04f 0302 	mov.w	r3, #2
  20:	9305      	str	r3, [sp, #20]
C:\Users\MightyDubster\Documents\Projects\pygmyos\profiles\nebula\shields/gsmModem.c:735
    pygmyCmd.Retry = 4;
  22:	f04f 0304 	mov.w	r3, #4
  26:	f88d 3001 	strb.w	r3, [sp, #1]
C:\Users\MightyDubster\Documents\Projects\pygmyos\profiles\nebula\shields/gsmModem.c:736
    cmdQueue( &globalModemQueue, &pygmyCmd );
  2a:	f240 0000 	movw	r0, #0
  2e:	f2c0 0000 	movt	r0, #0
  32:	4669      	mov	r1, sp
  34:	f7ff fffe 	bl	0 <cmdQueue>
C:\Users\MightyDubster\Documents\Projects\pygmyos\profiles\nebula\shields/gsmModem.c:739

    return( FALSE );
}
  38:	f04f 0000 	mov.w	r0, #0
  3c:	b007      	add	sp, #28
  3e:	bd00      	pop	{pc}
  40:	000000e8 	.word	0x000000e8

Disassembly of section .text.modem_attach:

00000000 <modem_attach>:
modem_attach():
C:\Users\MightyDubster\Documents\Projects\pygmyos\profiles\nebula\shields/gsmModem.c:686

    return( TRUE );
}
                                   
u8 modem_attach( u8 *ucBuffer )
{
   0:	b500      	push	{lr}
   2:	b087      	sub	sp, #28
C:\Users\MightyDubster\Documents\Projects\pygmyos\profiles\nebula\shields/gsmModem.c:689
    PYGMYCOMMAND pygmyCmd;

    pygmyCmd.Name = (u8*)AT_SGACT;
   4:	4b0e      	ldr	r3, [pc, #56]	; (40 <modem_attach+0x40>)
   6:	9301      	str	r3, [sp, #4]
C:\Users\MightyDubster\Documents\Projects\pygmyos\profiles\nebula\shields/gsmModem.c:690
    pygmyCmd.PrintHandler = print_SGACT;
   8:	f240 0300 	movw	r3, #0
   c:	f2c0 0300 	movt	r3, #0
  10:	9302      	str	r3, [sp, #8]
C:\Users\MightyDubster\Documents\Projects\pygmyos\profiles\nebula\shields/gsmModem.c:691
    pygmyCmd.EventHandler = modem_attachtest;
  12:	f240 0300 	movw	r3, #0
  16:	f2c0 0300 	movt	r3, #0
  1a:	9303      	str	r3, [sp, #12]
C:\Users\MightyDubster\Documents\Projects\pygmyos\profiles\nebula\shields/gsmModem.c:692
    pygmyCmd.Expire = 2;
  1c:	f04f 0302 	mov.w	r3, #2
  20:	9305      	str	r3, [sp, #20]
C:\Users\MightyDubster\Documents\Projects\pygmyos\profiles\nebula\shields/gsmModem.c:693
    pygmyCmd.Retry = 1;
  22:	f04f 0301 	mov.w	r3, #1
  26:	f88d 3001 	strb.w	r3, [sp, #1]
C:\Users\MightyDubster\Documents\Projects\pygmyos\profiles\nebula\shields/gsmModem.c:694
    cmdQueue( &globalModemQueue, &pygmyCmd );
  2a:	f240 0000 	movw	r0, #0
  2e:	f2c0 0000 	movt	r0, #0
  32:	4669      	mov	r1, sp
  34:	f7ff fffe 	bl	0 <cmdQueue>
C:\Users\MightyDubster\Documents\Projects\pygmyos\profiles\nebula\shields/gsmModem.c:697

    return( FALSE );
}
  38:	f04f 0000 	mov.w	r0, #0
  3c:	b007      	add	sp, #28
  3e:	bd00      	pop	{pc}
  40:	000000e8 	.word	0x000000e8

Disassembly of section .text.modem_time:

00000000 <modem_time>:
modem_time():
C:\Users\MightyDubster\Documents\Projects\pygmyos\profiles\nebula\shields/gsmModem.c:672

    return( TRUE );
}
                                 
u8 modem_time( u8 *ucBuffer )
{
   0:	b087b500 	.word	0xb087b500
C:\Users\MightyDubster\Documents\Projects\pygmyos\profiles\nebula\shields/gsmModem.c:675
    PYGMYCOMMAND pygmyCmd;

    pygmyCmd.Name = (u8*)AT_CCLK;
   4:	4b0d      	ldr	r3, [pc, #52]	; (3c <modem_time+0x3c>)
   6:	9301      	str	r3, [sp, #4]
C:\Users\MightyDubster\Documents\Projects\pygmyos\profiles\nebula\shields/gsmModem.c:676
    pygmyCmd.PrintHandler = print_CCLK;
   8:	f240 0300 	movw	r3, #0
   c:	f2c0 0300 	movt	r3, #0
  10:	9302      	str	r3, [sp, #8]
C:\Users\MightyDubster\Documents\Projects\pygmyos\profiles\nebula\shields/gsmModem.c:677
    pygmyCmd.EventHandler = handler_ATCCLK;
  12:	f240 0300 	movw	r3, #0
  16:	f2c0 0300 	movt	r3, #0
  1a:	9303      	str	r3, [sp, #12]
C:\Users\MightyDubster\Documents\Projects\pygmyos\profiles\nebula\shields/gsmModem.c:678
    pygmyCmd.Expire = 2;
  1c:	f04f 0302 	mov.w	r3, #2
  20:	9305      	str	r3, [sp, #20]
C:\Users\MightyDubster\Documents\Projects\pygmyos\profiles\nebula\shields/gsmModem.c:679
    pygmyCmd.Retry = 2;
  22:	f88d 3001 	strb.w	r3, [sp, #1]
C:\Users\MightyDubster\Documents\Projects\pygmyos\profiles\nebula\shields/gsmModem.c:680
    cmdQueue( &globalModemQueue, &pygmyCmd );
  26:	f240 0000 	movw	r0, #0
  2a:	f2c0 0000 	movt	r0, #0
  2e:	4669      	mov	r1, sp
  30:	f7ff fffe 	bl	0 <cmdQueue>
C:\Users\MightyDubster\Documents\Projects\pygmyos\profiles\nebula\shields/gsmModem.c:683

    return( TRUE );
}
  34:	f04f 0001 	mov.w	r0, #1
  38:	b007      	add	sp, #28
  3a:	bd00      	pop	{pc}
  3c:	000000f0 	.word	0x000000f0

Disassembly of section .text.modem_carrier:

00000000 <modem_carrier>:
modem_carrier():
C:\Users\MightyDubster\Documents\Projects\pygmyos\profiles\nebula\shields/gsmModem.c:658

    return( TRUE );
}
             
u8 modem_carrier( u8 *ucBuffer )
{
   0:	b500      	push	{lr}
   2:	b087      	sub	sp, #28
C:\Users\MightyDubster\Documents\Projects\pygmyos\profiles\nebula\shields/gsmModem.c:661
    PYGMYCOMMAND pygmyCmd;

    pygmyCmd.Name = (u8*)AT_SERVINFO;
   4:	4b0e      	ldr	r3, [pc, #56]	; (40 <modem_carrier+0x40>)
   6:	9301      	str	r3, [sp, #4]
C:\Users\MightyDubster\Documents\Projects\pygmyos\profiles\nebula\shields/gsmModem.c:662
    pygmyCmd.PrintHandler = print_SERVINFO;
   8:	f240 0300 	movw	r3, #0
   c:	f2c0 0300 	movt	r3, #0
  10:	9302      	str	r3, [sp, #8]
C:\Users\MightyDubster\Documents\Projects\pygmyos\profiles\nebula\shields/gsmModem.c:663
    pygmyCmd.EventHandler = handler_ATSERVINFO;
  12:	f240 0300 	movw	r3, #0
  16:	f2c0 0300 	movt	r3, #0
  1a:	9303      	str	r3, [sp, #12]
C:\Users\MightyDubster\Documents\Projects\pygmyos\profiles\nebula\shields/gsmModem.c:664
    pygmyCmd.Expire = 4;
  1c:	f04f 0304 	mov.w	r3, #4
  20:	9305      	str	r3, [sp, #20]
C:\Users\MightyDubster\Documents\Projects\pygmyos\profiles\nebula\shields/gsmModem.c:665
    pygmyCmd.Retry = 2;
  22:	f04f 0302 	mov.w	r3, #2
  26:	f88d 3001 	strb.w	r3, [sp, #1]
C:\Users\MightyDubster\Documents\Projects\pygmyos\profiles\nebula\shields/gsmModem.c:666
    cmdQueue( &globalModemQueue, &pygmyCmd );
  2a:	f240 0000 	movw	r0, #0
  2e:	f2c0 0000 	movt	r0, #0
  32:	4669      	mov	r1, sp
  34:	f7ff fffe 	bl	0 <cmdQueue>
C:\Users\MightyDubster\Documents\Projects\pygmyos\profiles\nebula\shields/gsmModem.c:669

    return( TRUE );
}
  38:	f04f 0001 	mov.w	r0, #1
  3c:	b007      	add	sp, #28
  3e:	bd00      	pop	{pc}
  40:	00000124 	.word	0x00000124

Disassembly of section .text.modem_http:

00000000 <modem_http>:
modem_http():
C:\Users\MightyDubster\Documents\Projects\pygmyos\profiles\nebula\shields/gsmModem.c:507

    return( TRUE );
}
                             
u8 modem_http( u8 *ucBuffer )
{
   0:	b500      	push	{lr}
   2:	b087      	sub	sp, #28
C:\Users\MightyDubster\Documents\Projects\pygmyos\profiles\nebula\shields/gsmModem.c:510
    PYGMYCOMMAND pygmyCmd;

    pygmyCmd.Name = "GET";
   4:	f240 0300 	movw	r3, #0
   8:	f2c0 0300 	movt	r3, #0
   c:	9301      	str	r3, [sp, #4]
C:\Users\MightyDubster\Documents\Projects\pygmyos\profiles\nebula\shields/gsmModem.c:511
    pygmyCmd.PrintHandler = print_http;
   e:	f240 0300 	movw	r3, #0
  12:	f2c0 0300 	movt	r3, #0
  16:	9302      	str	r3, [sp, #8]
C:\Users\MightyDubster\Documents\Projects\pygmyos\profiles\nebula\shields/gsmModem.c:512
    pygmyCmd.EventHandler = handler_ATGET;
  18:	f240 0300 	movw	r3, #0
  1c:	f2c0 0300 	movt	r3, #0
  20:	9303      	str	r3, [sp, #12]
C:\Users\MightyDubster\Documents\Projects\pygmyos\profiles\nebula\shields/gsmModem.c:513
    pygmyCmd.Expire = 15;
  22:	f04f 030f 	mov.w	r3, #15
  26:	9305      	str	r3, [sp, #20]
C:\Users\MightyDubster\Documents\Projects\pygmyos\profiles\nebula\shields/gsmModem.c:514
    pygmyCmd.Retry = 2;
  28:	f04f 0302 	mov.w	r3, #2
  2c:	f88d 3001 	strb.w	r3, [sp, #1]
C:\Users\MightyDubster\Documents\Projects\pygmyos\profiles\nebula\shields/gsmModem.c:515
    cmdQueue( &globalModemQueue, &pygmyCmd );
  30:	f240 0000 	movw	r0, #0
  34:	f2c0 0000 	movt	r0, #0
  38:	4669      	mov	r1, sp
  3a:	f7ff fffe 	bl	0 <cmdQueue>
C:\Users\MightyDubster\Documents\Projects\pygmyos\profiles\nebula\shields/gsmModem.c:518

    return( FALSE );
}
  3e:	f04f 0000 	mov.w	r0, #0
  42:	b007      	add	sp, #28
  44:	bd00      	pop	{pc}
  46:	bf00      	nop

Disassembly of section .text.modem_simin:

00000000 <modem_simin>:
modem_simin():
C:\Users\MightyDubster\Documents\Projects\pygmyos\profiles\nebula\shields/gsmModem.c:272

    return( FALSE );
}

u8 modem_simin( u8 *ucBuffer )
{
   0:	b500      	push	{lr}
   2:	b087      	sub	sp, #28
C:\Users\MightyDubster\Documents\Projects\pygmyos\profiles\nebula\shields/gsmModem.c:275
    PYGMYCOMMAND pygmyCmd;

    pygmyCmd.Name = (u8*)AT_QSS;
   4:	4b0d      	ldr	r3, [pc, #52]	; (3c <modem_simin+0x3c>)
   6:	9301      	str	r3, [sp, #4]
C:\Users\MightyDubster\Documents\Projects\pygmyos\profiles\nebula\shields/gsmModem.c:276
    pygmyCmd.PrintHandler = print_QSS;
   8:	f240 0300 	movw	r3, #0
   c:	f2c0 0300 	movt	r3, #0
  10:	9302      	str	r3, [sp, #8]
C:\Users\MightyDubster\Documents\Projects\pygmyos\profiles\nebula\shields/gsmModem.c:277
    pygmyCmd.EventHandler = handler_ATQSS;
  12:	f240 0300 	movw	r3, #0
  16:	f2c0 0300 	movt	r3, #0
  1a:	9303      	str	r3, [sp, #12]
C:\Users\MightyDubster\Documents\Projects\pygmyos\profiles\nebula\shields/gsmModem.c:278
    pygmyCmd.Expire = 2;
  1c:	f04f 0302 	mov.w	r3, #2
  20:	9305      	str	r3, [sp, #20]
C:\Users\MightyDubster\Documents\Projects\pygmyos\profiles\nebula\shields/gsmModem.c:279
    pygmyCmd.Retry = 2;
  22:	f88d 3001 	strb.w	r3, [sp, #1]
C:\Users\MightyDubster\Documents\Projects\pygmyos\profiles\nebula\shields/gsmModem.c:280
    cmdQueue( &globalModemQueue, &pygmyCmd );
  26:	f240 0000 	movw	r0, #0
  2a:	f2c0 0000 	movt	r0, #0
  2e:	4669      	mov	r1, sp
  30:	f7ff fffe 	bl	0 <cmdQueue>
C:\Users\MightyDubster\Documents\Projects\pygmyos\profiles\nebula\shields/gsmModem.c:283

    return( TRUE );
}
  34:	f04f 0001 	mov.w	r0, #1
  38:	b007      	add	sp, #28
  3a:	bd00      	pop	{pc}
  3c:	000000f8 	.word	0x000000f8

Disassembly of section .text.modem_csq:

00000000 <modem_csq>:
modem_csq():
C:\Users\MightyDubster\Documents\Projects\pygmyos\profiles\nebula\shields/gsmModem.c:235

    return( FALSE );
}

u8 modem_csq( u8 *ucBuffer )
{
   0:	b500      	push	{lr}
   2:	b087      	sub	sp, #28
C:\Users\MightyDubster\Documents\Projects\pygmyos\profiles\nebula\shields/gsmModem.c:238
    PYGMYCOMMAND pygmyCmd;

    pygmyCmd.Name = (u8*)AT_CSQ;
   4:	4b0d      	ldr	r3, [pc, #52]	; (3c <modem_csq+0x3c>)
   6:	9301      	str	r3, [sp, #4]
C:\Users\MightyDubster\Documents\Projects\pygmyos\profiles\nebula\shields/gsmModem.c:239
    pygmyCmd.PrintHandler = print_CSQ;
   8:	f240 0300 	movw	r3, #0
   c:	f2c0 0300 	movt	r3, #0
  10:	9302      	str	r3, [sp, #8]
C:\Users\MightyDubster\Documents\Projects\pygmyos\profiles\nebula\shields/gsmModem.c:240
    pygmyCmd.EventHandler = handler_ATCSQ;
  12:	f240 0300 	movw	r3, #0
  16:	f2c0 0300 	movt	r3, #0
  1a:	9303      	str	r3, [sp, #12]
C:\Users\MightyDubster\Documents\Projects\pygmyos\profiles\nebula\shields/gsmModem.c:241
    pygmyCmd.Expire = 2;
  1c:	f04f 0302 	mov.w	r3, #2
  20:	9305      	str	r3, [sp, #20]
C:\Users\MightyDubster\Documents\Projects\pygmyos\profiles\nebula\shields/gsmModem.c:242
    pygmyCmd.Retry = 2;
  22:	f88d 3001 	strb.w	r3, [sp, #1]
C:\Users\MightyDubster\Documents\Projects\pygmyos\profiles\nebula\shields/gsmModem.c:243
    cmdQueue( &globalModemQueue, &pygmyCmd );
  26:	f240 0000 	movw	r0, #0
  2a:	f2c0 0000 	movt	r0, #0
  2e:	4669      	mov	r1, sp
  30:	f7ff fffe 	bl	0 <cmdQueue>
C:\Users\MightyDubster\Documents\Projects\pygmyos\profiles\nebula\shields/gsmModem.c:246

    return( TRUE );
}
  34:	f04f 0001 	mov.w	r0, #1
  38:	b007      	add	sp, #28
  3a:	bd00      	pop	{pc}
  3c:	00000100 	.word	0x00000100

Disassembly of section .text.modem_close:

00000000 <modem_close>:
modem_close():
C:\Users\MightyDubster\Documents\Projects\pygmyos\profiles\nebula\shields/gsmModem.c:772

    return( FALSE );
}
           
u8 modem_close( u8 *ucBuffer )
{
   0:	b500      	push	{lr}
   2:	b089      	sub	sp, #36	; 0x24
C:\Users\MightyDubster\Documents\Projects\pygmyos\profiles\nebula\shields/gsmModem.c:776
    PYGMYCOMMAND pygmyCmd;
    u8 *ucParams[ 2 ], ucLen;
    
    ucLen = getAllSubStrings( ucBuffer, ucParams, 2, WHITESPACE|PUNCT );
   4:	4669      	mov	r1, sp
   6:	f04f 0202 	mov.w	r2, #2
   a:	f04f 0303 	mov.w	r3, #3
   e:	f7ff fffe 	bl	0 <getAllSubStrings>
C:\Users\MightyDubster\Documents\Projects\pygmyos\profiles\nebula\shields/gsmModem.c:777
    if( isStringSameIgnoreCase( ucParams[ 0 ], "now" ) ){
  12:	9800      	ldr	r0, [sp, #0]
  14:	f240 0100 	movw	r1, #0
  18:	f2c0 0100 	movt	r1, #0
  1c:	f7ff fffe 	bl	0 <isStringSameIgnoreCase>
  20:	b130      	cbz	r0, 1f4 <HTTP_Host>
C:\Users\MightyDubster\Documents\Projects\pygmyos\profiles\nebula\shields/gsmModem.c:778
        cmdInitQueue( &globalModemQueue );
  22:	f240 0000 	movw	r0, #0
  26:	f2c0 0000 	movt	r0, #0
  2a:	f7ff fffe 	bl	0 <cmdInitQueue>
  2e:	e019      	b.n	64 <modem_close+0x64>
C:\Users\MightyDubster\Documents\Projects\pygmyos\profiles\nebula\shields/gsmModem.c:780
    } else{
        pygmyCmd.Name = (u8*)AT_SH;
  30:	4b0e      	ldr	r3, [pc, #56]	; (6c <modem_close+0x6c>)
  32:	9303      	str	r3, [sp, #12]
C:\Users\MightyDubster\Documents\Projects\pygmyos\profiles\nebula\shields/gsmModem.c:781
        pygmyCmd.PrintHandler = print_SH;
  34:	f240 0300 	movw	r3, #0
  38:	f2c0 0300 	movt	r3, #0
  3c:	9304      	str	r3, [sp, #16]
C:\Users\MightyDubster\Documents\Projects\pygmyos\profiles\nebula\shields/gsmModem.c:782
        pygmyCmd.EventHandler = handler_ATSH;
  3e:	f240 0300 	movw	r3, #0
  42:	f2c0 0300 	movt	r3, #0
  46:	9305      	str	r3, [sp, #20]
C:\Users\MightyDubster\Documents\Projects\pygmyos\profiles\nebula\shields/gsmModem.c:783
        pygmyCmd.Expire = 2;
  48:	f04f 0302 	mov.w	r3, #2
  4c:	9307      	str	r3, [sp, #28]
C:\Users\MightyDubster\Documents\Projects\pygmyos\profiles\nebula\shields/gsmModem.c:784
        pygmyCmd.Retry = 1;
  4e:	f04f 0301 	mov.w	r3, #1
  52:	f88d 3009 	strb.w	r3, [sp, #9]
C:\Users\MightyDubster\Documents\Projects\pygmyos\profiles\nebula\shields/gsmModem.c:786

        cmdQueue( &globalModemQueue, &pygmyCmd );
  56:	f240 0000 	movw	r0, #0
  5a:	f2c0 0000 	movt	r0, #0
  5e:	a902      	add	r1, sp, #8
  60:	f7ff fffe 	bl	0 <cmdQueue>
C:\Users\MightyDubster\Documents\Projects\pygmyos\profiles\nebula\shields/gsmModem.c:790
    } // else

    return( TRUE );
}
  64:	f04f 0001 	mov.w	r0, #1
  68:	b009      	add	sp, #36	; 0x24
  6a:	bd00      	pop	{pc}
  6c:	00000130 	.word	0x00000130

Disassembly of section .text.handler_ATGET:

00000000 <handler_ATGET>:
handler_ATGET():
C:\Users\MightyDubster\Documents\Projects\pygmyos\profiles\nebula\shields/gsmModem.c:896

    return( FALSE );
}

u8 handler_ATGET( u8 *ucBuffer )
{
   0:	b500      	push	{lr}
   2:	b087      	sub	sp, #28
C:\Users\MightyDubster\Documents\Projects\pygmyos\profiles\nebula\shields/gsmModem.c:899
    u8 i, *ucParams[ 6 ], ucLen;

    ucLen = getAllSubStrings( ucBuffer, ucParams, 6, WHITESPACE|SEPARATORS|NEWLINE ); 
   4:	4669      	mov	r1, sp
   6:	f04f 0206 	mov.w	r2, #6
   a:	f04f 030e 	mov.w	r3, #14
   e:	f7ff fffe 	bl	0 <getAllSubStrings>
C:\Users\MightyDubster\Documents\Projects\pygmyos\profiles\nebula\shields/gsmModem.c:901
    
    modem_close( "now" );
  12:	f240 0000 	movw	r0, #0
  16:	f2c0 0000 	movt	r0, #0
  1a:	f7ff fffe 	bl	0 <handler_ATGET>
C:\Users\MightyDubster\Documents\Projects\pygmyos\profiles\nebula\shields/gsmModem.c:902
    globalModemStatus &= ~(MODEM_HTTPINPROGRESS);
  1e:	f240 0300 	movw	r3, #0
  22:	f2c0 0300 	movt	r3, #0
  26:	681a      	ldr	r2, [r3, #0]
  28:	f022 0204 	bic.w	r2, r2, #4
  2c:	601a      	str	r2, [r3, #0]
C:\Users\MightyDubster\Documents\Projects\pygmyos\profiles\nebula\shields/gsmModem.c:912
        // This will restart connection process
    //    modem_http( "" ); 
    //} // if

    return( 0 );
}
  2e:	f04f 0000 	mov.w	r0, #0
  32:	b007      	add	sp, #28
  34:	bd00      	pop	{pc}
  36:	bf00      	nop

Disassembly of section .text.email_get:

00000000 <email_get>:
email_get():
C:\Users\MightyDubster\Documents\Projects\pygmyos\profiles\nebula\shields/gsmModem.c:446
    pygmyCmd.Retry = 0; // only a pause to allow prompt from smtp server
    cmdQueue( &globalModemQueue, &pygmyCmd );
}

u8 email_get( u8 *ucBuffer )
{
   0:	b510      	push	{r4, lr}
C:\Users\MightyDubster\Documents\Projects\pygmyos\profiles\nebula\shields/gsmModem.c:450
    // This function doesn't "get" an e-mail, rather it acts as the equivalent to HTTP GET
    u8 *ucParam;

    ucParam = getNextSubString( ucBuffer, WHITESPACE|PUNCT );
   2:	f04f 0103 	mov.w	r1, #3
   6:	f7ff fffe 	bl	0 <getNextSubString>
C:\Users\MightyDubster\Documents\Projects\pygmyos\profiles\nebula\shields/gsmModem.c:452
    
    if( ucParam ){
   a:	4604      	mov	r4, r0
   c:	2800      	cmp	r0, #0
   e:	d043      	beq.n	98 <email_get+0x98>
C:\Users\MightyDubster\Documents\Projects\pygmyos\profiles\nebula\shields/gsmModem.c:453
        if( isStringSame( ucParam, (u8*)EMAIL_220 ) || // Greeting
  10:	492c      	ldr	r1, [pc, #176]	; (c4 <email_get+0xc4>)
  12:	f7ff fffe 	bl	0 <isStringSame>
  16:	2800      	cmp	r0, #0
  18:	d141      	bne.n	9e <email_get+0x9e>
C:\Users\MightyDubster\Documents\Projects\pygmyos\profiles\nebula\shields/gsmModem.c:454
            isStringSame( ucParam, (u8*)EMAIL_235 ) || // Authentication accepted
  1a:	4620      	mov	r0, r4
  1c:	492a      	ldr	r1, [pc, #168]	; (c8 <email_get+0xc8>)
  1e:	f7ff fffe 	bl	0 <isStringSame>
C:\Users\MightyDubster\Documents\Projects\pygmyos\profiles\nebula\shields/gsmModem.c:453
    u8 *ucParam;

    ucParam = getNextSubString( ucBuffer, WHITESPACE|PUNCT );
    
    if( ucParam ){
        if( isStringSame( ucParam, (u8*)EMAIL_220 ) || // Greeting
  22:	2800      	cmp	r0, #0
  24:	d13e      	bne.n	a4 <email_get+0xa4>
C:\Users\MightyDubster\Documents\Projects\pygmyos\profiles\nebula\shields/gsmModem.c:455
            isStringSame( ucParam, (u8*)EMAIL_235 ) || // Authentication accepted
            isStringSame( ucParam, (u8*)EMAIL_250 ) || // Ack 
  26:	4620      	mov	r0, r4
  28:	4928      	ldr	r1, [pc, #160]	; (cc <email_get+0xcc>)
  2a:	f7ff fffe 	bl	0 <isStringSame>
C:\Users\MightyDubster\Documents\Projects\pygmyos\profiles\nebula\shields/gsmModem.c:454

    ucParam = getNextSubString( ucBuffer, WHITESPACE|PUNCT );
    
    if( ucParam ){
        if( isStringSame( ucParam, (u8*)EMAIL_220 ) || // Greeting
            isStringSame( ucParam, (u8*)EMAIL_235 ) || // Authentication accepted
  2e:	2800      	cmp	r0, #0
  30:	d13b      	bne.n	aa <email_get+0xaa>
C:\Users\MightyDubster\Documents\Projects\pygmyos\profiles\nebula\shields/gsmModem.c:456
            isStringSame( ucParam, (u8*)EMAIL_250 ) || // Ack 
            isStringSame( ucParam, (u8*)EMAIL_334 ) || // Ready for Login
  32:	4620      	mov	r0, r4
  34:	4926      	ldr	r1, [pc, #152]	; (d0 <email_get+0xd0>)
  36:	f7ff fffe 	bl	0 <isStringSame>
C:\Users\MightyDubster\Documents\Projects\pygmyos\profiles\nebula\shields/gsmModem.c:455
    ucParam = getNextSubString( ucBuffer, WHITESPACE|PUNCT );
    
    if( ucParam ){
        if( isStringSame( ucParam, (u8*)EMAIL_220 ) || // Greeting
            isStringSame( ucParam, (u8*)EMAIL_235 ) || // Authentication accepted
            isStringSame( ucParam, (u8*)EMAIL_250 ) || // Ack 
  3a:	2800      	cmp	r0, #0
  3c:	d138      	bne.n	b0 <email_get+0xb0>
C:\Users\MightyDubster\Documents\Projects\pygmyos\profiles\nebula\shields/gsmModem.c:457
            isStringSame( ucParam, (u8*)EMAIL_334 ) || // Ready for Login
            isStringSame( ucParam, (u8*)EMAIL_354 ) ){ // Ready for Data
  3e:	4620      	mov	r0, r4
  40:	4924      	ldr	r1, [pc, #144]	; (d4 <email_get+0xd4>)
  42:	f7ff fffe 	bl	0 <isStringSame>
C:\Users\MightyDubster\Documents\Projects\pygmyos\profiles\nebula\shields/gsmModem.c:456
    
    if( ucParam ){
        if( isStringSame( ucParam, (u8*)EMAIL_220 ) || // Greeting
            isStringSame( ucParam, (u8*)EMAIL_235 ) || // Authentication accepted
            isStringSame( ucParam, (u8*)EMAIL_250 ) || // Ack 
            isStringSame( ucParam, (u8*)EMAIL_334 ) || // Ready for Login
  46:	2800      	cmp	r0, #0
  48:	d135      	bne.n	b6 <email_get+0xb6>
C:\Users\MightyDubster\Documents\Projects\pygmyos\profiles\nebula\shields/gsmModem.c:459
            isStringSame( ucParam, (u8*)EMAIL_354 ) ){ // Ready for Data
            return( TRUE );
        } else if( isStringSame( ucParam, "500" ) || isStringSame( ucParam, "503" ) ){
  4a:	4620      	mov	r0, r4
  4c:	f240 0100 	movw	r1, #0
  50:	f2c0 0100 	movt	r1, #0
  54:	f7ff fffe 	bl	0 <isStringSame>
  58:	b938      	cbnz	r0, 6a <email_get+0x6a>
  5a:	4620      	mov	r0, r4
  5c:	f240 0100 	movw	r1, #0
  60:	f2c0 0100 	movt	r1, #0
  64:	f7ff fffe 	bl	0 <isStringSame>
  68:	b140      	cbz	r0, 1b0 <AT_ICF+0x4>
C:\Users\MightyDubster\Documents\Projects\pygmyos\profiles\nebula\shields/gsmModem.c:460
            modem_close( "now" );
  6a:	f240 0000 	movw	r0, #0
  6e:	f2c0 0000 	movt	r0, #0
  72:	f7ff fffe 	bl	0 <email_get>
C:\Users\MightyDubster\Documents\Projects\pygmyos\profiles\nebula\shields/gsmModem.c:467
            modem_close( "now" );
            return( TRUE );
        } //else if
    }

    return( FALSE );
  76:	f04f 0000 	mov.w	r0, #0
C:\Users\MightyDubster\Documents\Projects\pygmyos\profiles\nebula\shields/gsmModem.c:460
            isStringSame( ucParam, (u8*)EMAIL_250 ) || // Ack 
            isStringSame( ucParam, (u8*)EMAIL_334 ) || // Ready for Login
            isStringSame( ucParam, (u8*)EMAIL_354 ) ){ // Ready for Data
            return( TRUE );
        } else if( isStringSame( ucParam, "500" ) || isStringSame( ucParam, "503" ) ){
            modem_close( "now" );
  7a:	bd10      	pop	{r4, pc}
C:\Users\MightyDubster\Documents\Projects\pygmyos\profiles\nebula\shields/gsmModem.c:461
        } else if( isStringSame( ucParam, (u8*)EMAIL_221 ) ){
  7c:	4620      	mov	r0, r4
  7e:	4916      	ldr	r1, [pc, #88]	; (d8 <email_get+0xd8>)
  80:	f7ff fffe 	bl	0 <isStringSame>
  84:	b1d0      	cbz	r0, 1d4 <HTTP_keepalive+0x4>
C:\Users\MightyDubster\Documents\Projects\pygmyos\profiles\nebula\shields/gsmModem.c:462
            modem_close( "now" );
  86:	f240 0000 	movw	r0, #0
  8a:	f2c0 0000 	movt	r0, #0
  8e:	f7ff fffe 	bl	0 <email_get>
C:\Users\MightyDubster\Documents\Projects\pygmyos\profiles\nebula\shields/gsmModem.c:463
            return( TRUE );
  92:	f04f 0001 	mov.w	r0, #1
  96:	bd10      	pop	{r4, pc}
C:\Users\MightyDubster\Documents\Projects\pygmyos\profiles\nebula\shields/gsmModem.c:467
        } //else if
    }

    return( FALSE );
  98:	f04f 0000 	mov.w	r0, #0
  9c:	bd10      	pop	{r4, pc}
C:\Users\MightyDubster\Documents\Projects\pygmyos\profiles\nebula\shields/gsmModem.c:458
        if( isStringSame( ucParam, (u8*)EMAIL_220 ) || // Greeting
            isStringSame( ucParam, (u8*)EMAIL_235 ) || // Authentication accepted
            isStringSame( ucParam, (u8*)EMAIL_250 ) || // Ack 
            isStringSame( ucParam, (u8*)EMAIL_334 ) || // Ready for Login
            isStringSame( ucParam, (u8*)EMAIL_354 ) ){ // Ready for Data
            return( TRUE );
  9e:	f04f 0001 	mov.w	r0, #1
  a2:	bd10      	pop	{r4, pc}
  a4:	f04f 0001 	mov.w	r0, #1
  a8:	bd10      	pop	{r4, pc}
  aa:	f04f 0001 	mov.w	r0, #1
  ae:	bd10      	pop	{r4, pc}
  b0:	f04f 0001 	mov.w	r0, #1
  b4:	bd10      	pop	{r4, pc}
  b6:	f04f 0001 	mov.w	r0, #1
  ba:	bd10      	pop	{r4, pc}
C:\Users\MightyDubster\Documents\Projects\pygmyos\profiles\nebula\shields/gsmModem.c:467
            modem_close( "now" );
            return( TRUE );
        } //else if
    }

    return( FALSE );
  bc:	f04f 0000 	mov.w	r0, #0
C:\Users\MightyDubster\Documents\Projects\pygmyos\profiles\nebula\shields/gsmModem.c:468
}
  c0:	bd10      	pop	{r4, pc}
  c2:	bf00      	nop
  c4:	00000134 	.word	0x00000134
  c8:	00000138 	.word	0x00000138
  cc:	0000013c 	.word	0x0000013c
  d0:	00000140 	.word	0x00000140
  d4:	00000144 	.word	0x00000144
  d8:	00000148 	.word	0x00000148

Disassembly of section .text.modem_echo:

00000000 <modem_echo>:
modem_echo():
C:\Users\MightyDubster\Documents\Projects\pygmyos\profiles\nebula\shields/gsmModem.c:249

    return( TRUE );
}
      
u8 modem_echo( u8 *ucBuffer )
{
   0:	b510      	push	{r4, lr}
C:\Users\MightyDubster\Documents\Projects\pygmyos\profiles\nebula\shields/gsmModem.c:252
    u8 *ucParam;

    ucParam = getNextSubString( ucBuffer, WHITESPACE | PUNCT );
   2:	f04f 0103 	mov.w	r1, #3
   6:	f7ff fffe 	bl	0 <getNextSubString>
   a:	4604      	mov	r4, r0
C:\Users\MightyDubster\Documents\Projects\pygmyos\profiles\nebula\shields/gsmModem.c:253
    modem_close( "now" );
   c:	f240 0000 	movw	r0, #0
  10:	f2c0 0000 	movt	r0, #0
  14:	f7ff fffe 	bl	0 <modem_echo>
C:\Users\MightyDubster\Documents\Projects\pygmyos\profiles\nebula\shields/gsmModem.c:254
    if( isStringSame( ucParam, "on" ) ){
  18:	4620      	mov	r0, r4
  1a:	f240 0100 	movw	r1, #0
  1e:	f2c0 0100 	movt	r1, #0
  22:	f7ff fffe 	bl	0 <isStringSame>
  26:	b150      	cbz	r0, 3e <modem_echo+0x3e>
C:\Users\MightyDubster\Documents\Projects\pygmyos\profiles\nebula\shields/gsmModem.c:255
        println( MODEM_COM, "ATE1&W" );
  28:	f04f 0001 	mov.w	r0, #1
  2c:	f240 0100 	movw	r1, #0
  30:	f2c0 0100 	movt	r1, #0
  34:	f7ff fffe 	bl	0 <println>
C:\Users\MightyDubster\Documents\Projects\pygmyos\profiles\nebula\shields/gsmModem.c:256
        return( TRUE );
  38:	f04f 0001 	mov.w	r0, #1
  3c:	bd10      	pop	{r4, pc}
C:\Users\MightyDubster\Documents\Projects\pygmyos\profiles\nebula\shields/gsmModem.c:257
    } else if( isStringSame( ucParam, "off" ) ){
  3e:	4620      	mov	r0, r4
  40:	f240 0100 	movw	r1, #0
  44:	f2c0 0100 	movt	r1, #0
  48:	f7ff fffe 	bl	0 <isStringSame>
  4c:	b150      	cbz	r0, 64 <modem_echo+0x64>
C:\Users\MightyDubster\Documents\Projects\pygmyos\profiles\nebula\shields/gsmModem.c:258
        println( MODEM_COM, "ATE0&W" );
  4e:	f04f 0001 	mov.w	r0, #1
  52:	f240 0100 	movw	r1, #0
  56:	f2c0 0100 	movt	r1, #0
  5a:	f7ff fffe 	bl	0 <println>
C:\Users\MightyDubster\Documents\Projects\pygmyos\profiles\nebula\shields/gsmModem.c:259
        return( TRUE );
  5e:	f04f 0001 	mov.w	r0, #1
  62:	bd10      	pop	{r4, pc}
C:\Users\MightyDubster\Documents\Projects\pygmyos\profiles\nebula\shields/gsmModem.c:262
    } // else if

    return( FALSE );
  64:	f04f 0000 	mov.w	r0, #0
C:\Users\MightyDubster\Documents\Projects\pygmyos\profiles\nebula\shields/gsmModem.c:263
}
  68:	bd10      	pop	{r4, pc}
  6a:	bf00      	nop

Disassembly of section .text.modem_attachtest:

00000000 <modem_attachtest>:
modem_attachtest():
C:\Users\MightyDubster\Documents\Projects\pygmyos\profiles\nebula\shields/gsmModem.c:700

    return( FALSE );
}

u8 modem_attachtest( u8 *ucBuffer )
{
   0:	b510      	push	{r4, lr}
   2:	b08a      	sub	sp, #40	; 0x28
C:\Users\MightyDubster\Documents\Projects\pygmyos\profiles\nebula\shields/gsmModem.c:704
    PYGMYCOMMAND pygmyCmd;
    u8 *ucParams[ 3 ], ucLen; // *ucSubString1, *ucSubString2, *ucSubString;
    
    ucLen = getAllSubStrings( ucBuffer, ucParams, 3, WHITESPACE|PUNCT|NEWLINE );
   4:	a901      	add	r1, sp, #4
   6:	f04f 0203 	mov.w	r2, #3
   a:	f04f 0307 	mov.w	r3, #7
   e:	f7ff fffe 	bl	0 <getAllSubStrings>
C:\Users\MightyDubster\Documents\Projects\pygmyos\profiles\nebula\shields/gsmModem.c:706
    
    if( ucLen >= 3 ){
  12:	b2c0      	uxtb	r0, r0
  14:	2802      	cmp	r0, #2
C:\Users\MightyDubster\Documents\Projects\pygmyos\profiles\nebula\shields/gsmModem.c:724
                return( 1 ); 
            } // if
        } // else
    } // if

    return( FALSE );
  16:	bf98      	it	ls
  18:	2000      	movls	r0, #0
C:\Users\MightyDubster\Documents\Projects\pygmyos\profiles\nebula\shields/gsmModem.c:706
    PYGMYCOMMAND pygmyCmd;
    u8 *ucParams[ 3 ], ucLen; // *ucSubString1, *ucSubString2, *ucSubString;
    
    ucLen = getAllSubStrings( ucBuffer, ucParams, 3, WHITESPACE|PUNCT|NEWLINE );
    
    if( ucLen >= 3 ){
  1a:	d93a      	bls.n	92 <modem_attachtest+0x92>
C:\Users\MightyDubster\Documents\Projects\pygmyos\profiles\nebula\shields/gsmModem.c:707
        if( isStringSame( ucParams[ 0 ], (u8*)AT_SGACT ) && 
  1c:	9801      	ldr	r0, [sp, #4]
  1e:	491e      	ldr	r1, [pc, #120]	; (98 <modem_attachtest+0x98>)
  20:	f7ff fffe 	bl	0 <isStringSame>
  24:	2800      	cmp	r0, #0
  26:	d032      	beq.n	8e <modem_attachtest+0x8e>
C:\Users\MightyDubster\Documents\Projects\pygmyos\profiles\nebula\shields/gsmModem.c:708
            convertStringToInt( ucParams[ 1 ] ) == 1 ){
  28:	9802      	ldr	r0, [sp, #8]
  2a:	f7ff fffe 	bl	0 <convertStringToInt>
C:\Users\MightyDubster\Documents\Projects\pygmyos\profiles\nebula\shields/gsmModem.c:707
    u8 *ucParams[ 3 ], ucLen; // *ucSubString1, *ucSubString2, *ucSubString;
    
    ucLen = getAllSubStrings( ucBuffer, ucParams, 3, WHITESPACE|PUNCT|NEWLINE );
    
    if( ucLen >= 3 ){
        if( isStringSame( ucParams[ 0 ], (u8*)AT_SGACT ) && 
  2e:	2801      	cmp	r0, #1
C:\Users\MightyDubster\Documents\Projects\pygmyos\profiles\nebula\shields/gsmModem.c:724
                return( 1 ); 
            } // if
        } // else
    } // if

    return( FALSE );
  30:	bf18      	it	ne
  32:	2000      	movne	r0, #0
C:\Users\MightyDubster\Documents\Projects\pygmyos\profiles\nebula\shields/gsmModem.c:707
    u8 *ucParams[ 3 ], ucLen; // *ucSubString1, *ucSubString2, *ucSubString;
    
    ucLen = getAllSubStrings( ucBuffer, ucParams, 3, WHITESPACE|PUNCT|NEWLINE );
    
    if( ucLen >= 3 ){
        if( isStringSame( ucParams[ 0 ], (u8*)AT_SGACT ) && 
  34:	d12d      	bne.n	92 <modem_attachtest+0x92>
C:\Users\MightyDubster\Documents\Projects\pygmyos\profiles\nebula\shields/gsmModem.c:709
            convertStringToInt( ucParams[ 1 ] ) == 1 ){
            if( convertStringToInt( ucParams[ 2 ] ) == 1 ){
  36:	9803      	ldr	r0, [sp, #12]
  38:	f7ff fffe 	bl	0 <convertStringToInt>
  3c:	2801      	cmp	r0, #1
  3e:	d10a      	bne.n	56 <modem_attachtest+0x56>
C:\Users\MightyDubster\Documents\Projects\pygmyos\profiles\nebula\shields/gsmModem.c:710
                print( MODEM_DEBUG, "\rAttached" );
  40:	f04f 0002 	mov.w	r0, #2
  44:	f240 0100 	movw	r1, #0
  48:	f2c0 0100 	movt	r1, #0
  4c:	f7ff fffe 	bl	0 <print>
C:\Users\MightyDubster\Documents\Projects\pygmyos\profiles\nebula\shields/gsmModem.c:711
                return( TRUE ); 
  50:	f04f 0001 	mov.w	r0, #1
  54:	e01d      	b.n	92 <modem_attachtest+0x92>
C:\Users\MightyDubster\Documents\Projects\pygmyos\profiles\nebula\shields/gsmModem.c:713
            }else{
                pygmyCmd.Name = (u8*)AT_SGACT;
  56:	4b10      	ldr	r3, [pc, #64]	; (98 <modem_attachtest+0x98>)
  58:	9305      	str	r3, [sp, #20]
C:\Users\MightyDubster\Documents\Projects\pygmyos\profiles\nebula\shields/gsmModem.c:714
                pygmyCmd.PrintHandler = print_SGACT1;
  5a:	f240 0300 	movw	r3, #0
  5e:	f2c0 0300 	movt	r3, #0
  62:	9306      	str	r3, [sp, #24]
C:\Users\MightyDubster\Documents\Projects\pygmyos\profiles\nebula\shields/gsmModem.c:715
                pygmyCmd.EventHandler = handler_ATSGACT;
  64:	f240 0300 	movw	r3, #0
  68:	f2c0 0300 	movt	r3, #0
  6c:	9307      	str	r3, [sp, #28]
C:\Users\MightyDubster\Documents\Projects\pygmyos\profiles\nebula\shields/gsmModem.c:716
                pygmyCmd.Expire = 5;
  6e:	f04f 0305 	mov.w	r3, #5
  72:	9309      	str	r3, [sp, #36]	; 0x24
C:\Users\MightyDubster\Documents\Projects\pygmyos\profiles\nebula\shields/gsmModem.c:717
                pygmyCmd.Retry = 1;
  74:	f04f 0401 	mov.w	r4, #1
  78:	f88d 4011 	strb.w	r4, [sp, #17]
C:\Users\MightyDubster\Documents\Projects\pygmyos\profiles\nebula\shields/gsmModem.c:718
                cmdReplace( &globalModemQueue, &pygmyCmd );
  7c:	f240 0000 	movw	r0, #0
  80:	f2c0 0000 	movt	r0, #0
  84:	a904      	add	r1, sp, #16
  86:	f7ff fffe 	bl	0 <cmdReplace>
C:\Users\MightyDubster\Documents\Projects\pygmyos\profiles\nebula\shields/gsmModem.c:719
                return( 1 ); 
  8a:	4620      	mov	r0, r4
  8c:	e001      	b.n	92 <modem_attachtest+0x92>
C:\Users\MightyDubster\Documents\Projects\pygmyos\profiles\nebula\shields/gsmModem.c:724
            } // if
        } // else
    } // if

    return( FALSE );
  8e:	f04f 0000 	mov.w	r0, #0
C:\Users\MightyDubster\Documents\Projects\pygmyos\profiles\nebula\shields/gsmModem.c:725
}
  92:	b00a      	add	sp, #40	; 0x28
  94:	bd10      	pop	{r4, pc}
  96:	bf00      	nop
  98:	000000e8 	.word	0x000000e8

Disassembly of section .text.modem_sms:

00000000 <modem_sms>:
modem_sms():
C:\Users\MightyDubster\Documents\Projects\pygmyos\profiles\nebula\shields/gsmModem.c:471

    return( FALSE );
}

u8 modem_sms( u8 *ucBuffer )
{
   0:	b530      	push	{r4, r5, lr}
   2:	b08d      	sub	sp, #52	; 0x34
C:\Users\MightyDubster\Documents\Projects\pygmyos\profiles\nebula\shields/gsmModem.c:477
    PYGMYCOMMAND pygmyCmd1, pygmyCmd2, pygmyCmdCMGF;
    
    
    //streamSetActionChars( MODEM_COM, "\r>" );
    //cmdInitQueue( &globalModemQueue );
    copyString( getNextSubString( ucBuffer, WHITESPACE ), globalModemSMS.PhoneNumber ); 
   4:	f04f 0102 	mov.w	r1, #2
   8:	f7ff fffe 	bl	0 <getNextSubString>
   c:	f240 0400 	movw	r4, #0
  10:	f2c0 0400 	movt	r4, #0
  14:	4621      	mov	r1, r4
  16:	f7ff fffe 	bl	0 <copyString>
C:\Users\MightyDubster\Documents\Projects\pygmyos\profiles\nebula\shields/gsmModem.c:478
    copyString( getNextSubString( NULL, NEWLINE ), globalModemSMS.Message );
  1a:	f04f 0000 	mov.w	r0, #0
  1e:	f04f 0104 	mov.w	r1, #4
  22:	f7ff fffe 	bl	0 <getNextSubString>
  26:	f104 0110 	add.w	r1, r4, #16
  2a:	f7ff fffe 	bl	0 <copyString>
C:\Users\MightyDubster\Documents\Projects\pygmyos\profiles\nebula\shields/gsmModem.c:487
    //pygmyCmdCMGF.PrintHandler = print_CMGF;
    //pygmyCmdCMGF.EventHandler = handler_ATCMGF;
    //pygmyCmdCMGF.Expire = 2;
    //pygmyCmdCMGF.Retry = 1;
    
    pygmyCmd1.Name = ">";   
  2e:	f240 0300 	movw	r3, #0
  32:	f2c0 0300 	movt	r3, #0
  36:	9307      	str	r3, [sp, #28]
C:\Users\MightyDubster\Documents\Projects\pygmyos\profiles\nebula\shields/gsmModem.c:488
    pygmyCmd1.Expire = 2;
  38:	f04f 0202 	mov.w	r2, #2
  3c:	920b      	str	r2, [sp, #44]	; 0x2c
C:\Users\MightyDubster\Documents\Projects\pygmyos\profiles\nebula\shields/gsmModem.c:489
    pygmyCmd1.Retry = 0;
  3e:	f04f 0300 	mov.w	r3, #0
  42:	f88d 3019 	strb.w	r3, [sp, #25]
C:\Users\MightyDubster\Documents\Projects\pygmyos\profiles\nebula\shields/gsmModem.c:490
    pygmyCmd1.EventHandler = handler_ATSMSPROMPT;
  46:	f240 0300 	movw	r3, #0
  4a:	f2c0 0300 	movt	r3, #0
  4e:	9309      	str	r3, [sp, #36]	; 0x24
C:\Users\MightyDubster\Documents\Projects\pygmyos\profiles\nebula\shields/gsmModem.c:491
    pygmyCmd1.PrintHandler = print_CMGS;
  50:	f240 0300 	movw	r3, #0
  54:	f2c0 0300 	movt	r3, #0
  58:	9308      	str	r3, [sp, #32]
C:\Users\MightyDubster\Documents\Projects\pygmyos\profiles\nebula\shields/gsmModem.c:493

    pygmyCmd2.Name = (u8*)AT_CMGS;
  5a:	4b10      	ldr	r3, [pc, #64]	; (9c <modem_sms+0x9c>)
  5c:	9301      	str	r3, [sp, #4]
C:\Users\MightyDubster\Documents\Projects\pygmyos\profiles\nebula\shields/gsmModem.c:494
    pygmyCmd2.Expire = 2;
  5e:	9205      	str	r2, [sp, #20]
C:\Users\MightyDubster\Documents\Projects\pygmyos\profiles\nebula\shields/gsmModem.c:495
    pygmyCmd2.Retry = 1;
  60:	f04f 0501 	mov.w	r5, #1
  64:	f88d 5001 	strb.w	r5, [sp, #1]
C:\Users\MightyDubster\Documents\Projects\pygmyos\profiles\nebula\shields/gsmModem.c:496
    pygmyCmd2.EventHandler = handler_ATCMGS;
  68:	f240 0300 	movw	r3, #0
  6c:	f2c0 0300 	movt	r3, #0
  70:	9303      	str	r3, [sp, #12]
C:\Users\MightyDubster\Documents\Projects\pygmyos\profiles\nebula\shields/gsmModem.c:497
    pygmyCmd2.PrintHandler = print_CMGSMessage;
  72:	f240 0300 	movw	r3, #0
  76:	f2c0 0300 	movt	r3, #0
  7a:	9302      	str	r3, [sp, #8]
C:\Users\MightyDubster\Documents\Projects\pygmyos\profiles\nebula\shields/gsmModem.c:500
    
    //cmdQueue( &globalModemQueue, &pygmyCmdCMGF );
    cmdQueue( &globalModemQueue, &pygmyCmd1 );
  7c:	f240 0400 	movw	r4, #0
  80:	f2c0 0400 	movt	r4, #0
  84:	4620      	mov	r0, r4
  86:	a906      	add	r1, sp, #24
  88:	f7ff fffe 	bl	0 <cmdQueue>
C:\Users\MightyDubster\Documents\Projects\pygmyos\profiles\nebula\shields/gsmModem.c:501
    cmdQueue( &globalModemQueue, &pygmyCmd2 );
  8c:	4620      	mov	r0, r4
  8e:	4669      	mov	r1, sp
  90:	f7ff fffe 	bl	0 <cmdQueue>
C:\Users\MightyDubster\Documents\Projects\pygmyos\profiles\nebula\shields/gsmModem.c:504

    return( TRUE );
}
  94:	4628      	mov	r0, r5
  96:	b00d      	add	sp, #52	; 0x34
  98:	bd30      	pop	{r4, r5, pc}
  9a:	bf00      	nop
  9c:	00000108 	.word	0x00000108

Disassembly of section .text.print_pftp_put:

00000000 <print_pftp_put>:
print_pftp_put():
C:\Users\MightyDubster\Documents\Projects\pygmyos\profiles\nebula\shields/gsmModem.c:533
    pygmyCmd.Retry = 3;
    cmdQueue( &globalModemQueue, &pygmyCmd );
}

void print_pftp_put( void )
{
   0:	e92d 41f0 	stmdb	sp!, {r4, r5, r6, r7, r8, lr}
   4:	b084      	sub	sp, #16
C:\Users\MightyDubster\Documents\Projects\pygmyos\profiles\nebula\shields/gsmModem.c:539
    u32 ulSum;
    u16 i;
    u8 ucByte;

    // This function establishes connection
    globalModemStatus |= (MODEM_PFTPINPROGRESS|MODEM_BUSY); // Setting this earlier causes a UART conflict
   6:	f240 0300 	movw	r3, #0
   a:	f2c0 0300 	movt	r3, #0
   e:	681a      	ldr	r2, [r3, #0]
  10:	f042 0209 	orr.w	r2, r2, #9
  14:	601a      	str	r2, [r3, #0]
C:\Users\MightyDubster\Documents\Projects\pygmyos\profiles\nebula\shields/gsmModem.c:540
    print( MODEM_COM, "GET /cgi/pftp.py?put=" );
  16:	f04f 0001 	mov.w	r0, #1
  1a:	f240 0100 	movw	r1, #0
  1e:	f2c0 0100 	movt	r1, #0
  22:	f7ff fffe 	bl	0 <print>
C:\Users\MightyDubster\Documents\Projects\pygmyos\profiles\nebula\shields/gsmModem.c:541
    print( MODEM_COM, globalModemPFTP.File.Name );
  26:	4c49      	ldr	r4, [pc, #292]	; (14c <print_pftp_put+0x14c>)
  28:	f04f 0001 	mov.w	r0, #1
  2c:	4621      	mov	r1, r4
  2e:	f7ff fffe 	bl	0 <print>
C:\Users\MightyDubster\Documents\Projects\pygmyos\profiles\nebula\shields/gsmModem.c:542
    if( globalModemPFTP.ChunkSize != 256 ) { // 256 is PFTP server default
  32:	f834 2c20 	ldrh.w	r2, [r4, #-32]
  36:	f5b2 7f80 	cmp.w	r2, #256	; 0x100
  3a:	d007      	beq.n	4c <print_pftp_put+0x4c>
C:\Users\MightyDubster\Documents\Projects\pygmyos\profiles\nebula\shields/gsmModem.c:543
        print( MODEM_COM, "&sz=%d", globalModemPFTP.ChunkSize );
  3c:	f04f 0001 	mov.w	r0, #1
  40:	f240 0100 	movw	r1, #0
  44:	f2c0 0100 	movt	r1, #0
  48:	f7ff fffe 	bl	0 <print>
C:\Users\MightyDubster\Documents\Projects\pygmyos\profiles\nebula\shields/gsmModem.c:546
    } // if
    // Character '+' is substitute for SPACE in URI
    print( MODEM_COM, "&dat=PFTP+%d+", globalModemPFTP.CurrentChunk );
  4c:	f240 0400 	movw	r4, #0
  50:	f2c0 0400 	movt	r4, #0
  54:	f04f 0001 	mov.w	r0, #1
  58:	f240 0100 	movw	r1, #0
  5c:	f2c0 0100 	movt	r1, #0
  60:	8862      	ldrh	r2, [r4, #2]
  62:	f7ff fffe 	bl	0 <print>
C:\Users\MightyDubster\Documents\Projects\pygmyos\profiles\nebula\shields/gsmModem.c:549
    
    fileSetPosition( &globalModemPFTP.File, START, 
        ( globalModemPFTP.CurrentChunk - 1 ) * globalModemPFTP.ChunkSize );
  66:	8863      	ldrh	r3, [r4, #2]
  68:	f103 33ff 	add.w	r3, r3, #4294967295
C:\Users\MightyDubster\Documents\Projects\pygmyos\profiles\nebula\shields/gsmModem.c:548
        print( MODEM_COM, "&sz=%d", globalModemPFTP.ChunkSize );
    } // if
    // Character '+' is substitute for SPACE in URI
    print( MODEM_COM, "&dat=PFTP+%d+", globalModemPFTP.CurrentChunk );
    
    fileSetPosition( &globalModemPFTP.File, START, 
  6c:	8822      	ldrh	r2, [r4, #0]
  6e:	f104 0008 	add.w	r0, r4, #8
  72:	f04f 0101 	mov.w	r1, #1
  76:	fb02 f203 	mul.w	r2, r2, r3
  7a:	f7ff fffe 	bl	0 <fileSetPosition>
C:\Users\MightyDubster\Documents\Projects\pygmyos\profiles\nebula\shields/gsmModem.c:551
        ( globalModemPFTP.CurrentChunk - 1 ) * globalModemPFTP.ChunkSize );
    
    ulSum = 0;
  7e:	f04f 0000 	mov.w	r0, #0
  82:	aa04      	add	r2, sp, #16
  84:	f842 0d04 	str.w	r0, [r2, #-4]!
C:\Users\MightyDubster\Documents\Projects\pygmyos\profiles\nebula\shields/gsmModem.c:552
    pdiaEncode( 0, PDIA_NEW, &ulSum );
  88:	f04f 0101 	mov.w	r1, #1
  8c:	f7ff fffe 	bl	0 <pdiaEncode>
C:\Users\MightyDubster\Documents\Projects\pygmyos\profiles\nebula\shields/gsmModem.c:553
    for( i = 0; i < globalModemPFTP.ChunkSize; i++ ){
  90:	8823      	ldrh	r3, [r4, #0]
  92:	b363      	cbz	r3, ee <print_pftp_put+0xee>
C:\Users\MightyDubster\Documents\Projects\pygmyos\profiles\nebula\shields/gsmModem.c:554
        if( globalModemPFTP.File.Attributes & EOF ){
  94:	f994 3018 	ldrsb.w	r3, [r4, #24]
  98:	2b00      	cmp	r3, #0
C:\Users\MightyDubster\Documents\Projects\pygmyos\profiles\nebula\shields/gsmModem.c:553
    fileSetPosition( &globalModemPFTP.File, START, 
        ( globalModemPFTP.CurrentChunk - 1 ) * globalModemPFTP.ChunkSize );
    
    ulSum = 0;
    pdiaEncode( 0, PDIA_NEW, &ulSum );
    for( i = 0; i < globalModemPFTP.ChunkSize; i++ ){
  9a:	bfb8      	it	lt
  9c:	2400      	movlt	r4, #0
C:\Users\MightyDubster\Documents\Projects\pygmyos\profiles\nebula\shields/gsmModem.c:554
        if( globalModemPFTP.File.Attributes & EOF ){
  9e:	db28      	blt.n	f2 <print_pftp_put+0xf2>
C:\Users\MightyDubster\Documents\Projects\pygmyos\profiles\nebula\shields/gsmModem.c:553
    fileSetPosition( &globalModemPFTP.File, START, 
        ( globalModemPFTP.CurrentChunk - 1 ) * globalModemPFTP.ChunkSize );
    
    ulSum = 0;
    pdiaEncode( 0, PDIA_NEW, &ulSum );
    for( i = 0; i < globalModemPFTP.ChunkSize; i++ ){
  a0:	f04f 0400 	mov.w	r4, #0
C:\Users\MightyDubster\Documents\Projects\pygmyos\profiles\nebula\shields/gsmModem.c:557
        if( globalModemPFTP.File.Attributes & EOF ){
            break;
        } // if
        ucByte = fileGetChar( &globalModemPFTP.File ); // feed each byte sent to PDIA Encoder 
  a4:	4d2a      	ldr	r5, [pc, #168]	; (2a0 <.LC60+0xc>)
C:\Users\MightyDubster\Documents\Projects\pygmyos\profiles\nebula\shields/gsmModem.c:559
        pdiaEncode( ucByte, PDIA_ADD, &ulSum );
        print( MODEM_COM, "%2X", ucByte ); // send in bar uppercase hex with no prefix
  a6:	f240 0700 	movw	r7, #0
  aa:	f2c0 0700 	movt	r7, #0
C:\Users\MightyDubster\Documents\Projects\pygmyos\profiles\nebula\shields/gsmModem.c:554
        ( globalModemPFTP.CurrentChunk - 1 ) * globalModemPFTP.ChunkSize );
    
    ulSum = 0;
    pdiaEncode( 0, PDIA_NEW, &ulSum );
    for( i = 0; i < globalModemPFTP.ChunkSize; i++ ){
        if( globalModemPFTP.File.Attributes & EOF ){
  ae:	f240 0800 	movw	r8, #0
  b2:	f2c0 0800 	movt	r8, #0
  b6:	e003      	b.n	c0 <print_pftp_put+0xc0>
  b8:	f998 3018 	ldrsb.w	r3, [r8, #24]
  bc:	2b00      	cmp	r3, #0
  be:	db18      	blt.n	f2 <print_pftp_put+0xf2>
C:\Users\MightyDubster\Documents\Projects\pygmyos\profiles\nebula\shields/gsmModem.c:557
            break;
        } // if
        ucByte = fileGetChar( &globalModemPFTP.File ); // feed each byte sent to PDIA Encoder 
  c0:	4628      	mov	r0, r5
  c2:	f7ff fffe 	bl	0 <fileGetChar>
  c6:	4606      	mov	r6, r0
C:\Users\MightyDubster\Documents\Projects\pygmyos\profiles\nebula\shields/gsmModem.c:558
        pdiaEncode( ucByte, PDIA_ADD, &ulSum );
  c8:	f04f 0102 	mov.w	r1, #2
  cc:	aa03      	add	r2, sp, #12
  ce:	f7ff fffe 	bl	0 <pdiaEncode>
C:\Users\MightyDubster\Documents\Projects\pygmyos\profiles\nebula\shields/gsmModem.c:559
        print( MODEM_COM, "%2X", ucByte ); // send in bar uppercase hex with no prefix
  d2:	f04f 0001 	mov.w	r0, #1
  d6:	4639      	mov	r1, r7
  d8:	4632      	mov	r2, r6
  da:	f7ff fffe 	bl	0 <print>
C:\Users\MightyDubster\Documents\Projects\pygmyos\profiles\nebula\shields/gsmModem.c:553
    fileSetPosition( &globalModemPFTP.File, START, 
        ( globalModemPFTP.CurrentChunk - 1 ) * globalModemPFTP.ChunkSize );
    
    ulSum = 0;
    pdiaEncode( 0, PDIA_NEW, &ulSum );
    for( i = 0; i < globalModemPFTP.ChunkSize; i++ ){
  de:	f104 0401 	add.w	r4, r4, #1
  e2:	b2a4      	uxth	r4, r4
  e4:	f835 3c08 	ldrh.w	r3, [r5, #-8]
  e8:	42a3      	cmp	r3, r4
  ea:	d8e5      	bhi.n	b8 <print_pftp_put+0xb8>
  ec:	e001      	b.n	f2 <print_pftp_put+0xf2>
  ee:	f04f 0400 	mov.w	r4, #0
C:\Users\MightyDubster\Documents\Projects\pygmyos\profiles\nebula\shields/gsmModem.c:562
        ucByte = fileGetChar( &globalModemPFTP.File ); // feed each byte sent to PDIA Encoder 
        pdiaEncode( ucByte, PDIA_ADD, &ulSum );
        print( MODEM_COM, "%2X", ucByte ); // send in bar uppercase hex with no prefix
    } // for
    // PDIA will not increment the frame if only 256 bytes are sent
    pdiaEncode( 0, PDIA_END, &ulSum ); // Close out PDIA
  f2:	f04f 0000 	mov.w	r0, #0
  f6:	f04f 0104 	mov.w	r1, #4
  fa:	aa03      	add	r2, sp, #12
  fc:	f7ff fffe 	bl	0 <pdiaEncode>
C:\Users\MightyDubster\Documents\Projects\pygmyos\profiles\nebula\shields/gsmModem.c:563
    print( MODEM_COM, "+%d+%08X", i, ulSum );
 100:	f04f 0001 	mov.w	r0, #1
 104:	f240 0100 	movw	r1, #0
 108:	f2c0 0100 	movt	r1, #0
 10c:	4622      	mov	r2, r4
 10e:	9b03      	ldr	r3, [sp, #12]
 110:	f7ff fffe 	bl	0 <print>
C:\Users\MightyDubster\Documents\Projects\pygmyos\profiles\nebula\shields/gsmModem.c:564
    print( MODEM_COM, " HTTP/1.1%s", (u8*)AT_CRLF );
 114:	4c0f      	ldr	r4, [pc, #60]	; (154 <print_pftp_put+0x154>)
 116:	f04f 0001 	mov.w	r0, #1
 11a:	f240 0100 	movw	r1, #0
 11e:	f2c0 0100 	movt	r1, #0
 122:	4622      	mov	r2, r4
 124:	f7ff fffe 	bl	0 <print>
C:\Users\MightyDubster\Documents\Projects\pygmyos\profiles\nebula\shields/gsmModem.c:565
    print( MODEM_COM, "Host: %s%s%s", globalModemPFTP.HostName, (u8*)AT_CRLF, (u8*)AT_CRLF );
 128:	f240 0300 	movw	r3, #0
 12c:	f2c0 0300 	movt	r3, #0
 130:	685a      	ldr	r2, [r3, #4]
 132:	9400      	str	r4, [sp, #0]
 134:	f04f 0001 	mov.w	r0, #1
 138:	f240 0100 	movw	r1, #0
 13c:	f2c0 0100 	movt	r1, #0
 140:	4623      	mov	r3, r4
 142:	f7ff fffe 	bl	0 <print>
C:\Users\MightyDubster\Documents\Projects\pygmyos\profiles\nebula\shields/gsmModem.c:566
}
 146:	b004      	add	sp, #16
 148:	e8bd 81f0 	ldmia.w	sp!, {r4, r5, r6, r7, r8, pc}
 14c:	00000020 	.word	0x00000020
 150:	00000008 	.word	0x00000008
 154:	00000004 	.word	0x00000004

Disassembly of section .text.modem_onoff:

00000000 <modem_onoff>:
modem_onoff():
C:\Users\MightyDubster\Documents\Projects\pygmyos\profiles\nebula\shields/gsmModem.c:294

    return( TRUE );
}

u8 modem_onoff( u8 *ucBuffer )
{
   0:	b508      	push	{r3, lr}
C:\Users\MightyDubster\Documents\Projects\pygmyos\profiles\nebula\shields/gsmModem.c:295
    pinSet( MODEM_ONOFF, HIGH );  // Switches ONOFF to GND, must be kept low for min 1 sec 
   2:	f04f 0015 	mov.w	r0, #21
   6:	f04f 0101 	mov.w	r1, #1
   a:	f7ff fffe 	bl	0 <pinSet>
C:\Users\MightyDubster\Documents\Projects\pygmyos\profiles\nebula\shields/gsmModem.c:296
    taskNewSimple( "modemonoff", 1200, modemtask_onoff );
   e:	f240 0000 	movw	r0, #0
  12:	f2c0 0000 	movt	r0, #0
  16:	f44f 6196 	mov.w	r1, #1200	; 0x4b0
  1a:	f240 0200 	movw	r2, #0
  1e:	f2c0 0200 	movt	r2, #0
  22:	f7ff fffe 	bl	0 <taskNewSimple>
C:\Users\MightyDubster\Documents\Projects\pygmyos\profiles\nebula\shields/gsmModem.c:299

    return( TRUE );
}
  26:	f04f 0001 	mov.w	r0, #1
  2a:	bd08      	pop	{r3, pc}

Disassembly of section .text.modem_reset:

00000000 <modem_reset>:
modem_reset():
C:\Users\MightyDubster\Documents\Projects\pygmyos\profiles\nebula\shields/gsmModem.c:286

    return( TRUE );
}

u8 modem_reset( u8 *ucBuffer )
{
   0:	b508      	push	{r3, lr}
C:\Users\MightyDubster\Documents\Projects\pygmyos\profiles\nebula\shields/gsmModem.c:287
    pinSet( MODEM_RESET, HIGH );
   2:	f04f 0026 	mov.w	r0, #38	; 0x26
   6:	f04f 0101 	mov.w	r1, #1
   a:	f7ff fffe 	bl	0 <pinSet>
C:\Users\MightyDubster\Documents\Projects\pygmyos\profiles\nebula\shields/gsmModem.c:288
    taskNewSimple( "modemreset", 3000, modemtask_reset );
   e:	f240 0000 	movw	r0, #0
  12:	f2c0 0000 	movt	r0, #0
  16:	f640 31b8 	movw	r1, #3000	; 0xbb8
  1a:	f240 0200 	movw	r2, #0
  1e:	f2c0 0200 	movt	r2, #0
  22:	f7ff fffe 	bl	0 <taskNewSimple>
C:\Users\MightyDubster\Documents\Projects\pygmyos\profiles\nebula\shields/gsmModem.c:291

    return( TRUE );
}
  26:	f04f 0001 	mov.w	r0, #1
  2a:	bd08      	pop	{r3, pc}

Disassembly of section .text.modemtask_onoff:

00000000 <modemtask_onoff>:
modemtask_onoff():
C:\Users\MightyDubster\Documents\Projects\pygmyos\profiles\nebula\shields/gsmModem.c:209
    
    return( TRUE );
}

u8 modemtask_onoff( void )
{
   0:	b508      	push	{r3, lr}
C:\Users\MightyDubster\Documents\Projects\pygmyos\profiles\nebula\shields/gsmModem.c:210
    pinSet( MODEM_ONOFF, LOW );
   2:	f04f 0015 	mov.w	r0, #21
   6:	f04f 0100 	mov.w	r1, #0
   a:	f7ff fffe 	bl	0 <pinSet>
C:\Users\MightyDubster\Documents\Projects\pygmyos\profiles\nebula\shields/gsmModem.c:211
    taskDelete( "modemonoff" );
   e:	f240 0000 	movw	r0, #0
  12:	f2c0 0000 	movt	r0, #0
  16:	f7ff fffe 	bl	0 <taskDelete>
C:\Users\MightyDubster\Documents\Projects\pygmyos\profiles\nebula\shields/gsmModem.c:214

    return( TRUE );
}
  1a:	f04f 0001 	mov.w	r0, #1
  1e:	bd08      	pop	{r3, pc}

Disassembly of section .text.modemtask_reset:

00000000 <modemtask_reset>:
modemtask_reset():
C:\Users\MightyDubster\Documents\Projects\pygmyos\profiles\nebula\shields/gsmModem.c:201
    cmdInitQueue( &globalModemQueue );
    taskNew( "modemcmd", 500, 500, 0, (void*)DriverThread_ProcessCommands );
}

u8 modemtask_reset( void )
{
   0:	b508      	push	{r3, lr}
C:\Users\MightyDubster\Documents\Projects\pygmyos\profiles\nebula\shields/gsmModem.c:202
    pinSet( MODEM_RESET, LOW );
   2:	f04f 0026 	mov.w	r0, #38	; 0x26
   6:	f04f 0100 	mov.w	r1, #0
   a:	f7ff fffe 	bl	0 <pinSet>
C:\Users\MightyDubster\Documents\Projects\pygmyos\profiles\nebula\shields/gsmModem.c:203
    taskDelete( "modemreset"  );
   e:	f240 0000 	movw	r0, #0
  12:	f2c0 0000 	movt	r0, #0
  16:	f7ff fffe 	bl	0 <taskDelete>
C:\Users\MightyDubster\Documents\Projects\pygmyos\profiles\nebula\shields/gsmModem.c:206
    
    return( TRUE );
}
  1a:	f04f 0001 	mov.w	r0, #1
  1e:	bd08      	pop	{r3, pc}

Disassembly of section .text.DriverThread_ProcessCommands:

00000000 <DriverThread_ProcessCommands>:
DriverThread_ProcessCommands():
C:\Users\MightyDubster\Documents\Projects\pygmyos\profiles\nebula\shields/gsmModem.c:161
        pinSet( T1, HIGH );
    } // else
}

void DriverThread_ProcessCommands( void )
{
   0:	b508      	push	{r3, lr}
C:\Users\MightyDubster\Documents\Projects\pygmyos\profiles\nebula\shields/gsmModem.c:162
    cmdProcess( &globalModemQueue );
   2:	f240 0000 	movw	r0, #0
   6:	f2c0 0000 	movt	r0, #0
   a:	f7ff fffe 	bl	0 <cmdProcess>
C:\Users\MightyDubster\Documents\Projects\pygmyos\profiles\nebula\shields/gsmModem.c:163
}
   e:	bd08      	pop	{r3, pc}

Disassembly of section .text.blink:

00000000 <blink>:
blink():
C:\Users\MightyDubster\Documents\Projects\pygmyos\profiles\nebula\shields/gsmModem.c:152
    } // else
    //print( MODEM_DEBUG, "\rProc Done." );
}
                                
void blink( void )
{
   0:	b508      	push	{r3, lr}
C:\Users\MightyDubster\Documents\Projects\pygmyos\profiles\nebula\shields/gsmModem.c:153
    if( pinGet( T1 ) ){
   2:	f04f 0017 	mov.w	r0, #23
   6:	f7ff fffe 	bl	0 <pinGet>
   a:	b130      	cbz	r0, 1a <blink+0x1a>
C:\Users\MightyDubster\Documents\Projects\pygmyos\profiles\nebula\shields/gsmModem.c:154
        pinSet( T1, LOW );
   c:	f04f 0017 	mov.w	r0, #23
  10:	f04f 0100 	mov.w	r1, #0
  14:	f7ff fffe 	bl	0 <pinSet>
  18:	bd08      	pop	{r3, pc}
C:\Users\MightyDubster\Documents\Projects\pygmyos\profiles\nebula\shields/gsmModem.c:156
    } else{
        pinSet( T1, HIGH );
  1a:	f04f 0017 	mov.w	r0, #23
  1e:	f04f 0101 	mov.w	r1, #1
  22:	f7ff fffe 	bl	0 <pinSet>
  26:	bd08      	pop	{r3, pc}

Disassembly of section .text.cmdGetsModem:

00000000 <cmdGetsModem>:
cmdGetsModem():
C:\Users\MightyDubster\Documents\Projects\pygmyos\profiles\nebula\shields/gsmModem.c:129
PYGMYPFTP globalModemPFTP;
PYGMYEMAIL globalModemEmail;
PYGMYCOMMANDQUEUE globalModemQueue;

void cmdGetsModem( void )
{
   0:	b500      	push	{lr}
   2:	b0a1      	sub	sp, #132	; 0x84
C:\Users\MightyDubster\Documents\Projects\pygmyos\profiles\nebula\shields/gsmModem.c:131
    u8 ucBuffer[ __PYGMYCOM2BUFFERLEN ];
    streamFIFOToString( MODEM_COM, ucBuffer );
   4:	f04f 0001 	mov.w	r0, #1
   8:	4669      	mov	r1, sp
   a:	f7ff fffe 	bl	0 <streamFIFOToString>
C:\Users\MightyDubster\Documents\Projects\pygmyos\profiles\nebula\shields/gsmModem.c:134
    //globalStreams[ COM2 ].RXBuffer[ globalStreams[ COM2 ].RXIndex++ ] = ;
    
    if( globalModemQueue.Count ){
   e:	f240 0300 	movw	r3, #0
  12:	f2c0 0300 	movt	r3, #0
  16:	785b      	ldrb	r3, [r3, #1]
  18:	b363      	cbz	r3, 74 <cmdGetsModem+0x74>
C:\Users\MightyDubster\Documents\Projects\pygmyos\profiles\nebula\shields/gsmModem.c:135
        if( globalModemQueue.Commands[ globalModemQueue.Index ].Status ){
  1a:	f240 0300 	movw	r3, #0
  1e:	f2c0 0300 	movt	r3, #0
  22:	781a      	ldrb	r2, [r3, #0]
  24:	eb02 0142 	add.w	r1, r2, r2, lsl #1
  28:	eb03 03c1 	add.w	r3, r3, r1, lsl #3
  2c:	791b      	ldrb	r3, [r3, #4]
  2e:	b30b      	cbz	r3, 74 <cmdGetsModem+0x74>
C:\Users\MightyDubster\Documents\Projects\pygmyos\profiles\nebula\shields/gsmModem.c:137
            //print( MODEM_DEBUG, "\rFIFO(%s)", ucBuffer );   
            if( globalModemQueue.Commands[ globalModemQueue.Index ].EventHandler( ucBuffer ) )
  30:	f240 0300 	movw	r3, #0
  34:	f2c0 0300 	movt	r3, #0
  38:	eb03 03c1 	add.w	r3, r3, r1, lsl #3
  3c:	691b      	ldr	r3, [r3, #16]
  3e:	4668      	mov	r0, sp
  40:	4798      	blx	r3
  42:	b140      	cbz	r0, 56 <cmdGetsModem+0x56>
C:\Users\MightyDubster\Documents\Projects\pygmyos\profiles\nebula\shields/gsmModem.c:138
                cmdDelete( &globalModemQueue, globalModemQueue.Index );
  44:	f240 0300 	movw	r3, #0
  48:	f2c0 0300 	movt	r3, #0
  4c:	4618      	mov	r0, r3
  4e:	7819      	ldrb	r1, [r3, #0]
  50:	f7ff fffe 	bl	0 <cmdDelete>
  54:	e00e      	b.n	204 <.LC44>
C:\Users\MightyDubster\Documents\Projects\pygmyos\profiles\nebula\shields/gsmModem.c:141
            else{
                
                globalModemQueue.Commands[ globalModemQueue.Index ].Status &= ~PYGMY_AT_TX;
  56:	f240 0000 	movw	r0, #0
  5a:	f2c0 0000 	movt	r0, #0
  5e:	7803      	ldrb	r3, [r0, #0]
  60:	eb03 0343 	add.w	r3, r3, r3, lsl #1
  64:	eb00 03c3 	add.w	r3, r0, r3, lsl #3
  68:	791a      	ldrb	r2, [r3, #4]
  6a:	f022 0202 	bic.w	r2, r2, #2
  6e:	711a      	strb	r2, [r3, #4]
C:\Users\MightyDubster\Documents\Projects\pygmyos\profiles\nebula\shields/gsmModem.c:142
                cmdProcess( &globalModemQueue );
  70:	f7ff fffe 	bl	0 <cmdProcess>
C:\Users\MightyDubster\Documents\Projects\pygmyos\profiles\nebula\shields/gsmModem.c:149
        } // if
    } else{
        
    } // else
    //print( MODEM_DEBUG, "\rProc Done." );
}
  74:	b021      	add	sp, #132	; 0x84
  76:	bd00      	pop	{pc}

Disassembly of section .text.modemInit:

00000000 <modemInit>:
modemInit():
C:\Users\MightyDubster\Documents\Projects\pygmyos\profiles\nebula\shields/gsmModem.c:168
}



void modemInit( void )
{
   0:	b500      	push	{lr}
   2:	b083      	sub	sp, #12
C:\Users\MightyDubster\Documents\Projects\pygmyos\profiles\nebula\shields/gsmModem.c:177
   
    //USART2->BRR = 24000000/ 115200; //( ( (ulClock >> 3 ) / BOOT_BAUDRATE ) << 4 ) + ( ( ( ulClock / BOOT_BAUDRATE ) ) & 0x0007 );
    //USART2->CR3  = 0;//|= USART_ONEBITE;
    //USART2->CR1 = ( USART_UE | USART_RXNEIE | USART_TE | USART_RE  );

    comConfig( COM2, 0, RTS|CTS, 19200 );
   4:	f04f 0001 	mov.w	r0, #1
   8:	f04f 0100 	mov.w	r1, #0
   c:	f04f 0203 	mov.w	r2, #3
  10:	f44f 4396 	mov.w	r3, #19200	; 0x4b00
  14:	f7ff fffe 	bl	0 <comConfig>
C:\Users\MightyDubster\Documents\Projects\pygmyos\profiles\nebula\shields/gsmModem.c:179
    
    streamEnableActionChars( COM2 );
  18:	f04f 0001 	mov.w	r0, #1
  1c:	f7ff fffe 	bl	0 <streamEnableActionChars>
C:\Users\MightyDubster\Documents\Projects\pygmyos\profiles\nebula\shields/gsmModem.c:180
    streamSetActionChars( COM2, (u8*)AT_ACTIONCHARS );
  20:	f04f 0001 	mov.w	r0, #1
  24:	4932      	ldr	r1, [pc, #200]	; (cc <streamSetActionChars+0xcc>)
  26:	f7ff fffe 	bl	0 <streamSetActionChars>
C:\Users\MightyDubster\Documents\Projects\pygmyos\profiles\nebula\shields/gsmModem.c:181
    streamSetGet( MODEM_COM, cmdGetsModem );
  2a:	f04f 0001 	mov.w	r0, #1
  2e:	f240 0100 	movw	r1, #0
  32:	f2c0 0100 	movt	r1, #0
  36:	f7ff fffe 	bl	0 <streamSetGet>
C:\Users\MightyDubster\Documents\Projects\pygmyos\profiles\nebula\shields/gsmModem.c:182
    streamSetRXBuffer( MODEM_COM, globalCOM2RXBuffer, __PYGMYCOM2BUFFERLEN );
  3a:	f04f 0001 	mov.w	r0, #1
  3e:	f240 0100 	movw	r1, #0
  42:	f2c0 0100 	movt	r1, #0
  46:	f04f 0280 	mov.w	r2, #128	; 0x80
  4a:	f7ff fffe 	bl	0 <streamSetRXBuffer>
C:\Users\MightyDubster\Documents\Projects\pygmyos\profiles\nebula\shields/gsmModem.c:183
    streamSetPut( MODEM_COM, putsUSART2 );
  4e:	f04f 0001 	mov.w	r0, #1
  52:	f240 0100 	movw	r1, #0
  56:	f2c0 0100 	movt	r1, #0
  5a:	f7ff fffe 	bl	0 <streamSetPut>
C:\Users\MightyDubster\Documents\Projects\pygmyos\profiles\nebula\shields/gsmModem.c:184
    pinConfig( D1, OUT );
  5e:	f04f 0026 	mov.w	r0, #38	; 0x26
  62:	f04f 0103 	mov.w	r1, #3
  66:	f7ff fffe 	bl	0 <pinConfig>
C:\Users\MightyDubster\Documents\Projects\pygmyos\profiles\nebula\shields/gsmModem.c:185
    pinConfig( D0, OUT );
  6a:	f04f 0015 	mov.w	r0, #21
  6e:	f04f 0103 	mov.w	r1, #3
  72:	f7ff fffe 	bl	0 <pinConfig>
C:\Users\MightyDubster\Documents\Projects\pygmyos\profiles\nebula\shields/gsmModem.c:186
    pinSet( D1, LOW );
  76:	f04f 0026 	mov.w	r0, #38	; 0x26
  7a:	f04f 0100 	mov.w	r1, #0
  7e:	f7ff fffe 	bl	0 <pinSet>
C:\Users\MightyDubster\Documents\Projects\pygmyos\profiles\nebula\shields/gsmModem.c:187
    pinSet( D0, LOW );
  82:	f04f 0015 	mov.w	r0, #21
  86:	f04f 0100 	mov.w	r1, #0
  8a:	f7ff fffe 	bl	0 <pinSet>
C:\Users\MightyDubster\Documents\Projects\pygmyos\profiles\nebula\shields/gsmModem.c:188
    pinConfig( D3, IN );
  8e:	f04f 0028 	mov.w	r0, #40	; 0x28
  92:	f04f 0104 	mov.w	r1, #4
  96:	f7ff fffe 	bl	0 <pinConfig>
C:\Users\MightyDubster\Documents\Projects\pygmyos\profiles\nebula\shields/gsmModem.c:189
    pinConfig( T1, OUT );
  9a:	f04f 0017 	mov.w	r0, #23
  9e:	f04f 0103 	mov.w	r1, #3
  a2:	f7ff fffe 	bl	0 <pinConfig>
C:\Users\MightyDubster\Documents\Projects\pygmyos\profiles\nebula\shields/gsmModem.c:195
    
    //pinSet( D0, HIGH );
    //delay( 15000 );
    //pinSet( D0, LOW );
 
    pinInterrupt( blink, D3, TRIGGER_RISING|TRIGGER_FALLING, 7  );  
  a6:	f240 0000 	movw	r0, #0
  aa:	f2c0 0000 	movt	r0, #0
  ae:	f04f 0128 	mov.w	r1, #40	; 0x28
  b2:	f04f 0203 	mov.w	r2, #3
  b6:	f04f 0307 	mov.w	r3, #7
  ba:	f7ff fffe 	bl	0 <pinInterrupt>
C:\Users\MightyDubster\Documents\Projects\pygmyos\profiles\nebula\shields/gsmModem.c:196
    cmdInitQueue( &globalModemQueue );
  be:	f240 0000 	movw	r0, #0
  c2:	f2c0 0000 	movt	r0, #0
  c6:	f7ff fffe 	bl	0 <cmdInitQueue>
C:\Users\MightyDubster\Documents\Projects\pygmyos\profiles\nebula\shields/gsmModem.c:197
    taskNew( "modemcmd", 500, 500, 0, (void*)DriverThread_ProcessCommands );
  ca:	f240 0300 	movw	r3, #0
  ce:	f2c0 0300 	movt	r3, #0
  d2:	9300      	str	r3, [sp, #0]
  d4:	f240 0000 	movw	r0, #0
  d8:	f2c0 0000 	movt	r0, #0
  dc:	f44f 71fa 	mov.w	r1, #500	; 0x1f4
  e0:	460a      	mov	r2, r1
  e2:	f04f 0300 	mov.w	r3, #0
  e6:	f7ff fffe 	bl	0 <taskNew>
C:\Users\MightyDubster\Documents\Projects\pygmyos\profiles\nebula\shields/gsmModem.c:198
}
  ea:	b003      	add	sp, #12
  ec:	bd00      	pop	{pc}
  ee:	bf00      	nop
  f0:	0000014c 	.word	0x0000014c

Disassembly of section .text.email_HELO:

00000000 <email_HELO>:
email_HELO():
C:\Users\MightyDubster\Documents\Projects\pygmyos\profiles\nebula\shields/gsmModem.c:326

    return( TRUE );
}

void email_HELO( void )
{
   0:	b087b500 	.word	0xb087b500
C:\Users\MightyDubster\Documents\Projects\pygmyos\profiles\nebula\shields/gsmModem.c:329
    PYGMYCOMMAND pygmyCmd;

    pygmyCmd.Name = (u8*)EMAIL_HELO;
   4:	4b0d      	ldr	r3, [pc, #52]	; (3c <email_HELO+0x3c>)
   6:	9301      	str	r3, [sp, #4]
C:\Users\MightyDubster\Documents\Projects\pygmyos\profiles\nebula\shields/gsmModem.c:330
    pygmyCmd.PrintHandler = print_HELO;
   8:	f240 0300 	movw	r3, #0
   c:	f2c0 0300 	movt	r3, #0
  10:	9302      	str	r3, [sp, #8]
C:\Users\MightyDubster\Documents\Projects\pygmyos\profiles\nebula\shields/gsmModem.c:331
    pygmyCmd.EventHandler = email_get;
  12:	f240 0300 	movw	r3, #0
  16:	f2c0 0300 	movt	r3, #0
  1a:	9303      	str	r3, [sp, #12]
C:\Users\MightyDubster\Documents\Projects\pygmyos\profiles\nebula\shields/gsmModem.c:332
    pygmyCmd.Expire = 10;
  1c:	f04f 030a 	mov.w	r3, #10
  20:	9305      	str	r3, [sp, #20]
C:\Users\MightyDubster\Documents\Projects\pygmyos\profiles\nebula\shields/gsmModem.c:333
    pygmyCmd.Retry = 4;
  22:	f04f 0304 	mov.w	r3, #4
  26:	f88d 3001 	strb.w	r3, [sp, #1]
C:\Users\MightyDubster\Documents\Projects\pygmyos\profiles\nebula\shields/gsmModem.c:334
    cmdQueue( &globalModemQueue, &pygmyCmd );
  2a:	f240 0000 	movw	r0, #0
  2e:	f2c0 0000 	movt	r0, #0
  32:	4669      	mov	r1, sp
  34:	f7ff fffe 	bl	0 <cmdQueue>
C:\Users\MightyDubster\Documents\Projects\pygmyos\profiles\nebula\shields/gsmModem.c:335
}
  38:	b007      	add	sp, #28
  3a:	bd00      	pop	{pc}
  3c:	000000bc 	.word	0x000000bc

Disassembly of section .text.email_pw:

00000000 <email_pw>:
email_pw():
C:\Users\MightyDubster\Documents\Projects\pygmyos\profiles\nebula\shields/gsmModem.c:338

void email_pw( void )
{
   0:	b500      	push	{lr}
   2:	b087      	sub	sp, #28
C:\Users\MightyDubster\Documents\Projects\pygmyos\profiles\nebula\shields/gsmModem.c:341
    PYGMYCOMMAND pygmyCmd;

    pygmyCmd.Name = "emailpw";
   4:	f240 0300 	movw	r3, #0
   8:	f2c0 0300 	movt	r3, #0
   c:	9301      	str	r3, [sp, #4]
C:\Users\MightyDubster\Documents\Projects\pygmyos\profiles\nebula\shields/gsmModem.c:342
    pygmyCmd.PrintHandler = print_EMAILPW;
   e:	f240 0300 	movw	r3, #0
  12:	f2c0 0300 	movt	r3, #0
  16:	9302      	str	r3, [sp, #8]
C:\Users\MightyDubster\Documents\Projects\pygmyos\profiles\nebula\shields/gsmModem.c:343
    pygmyCmd.EventHandler = email_get;
  18:	f240 0300 	movw	r3, #0
  1c:	f2c0 0300 	movt	r3, #0
  20:	9303      	str	r3, [sp, #12]
C:\Users\MightyDubster\Documents\Projects\pygmyos\profiles\nebula\shields/gsmModem.c:344
    pygmyCmd.Expire = 15;
  22:	f04f 030f 	mov.w	r3, #15
  26:	9305      	str	r3, [sp, #20]
C:\Users\MightyDubster\Documents\Projects\pygmyos\profiles\nebula\shields/gsmModem.c:345
    pygmyCmd.Retry = 0;
  28:	f04f 0300 	mov.w	r3, #0
  2c:	f88d 3001 	strb.w	r3, [sp, #1]
C:\Users\MightyDubster\Documents\Projects\pygmyos\profiles\nebula\shields/gsmModem.c:346
    cmdQueue( &globalModemQueue, &pygmyCmd ); 
  30:	f240 0000 	movw	r0, #0
  34:	f2c0 0000 	movt	r0, #0
  38:	4669      	mov	r1, sp
  3a:	f7ff fffe 	bl	0 <cmdQueue>
C:\Users\MightyDubster\Documents\Projects\pygmyos\profiles\nebula\shields/gsmModem.c:347
}
  3e:	b007      	add	sp, #28
  40:	bd00      	pop	{pc}
  42:	bf00      	nop

Disassembly of section .text.email_user:

00000000 <email_user>:
email_user():
C:\Users\MightyDubster\Documents\Projects\pygmyos\profiles\nebula\shields/gsmModem.c:350

void email_user( void )
{
   0:	b500      	push	{lr}
   2:	b087      	sub	sp, #28
C:\Users\MightyDubster\Documents\Projects\pygmyos\profiles\nebula\shields/gsmModem.c:353
    PYGMYCOMMAND pygmyCmd;

    pygmyCmd.Name = "emailuser";
   4:	f240 0300 	movw	r3, #0
   8:	f2c0 0300 	movt	r3, #0
   c:	9301      	str	r3, [sp, #4]
C:\Users\MightyDubster\Documents\Projects\pygmyos\profiles\nebula\shields/gsmModem.c:354
    pygmyCmd.PrintHandler = print_EMAILUSER;
   e:	f240 0300 	movw	r3, #0
  12:	f2c0 0300 	movt	r3, #0
  16:	9302      	str	r3, [sp, #8]
C:\Users\MightyDubster\Documents\Projects\pygmyos\profiles\nebula\shields/gsmModem.c:355
    pygmyCmd.EventHandler = email_get;
  18:	f240 0300 	movw	r3, #0
  1c:	f2c0 0300 	movt	r3, #0
  20:	9303      	str	r3, [sp, #12]
C:\Users\MightyDubster\Documents\Projects\pygmyos\profiles\nebula\shields/gsmModem.c:356
    pygmyCmd.Expire = 15;
  22:	f04f 030f 	mov.w	r3, #15
  26:	9305      	str	r3, [sp, #20]
C:\Users\MightyDubster\Documents\Projects\pygmyos\profiles\nebula\shields/gsmModem.c:357
    pygmyCmd.Retry = 0;
  28:	f04f 0300 	mov.w	r3, #0
  2c:	f88d 3001 	strb.w	r3, [sp, #1]
C:\Users\MightyDubster\Documents\Projects\pygmyos\profiles\nebula\shields/gsmModem.c:358
    cmdQueue( &globalModemQueue, &pygmyCmd ); 
  30:	f240 0000 	movw	r0, #0
  34:	f2c0 0000 	movt	r0, #0
  38:	4669      	mov	r1, sp
  3a:	f7ff fffe 	bl	0 <cmdQueue>
C:\Users\MightyDubster\Documents\Projects\pygmyos\profiles\nebula\shields/gsmModem.c:359
}
  3e:	b007      	add	sp, #28
  40:	bd00      	pop	{pc}
  42:	bf00      	nop

Disassembly of section .text.email_AUTHLOGIN:

00000000 <email_AUTHLOGIN>:
email_AUTHLOGIN():
C:\Users\MightyDubster\Documents\Projects\pygmyos\profiles\nebula\shields/gsmModem.c:362

void email_AUTHLOGIN( void )
{
   0:	b500      	push	{lr}
   2:	b087      	sub	sp, #28
C:\Users\MightyDubster\Documents\Projects\pygmyos\profiles\nebula\shields/gsmModem.c:365
    PYGMYCOMMAND pygmyCmd;

    pygmyCmd.Name = (u8*)EMAIL_AUTHLOGIN;
   4:	4b0d      	ldr	r3, [pc, #52]	; (3c <email_AUTHLOGIN+0x3c>)
   6:	9301      	str	r3, [sp, #4]
C:\Users\MightyDubster\Documents\Projects\pygmyos\profiles\nebula\shields/gsmModem.c:366
    pygmyCmd.PrintHandler = print_AUTHLOGIN;
   8:	f240 0300 	movw	r3, #0
   c:	f2c0 0300 	movt	r3, #0
  10:	9302      	str	r3, [sp, #8]
C:\Users\MightyDubster\Documents\Projects\pygmyos\profiles\nebula\shields/gsmModem.c:367
    pygmyCmd.EventHandler = email_get;
  12:	f240 0300 	movw	r3, #0
  16:	f2c0 0300 	movt	r3, #0
  1a:	9303      	str	r3, [sp, #12]
C:\Users\MightyDubster\Documents\Projects\pygmyos\profiles\nebula\shields/gsmModem.c:368
    pygmyCmd.Expire = 10;
  1c:	f04f 030a 	mov.w	r3, #10
  20:	9305      	str	r3, [sp, #20]
C:\Users\MightyDubster\Documents\Projects\pygmyos\profiles\nebula\shields/gsmModem.c:369
    pygmyCmd.Retry = 0;
  22:	f04f 0300 	mov.w	r3, #0
  26:	f88d 3001 	strb.w	r3, [sp, #1]
C:\Users\MightyDubster\Documents\Projects\pygmyos\profiles\nebula\shields/gsmModem.c:370
    cmdQueue( &globalModemQueue, &pygmyCmd );
  2a:	f240 0000 	movw	r0, #0
  2e:	f2c0 0000 	movt	r0, #0
  32:	4669      	mov	r1, sp
  34:	f7ff fffe 	bl	0 <cmdQueue>
C:\Users\MightyDubster\Documents\Projects\pygmyos\profiles\nebula\shields/gsmModem.c:371
}
  38:	b007      	add	sp, #28
  3a:	bd00      	pop	{pc}
  3c:	000000c4 	.word	0x000000c4

Disassembly of section .text.email_MAILFROM:

00000000 <email_MAILFROM>:
email_MAILFROM():
C:\Users\MightyDubster\Documents\Projects\pygmyos\profiles\nebula\shields/gsmModem.c:374

void email_MAILFROM( void )
{
   0:	b500      	push	{lr}
   2:	b087      	sub	sp, #28
C:\Users\MightyDubster\Documents\Projects\pygmyos\profiles\nebula\shields/gsmModem.c:377
    PYGMYCOMMAND pygmyCmd;

    pygmyCmd.Name = (u8*)EMAIL_MAILFROM;
   4:	4b0d      	ldr	r3, [pc, #52]	; (3c <email_MAILFROM+0x3c>)
   6:	9301      	str	r3, [sp, #4]
C:\Users\MightyDubster\Documents\Projects\pygmyos\profiles\nebula\shields/gsmModem.c:378
    pygmyCmd.PrintHandler = print_MAILFROM;
   8:	f240 0300 	movw	r3, #0
   c:	f2c0 0300 	movt	r3, #0
  10:	9302      	str	r3, [sp, #8]
C:\Users\MightyDubster\Documents\Projects\pygmyos\profiles\nebula\shields/gsmModem.c:379
    pygmyCmd.EventHandler = email_get;
  12:	f240 0300 	movw	r3, #0
  16:	f2c0 0300 	movt	r3, #0
  1a:	9303      	str	r3, [sp, #12]
C:\Users\MightyDubster\Documents\Projects\pygmyos\profiles\nebula\shields/gsmModem.c:380
    pygmyCmd.Expire = 10;
  1c:	f04f 030a 	mov.w	r3, #10
  20:	9305      	str	r3, [sp, #20]
C:\Users\MightyDubster\Documents\Projects\pygmyos\profiles\nebula\shields/gsmModem.c:381
    pygmyCmd.Retry = 1;
  22:	f04f 0301 	mov.w	r3, #1
  26:	f88d 3001 	strb.w	r3, [sp, #1]
C:\Users\MightyDubster\Documents\Projects\pygmyos\profiles\nebula\shields/gsmModem.c:382
    cmdQueue( &globalModemQueue, &pygmyCmd );
  2a:	f240 0000 	movw	r0, #0
  2e:	f2c0 0000 	movt	r0, #0
  32:	4669      	mov	r1, sp
  34:	f7ff fffe 	bl	0 <cmdQueue>
C:\Users\MightyDubster\Documents\Projects\pygmyos\profiles\nebula\shields/gsmModem.c:383
}
  38:	b007      	add	sp, #28
  3a:	bd00      	pop	{pc}
  3c:	000000b0 	.word	0x000000b0

Disassembly of section .text.email_RCPT:

00000000 <email_RCPT>:
email_RCPT():
C:\Users\MightyDubster\Documents\Projects\pygmyos\profiles\nebula\shields/gsmModem.c:386

void email_RCPT( void )
{
   0:	b500      	push	{lr}
   2:	b087      	sub	sp, #28
C:\Users\MightyDubster\Documents\Projects\pygmyos\profiles\nebula\shields/gsmModem.c:389
    PYGMYCOMMAND pygmyCmd;

    pygmyCmd.Name = (u8*)EMAIL_RCPT;
   4:	4b0d      	ldr	r3, [pc, #52]	; (3c <email_RCPT+0x3c>)
   6:	9301      	str	r3, [sp, #4]
C:\Users\MightyDubster\Documents\Projects\pygmyos\profiles\nebula\shields/gsmModem.c:390
    pygmyCmd.PrintHandler = print_RCPT;
   8:	f240 0300 	movw	r3, #0
   c:	f2c0 0300 	movt	r3, #0
  10:	9302      	str	r3, [sp, #8]
C:\Users\MightyDubster\Documents\Projects\pygmyos\profiles\nebula\shields/gsmModem.c:391
    pygmyCmd.EventHandler = email_get;
  12:	f240 0300 	movw	r3, #0
  16:	f2c0 0300 	movt	r3, #0
  1a:	9303      	str	r3, [sp, #12]
C:\Users\MightyDubster\Documents\Projects\pygmyos\profiles\nebula\shields/gsmModem.c:392
    pygmyCmd.Expire = 10;
  1c:	f04f 030a 	mov.w	r3, #10
  20:	9305      	str	r3, [sp, #20]
C:\Users\MightyDubster\Documents\Projects\pygmyos\profiles\nebula\shields/gsmModem.c:393
    pygmyCmd.Retry = 1;
  22:	f04f 0301 	mov.w	r3, #1
  26:	f88d 3001 	strb.w	r3, [sp, #1]
C:\Users\MightyDubster\Documents\Projects\pygmyos\profiles\nebula\shields/gsmModem.c:394
    cmdQueue( &globalModemQueue, &pygmyCmd );
  2a:	f240 0000 	movw	r0, #0
  2e:	f2c0 0000 	movt	r0, #0
  32:	4669      	mov	r1, sp
  34:	f7ff fffe 	bl	0 <cmdQueue>
C:\Users\MightyDubster\Documents\Projects\pygmyos\profiles\nebula\shields/gsmModem.c:395
}
  38:	b007      	add	sp, #28
  3a:	bd00      	pop	{pc}
  3c:	000000a4 	.word	0x000000a4

Disassembly of section .text.email_DATA:

00000000 <email_DATA>:
email_DATA():
C:\Users\MightyDubster\Documents\Projects\pygmyos\profiles\nebula\shields/gsmModem.c:398

void email_DATA( void )
{
   0:	b500      	push	{lr}
   2:	b087      	sub	sp, #28
C:\Users\MightyDubster\Documents\Projects\pygmyos\profiles\nebula\shields/gsmModem.c:401
    PYGMYCOMMAND pygmyCmd;

    pygmyCmd.Name = (u8*)EMAIL_DATA;
   4:	4b0d      	ldr	r3, [pc, #52]	; (3c <email_DATA+0x3c>)
   6:	9301      	str	r3, [sp, #4]
C:\Users\MightyDubster\Documents\Projects\pygmyos\profiles\nebula\shields/gsmModem.c:402
    pygmyCmd.PrintHandler = print_DATA;
   8:	f240 0300 	movw	r3, #0
   c:	f2c0 0300 	movt	r3, #0
  10:	9302      	str	r3, [sp, #8]
C:\Users\MightyDubster\Documents\Projects\pygmyos\profiles\nebula\shields/gsmModem.c:403
    pygmyCmd.EventHandler = email_get;
  12:	f240 0300 	movw	r3, #0
  16:	f2c0 0300 	movt	r3, #0
  1a:	9303      	str	r3, [sp, #12]
C:\Users\MightyDubster\Documents\Projects\pygmyos\profiles\nebula\shields/gsmModem.c:404
    pygmyCmd.Expire = 15;
  1c:	f04f 030f 	mov.w	r3, #15
  20:	9305      	str	r3, [sp, #20]
C:\Users\MightyDubster\Documents\Projects\pygmyos\profiles\nebula\shields/gsmModem.c:405
    pygmyCmd.Retry = 0;
  22:	f04f 0300 	mov.w	r3, #0
  26:	f88d 3001 	strb.w	r3, [sp, #1]
C:\Users\MightyDubster\Documents\Projects\pygmyos\profiles\nebula\shields/gsmModem.c:406
    cmdQueue( &globalModemQueue, &pygmyCmd );
  2a:	f240 0000 	movw	r0, #0
  2e:	f2c0 0000 	movt	r0, #0
  32:	4669      	mov	r1, sp
  34:	f7ff fffe 	bl	0 <cmdQueue>
C:\Users\MightyDubster\Documents\Projects\pygmyos\profiles\nebula\shields/gsmModem.c:407
}
  38:	b007      	add	sp, #28
  3a:	bd00      	pop	{pc}
  3c:	0000009c 	.word	0x0000009c

Disassembly of section .text.email_body:

00000000 <email_body>:
email_body():
C:\Users\MightyDubster\Documents\Projects\pygmyos\profiles\nebula\shields/gsmModem.c:410

void email_body( void )
{
   0:	b500      	push	{lr}
   2:	b087      	sub	sp, #28
C:\Users\MightyDubster\Documents\Projects\pygmyos\profiles\nebula\shields/gsmModem.c:413
    PYGMYCOMMAND pygmyCmd;

    pygmyCmd.Name = "email";
   4:	f240 0300 	movw	r3, #0
   8:	f2c0 0300 	movt	r3, #0
   c:	9301      	str	r3, [sp, #4]
C:\Users\MightyDubster\Documents\Projects\pygmyos\profiles\nebula\shields/gsmModem.c:414
    pygmyCmd.PrintHandler = print_EMAILBODY;
   e:	f240 0300 	movw	r3, #0
  12:	f2c0 0300 	movt	r3, #0
  16:	9302      	str	r3, [sp, #8]
C:\Users\MightyDubster\Documents\Projects\pygmyos\profiles\nebula\shields/gsmModem.c:415
    pygmyCmd.EventHandler = email_get;
  18:	f240 0300 	movw	r3, #0
  1c:	f2c0 0300 	movt	r3, #0
  20:	9303      	str	r3, [sp, #12]
C:\Users\MightyDubster\Documents\Projects\pygmyos\profiles\nebula\shields/gsmModem.c:416
    pygmyCmd.Expire = 15;
  22:	f04f 030f 	mov.w	r3, #15
  26:	9305      	str	r3, [sp, #20]
C:\Users\MightyDubster\Documents\Projects\pygmyos\profiles\nebula\shields/gsmModem.c:417
    pygmyCmd.Retry = 0;
  28:	f04f 0300 	mov.w	r3, #0
  2c:	f88d 3001 	strb.w	r3, [sp, #1]
C:\Users\MightyDubster\Documents\Projects\pygmyos\profiles\nebula\shields/gsmModem.c:418
    cmdQueue( &globalModemQueue, &pygmyCmd );
  30:	f240 0000 	movw	r0, #0
  34:	f2c0 0000 	movt	r0, #0
  38:	4669      	mov	r1, sp
  3a:	f7ff fffe 	bl	0 <cmdQueue>
C:\Users\MightyDubster\Documents\Projects\pygmyos\profiles\nebula\shields/gsmModem.c:419
}
  3e:	b007      	add	sp, #28
  40:	bd00      	pop	{pc}
  42:	bf00      	nop

Disassembly of section .text.email_quit:

00000000 <email_quit>:
email_quit():
C:\Users\MightyDubster\Documents\Projects\pygmyos\profiles\nebula\shields/gsmModem.c:422

void email_quit( void )
{
   0:	b500      	push	{lr}
   2:	b087      	sub	sp, #28
C:\Users\MightyDubster\Documents\Projects\pygmyos\profiles\nebula\shields/gsmModem.c:425
    PYGMYCOMMAND pygmyCmd;

    pygmyCmd.Name = (u8*)EMAIL_QUIT;
   4:	4b0d      	ldr	r3, [pc, #52]	; (3c <email_quit+0x3c>)
   6:	9301      	str	r3, [sp, #4]
C:\Users\MightyDubster\Documents\Projects\pygmyos\profiles\nebula\shields/gsmModem.c:426
    pygmyCmd.PrintHandler = print_QUIT;
   8:	f240 0300 	movw	r3, #0
   c:	f2c0 0300 	movt	r3, #0
  10:	9302      	str	r3, [sp, #8]
C:\Users\MightyDubster\Documents\Projects\pygmyos\profiles\nebula\shields/gsmModem.c:427
    pygmyCmd.EventHandler = email_get;
  12:	f240 0300 	movw	r3, #0
  16:	f2c0 0300 	movt	r3, #0
  1a:	9303      	str	r3, [sp, #12]
C:\Users\MightyDubster\Documents\Projects\pygmyos\profiles\nebula\shields/gsmModem.c:428
    pygmyCmd.Expire = 15;
  1c:	f04f 030f 	mov.w	r3, #15
  20:	9305      	str	r3, [sp, #20]
C:\Users\MightyDubster\Documents\Projects\pygmyos\profiles\nebula\shields/gsmModem.c:429
    pygmyCmd.Retry = 3;
  22:	f04f 0303 	mov.w	r3, #3
  26:	f88d 3001 	strb.w	r3, [sp, #1]
C:\Users\MightyDubster\Documents\Projects\pygmyos\profiles\nebula\shields/gsmModem.c:430
    cmdQueue( &globalModemQueue, &pygmyCmd );
  2a:	f240 0000 	movw	r0, #0
  2e:	f2c0 0000 	movt	r0, #0
  32:	4669      	mov	r1, sp
  34:	f7ff fffe 	bl	0 <cmdQueue>
C:\Users\MightyDubster\Documents\Projects\pygmyos\profiles\nebula\shields/gsmModem.c:431
}
  38:	b007      	add	sp, #28
  3a:	bd00      	pop	{pc}
  3c:	00000150 	.word	0x00000150

Disassembly of section .text.email_wait:

00000000 <email_wait>:
email_wait():
C:\Users\MightyDubster\Documents\Projects\pygmyos\profiles\nebula\shields/gsmModem.c:434

void email_wait( void )
{
   0:	b500      	push	{lr}
   2:	b087      	sub	sp, #28
C:\Users\MightyDubster\Documents\Projects\pygmyos\profiles\nebula\shields/gsmModem.c:437
    PYGMYCOMMAND pygmyCmd;

    pygmyCmd.Name = (u8*)"wait";
   4:	f240 0300 	movw	r3, #0
   8:	f2c0 0300 	movt	r3, #0
   c:	9301      	str	r3, [sp, #4]
C:\Users\MightyDubster\Documents\Projects\pygmyos\profiles\nebula\shields/gsmModem.c:438
    pygmyCmd.PrintHandler = print_wait;
   e:	f240 0300 	movw	r3, #0
  12:	f2c0 0300 	movt	r3, #0
  16:	9302      	str	r3, [sp, #8]
C:\Users\MightyDubster\Documents\Projects\pygmyos\profiles\nebula\shields/gsmModem.c:439
    pygmyCmd.EventHandler = email_get;
  18:	f240 0300 	movw	r3, #0
  1c:	f2c0 0300 	movt	r3, #0
  20:	9303      	str	r3, [sp, #12]
C:\Users\MightyDubster\Documents\Projects\pygmyos\profiles\nebula\shields/gsmModem.c:440
    pygmyCmd.Expire = 15;
  22:	f04f 030f 	mov.w	r3, #15
  26:	9305      	str	r3, [sp, #20]
C:\Users\MightyDubster\Documents\Projects\pygmyos\profiles\nebula\shields/gsmModem.c:441
    pygmyCmd.Retry = 0; // only a pause to allow prompt from smtp server
  28:	f04f 0300 	mov.w	r3, #0
  2c:	f88d 3001 	strb.w	r3, [sp, #1]
C:\Users\MightyDubster\Documents\Projects\pygmyos\profiles\nebula\shields/gsmModem.c:442
    cmdQueue( &globalModemQueue, &pygmyCmd );
  30:	f240 0000 	movw	r0, #0
  34:	f2c0 0000 	movt	r0, #0
  38:	4669      	mov	r1, sp
  3a:	f7ff fffe 	bl	0 <cmdQueue>
C:\Users\MightyDubster\Documents\Projects\pygmyos\profiles\nebula\shields/gsmModem.c:443
}
  3e:	b007      	add	sp, #28
  40:	bd00      	pop	{pc}
  42:	bf00      	nop

Disassembly of section .text.pftp_put:

00000000 <pftp_put>:
pftp_put():
C:\Users\MightyDubster\Documents\Projects\pygmyos\profiles\nebula\shields/gsmModem.c:521

    return( FALSE );
}
                                    
u8 pftp_put( u8 *ucParams )
{
   0:	b500      	push	{lr}
   2:	b087      	sub	sp, #28
C:\Users\MightyDubster\Documents\Projects\pygmyos\profiles\nebula\shields/gsmModem.c:524
    PYGMYCOMMAND pygmyCmd;
    
    pygmyCmd.Name = "pftp";
   4:	f240 0300 	movw	r3, #0
   8:	f2c0 0300 	movt	r3, #0
   c:	9301      	str	r3, [sp, #4]
C:\Users\MightyDubster\Documents\Projects\pygmyos\profiles\nebula\shields/gsmModem.c:525
    pygmyCmd.PrintHandler = (void *)print_pftp_put;
   e:	f240 0300 	movw	r3, #0
  12:	f2c0 0300 	movt	r3, #0
  16:	9302      	str	r3, [sp, #8]
C:\Users\MightyDubster\Documents\Projects\pygmyos\profiles\nebula\shields/gsmModem.c:526
    pygmyCmd.EventHandler = (void *)pftp_put_handler;
  18:	f240 0300 	movw	r3, #0
  1c:	f2c0 0300 	movt	r3, #0
  20:	9303      	str	r3, [sp, #12]
C:\Users\MightyDubster\Documents\Projects\pygmyos\profiles\nebula\shields/gsmModem.c:527
    pygmyCmd.Expire = 7;
  22:	f04f 0307 	mov.w	r3, #7
  26:	9305      	str	r3, [sp, #20]
C:\Users\MightyDubster\Documents\Projects\pygmyos\profiles\nebula\shields/gsmModem.c:528
    pygmyCmd.Retry = 3;
  28:	f04f 0303 	mov.w	r3, #3
  2c:	f88d 3001 	strb.w	r3, [sp, #1]
C:\Users\MightyDubster\Documents\Projects\pygmyos\profiles\nebula\shields/gsmModem.c:529
    cmdQueue( &globalModemQueue, &pygmyCmd );
  30:	f240 0000 	movw	r0, #0
  34:	f2c0 0000 	movt	r0, #0
  38:	4669      	mov	r1, sp
  3a:	f7ff fffe 	bl	0 <cmdQueue>
C:\Users\MightyDubster\Documents\Projects\pygmyos\profiles\nebula\shields/gsmModem.c:530
}
  3e:	b007      	add	sp, #28
  40:	bd00      	pop	{pc}
  42:	bf00      	nop

Disassembly of section .text.pftp_put_handler:

00000000 <pftp_put_handler>:
pftp_put_handler():
C:\Users\MightyDubster\Documents\Projects\pygmyos\profiles\nebula\shields/gsmModem.c:1188

    return( FALSE );
}

u8 pftp_put_handler( u8 *ucBuffer )
{
   0:	b500      	push	{lr}
   2:	b085      	sub	sp, #20
C:\Users\MightyDubster\Documents\Projects\pygmyos\profiles\nebula\shields/gsmModem.c:1192
    u8 *ucParams[ 3 ], ucLen;//ucSubString1, *ucSubString2;

    
    ucLen = getAllSubStrings( ucBuffer, ucParams, 3, WHITESPACE|SEPARATORS );
   4:	a901      	add	r1, sp, #4
   6:	f04f 0203 	mov.w	r2, #3
   a:	f04f 030a 	mov.w	r3, #10
   e:	f7ff fffe 	bl	0 <getAllSubStrings>
C:\Users\MightyDubster\Documents\Projects\pygmyos\profiles\nebula\shields/gsmModem.c:1193
    if( ucLen < 3 || !isStringSame( ucParams[ 0 ], "PFTP" ) ){
  12:	b2c0      	uxtb	r0, r0
  14:	2802      	cmp	r0, #2
C:\Users\MightyDubster\Documents\Projects\pygmyos\profiles\nebula\shields/gsmModem.c:1194
        return( FALSE );
  16:	bf98      	it	ls
  18:	2000      	movls	r0, #0
C:\Users\MightyDubster\Documents\Projects\pygmyos\profiles\nebula\shields/gsmModem.c:1193
{
    u8 *ucParams[ 3 ], ucLen;//ucSubString1, *ucSubString2;

    
    ucLen = getAllSubStrings( ucBuffer, ucParams, 3, WHITESPACE|SEPARATORS );
    if( ucLen < 3 || !isStringSame( ucParams[ 0 ], "PFTP" ) ){
  1a:	f240 8082 	bls.w	122 <pftp_put_handler+0x122>
  1e:	9801      	ldr	r0, [sp, #4]
  20:	f240 0100 	movw	r1, #0
  24:	f2c0 0100 	movt	r1, #0
  28:	f7ff fffe 	bl	0 <isStringSame>
  2c:	2800      	cmp	r0, #0
  2e:	d073      	beq.n	118 <pftp_put_handler+0x118>
C:\Users\MightyDubster\Documents\Projects\pygmyos\profiles\nebula\shields/gsmModem.c:1197
        return( FALSE );
    } // if

    if( isStringSame( ucParams[ 1 ], (u8*)AT_ERROR ) ){
  30:	9802      	ldr	r0, [sp, #8]
  32:	493d      	ldr	r1, [pc, #244]	; (128 <pftp_put_handler+0x128>)
  34:	f7ff fffe 	bl	0 <isStringSame>
  38:	b370      	cbz	r0, 98 <pftp_put_handler+0x98>
C:\Users\MightyDubster\Documents\Projects\pygmyos\profiles\nebula\shields/gsmModem.c:1198
        if( isStringSame( ucParams[ 2 ], "403" ) || isStringSame( ucParams[ 2 ], "400" ) ){
  3a:	9803      	ldr	r0, [sp, #12]
  3c:	f240 0100 	movw	r1, #0
  40:	f2c0 0100 	movt	r1, #0
  44:	f7ff fffe 	bl	0 <isStringSame>
  48:	b938      	cbnz	r0, 5a <pftp_put_handler+0x5a>
  4a:	9803      	ldr	r0, [sp, #12]
  4c:	f240 0100 	movw	r1, #0
  50:	f2c0 0100 	movt	r1, #0
  54:	f7ff fffe 	bl	0 <isStringSame>
  58:	b180      	cbz	r0, 24 <pftp_put_handler+0x24>
C:\Users\MightyDubster\Documents\Projects\pygmyos\profiles\nebula\shields/gsmModem.c:1201
            // 403 is Forbidden, transaction must be canceled
            // 400 is Unsupported
            globalModemStatus &= ~(MODEM_PFTPINPROGRESS|MODEM_BUSY);
  5a:	f240 0300 	movw	r3, #0
  5e:	f2c0 0300 	movt	r3, #0
  62:	681a      	ldr	r2, [r3, #0]
  64:	f022 0209 	bic.w	r2, r2, #9
  68:	601a      	str	r2, [r3, #0]
C:\Users\MightyDubster\Documents\Projects\pygmyos\profiles\nebula\shields/gsmModem.c:1202
            modem_close( "now" ); // Clear command queue
  6a:	f240 0000 	movw	r0, #0
  6e:	f2c0 0000 	movt	r0, #0
  72:	f7ff fffe 	bl	0 <pftp_put_handler>
C:\Users\MightyDubster\Documents\Projects\pygmyos\profiles\nebula\shields/gsmModem.c:1203
            return( TRUE );
  76:	f04f 0001 	mov.w	r0, #1
  7a:	e052      	b.n	122 <pftp_put_handler+0x122>
C:\Users\MightyDubster\Documents\Projects\pygmyos\profiles\nebula\shields/gsmModem.c:1206
        } else {
            // Any other error requires a resend of last packet
            fileSetPosition( &globalModemPFTP.File, START, globalModemPFTP.CurrentChunk * globalModemPFTP.ChunkSize );
  7c:	482b      	ldr	r0, [pc, #172]	; (12c <pftp_put_handler+0x12c>)
  7e:	f830 3c08 	ldrh.w	r3, [r0, #-8]
  82:	f830 2c06 	ldrh.w	r2, [r0, #-6]
  86:	f04f 0101 	mov.w	r1, #1
  8a:	fb02 f203 	mul.w	r2, r2, r3
  8e:	f7ff fffe 	bl	0 <fileSetPosition>
C:\Users\MightyDubster\Documents\Projects\pygmyos\profiles\nebula\shields/gsmModem.c:1207
            return( FALSE ); // utilize retries
  92:	f04f 0000 	mov.w	r0, #0
  96:	e044      	b.n	122 <pftp_put_handler+0x122>
C:\Users\MightyDubster\Documents\Projects\pygmyos\profiles\nebula\shields/gsmModem.c:1209
        } // else
    } else if( isStringSame( ucParams[ 2 ], (u8*)AT_OK ) ){
  98:	9803      	ldr	r0, [sp, #12]
  9a:	4925      	ldr	r1, [pc, #148]	; (130 <pftp_put_handler+0x130>)
  9c:	f7ff fffe 	bl	0 <isStringSame>
  a0:	2800      	cmp	r0, #0
  a2:	d03c      	beq.n	11e <pftp_put_handler+0x11e>
C:\Users\MightyDubster\Documents\Projects\pygmyos\profiles\nebula\shields/gsmModem.c:1210
        print( MODEM_DEBUG, "." );
  a4:	f04f 0002 	mov.w	r0, #2
  a8:	f240 0100 	movw	r1, #0
  ac:	f2c0 0100 	movt	r1, #0
  b0:	f7ff fffe 	bl	0 <print>
C:\Users\MightyDubster\Documents\Projects\pygmyos\profiles\nebula\shields/gsmModem.c:1211
        if( globalModemPFTP.File.Attributes & EOF ){
  b4:	f240 0300 	movw	r3, #0
  b8:	f2c0 0300 	movt	r3, #0
  bc:	f993 3018 	ldrsb.w	r3, [r3, #24]
  c0:	2b00      	cmp	r3, #0
  c2:	da18      	bge.n	f6 <pftp_put_handler+0xf6>
C:\Users\MightyDubster\Documents\Projects\pygmyos\profiles\nebula\shields/gsmModem.c:1212
            print( MODEM_DEBUG, "Upload Complete." );
  c4:	f04f 0002 	mov.w	r0, #2
  c8:	f240 0100 	movw	r1, #0
  cc:	f2c0 0100 	movt	r1, #0
  d0:	f7ff fffe 	bl	0 <print>
C:\Users\MightyDubster\Documents\Projects\pygmyos\profiles\nebula\shields/gsmModem.c:1213
            globalModemStatus &= ~(MODEM_PFTPINPROGRESS|MODEM_BUSY|MODEM_PFTPPUT);
  d4:	f240 0300 	movw	r3, #0
  d8:	f2c0 0300 	movt	r3, #0
  dc:	681a      	ldr	r2, [r3, #0]
  de:	f022 0229 	bic.w	r2, r2, #41	; 0x29
  e2:	601a      	str	r2, [r3, #0]
C:\Users\MightyDubster\Documents\Projects\pygmyos\profiles\nebula\shields/gsmModem.c:1214
            modem_close( "now" ); // Clear command queue
  e4:	f240 0000 	movw	r0, #0
  e8:	f2c0 0000 	movt	r0, #0
  ec:	f7ff fffe 	bl	0 <pftp_put_handler>
C:\Users\MightyDubster\Documents\Projects\pygmyos\profiles\nebula\shields/gsmModem.c:1215
            return( TRUE );
  f0:	f04f 0001 	mov.w	r0, #1
  f4:	e015      	b.n	5e <pftp_put_handler+0x5e>
C:\Users\MightyDubster\Documents\Projects\pygmyos\profiles\nebula\shields/gsmModem.c:1217
        } // if
        ++globalModemPFTP.CurrentChunk;
  f6:	f240 0300 	movw	r3, #0
  fa:	f2c0 0300 	movt	r3, #0
  fe:	885a      	ldrh	r2, [r3, #2]
 100:	f102 0201 	add.w	r2, r2, #1
 104:	805a      	strh	r2, [r3, #2]
C:\Users\MightyDubster\Documents\Projects\pygmyos\profiles\nebula\shields/gsmModem.c:1218
        pftp_put( "" );
 106:	f240 0000 	movw	r0, #0
 10a:	f2c0 0000 	movt	r0, #0
 10e:	f7ff fffe 	bl	0 <pftp_put_handler>
C:\Users\MightyDubster\Documents\Projects\pygmyos\profiles\nebula\shields/gsmModem.c:1219
        return( TRUE );
 112:	f04f 0001 	mov.w	r0, #1
 116:	e004      	b.n	122 <pftp_put_handler+0x122>
C:\Users\MightyDubster\Documents\Projects\pygmyos\profiles\nebula\shields/gsmModem.c:1194
    u8 *ucParams[ 3 ], ucLen;//ucSubString1, *ucSubString2;

    
    ucLen = getAllSubStrings( ucBuffer, ucParams, 3, WHITESPACE|SEPARATORS );
    if( ucLen < 3 || !isStringSame( ucParams[ 0 ], "PFTP" ) ){
        return( FALSE );
 118:	f04f 0000 	mov.w	r0, #0
 11c:	e001      	b.n	122 <pftp_put_handler+0x122>
C:\Users\MightyDubster\Documents\Projects\pygmyos\profiles\nebula\shields/gsmModem.c:1222
        ++globalModemPFTP.CurrentChunk;
        pftp_put( "" );
        return( TRUE );
    } // else if

    return( FALSE );
 11e:	f04f 0000 	mov.w	r0, #0
C:\Users\MightyDubster\Documents\Projects\pygmyos\profiles\nebula\shields/gsmModem.c:1223
}
 122:	b005      	add	sp, #20
 124:	bd00      	pop	{pc}
 126:	bf00      	nop
 128:	000000d8 	.word	0x000000d8
 12c:	00000008 	.word	0x00000008
 130:	000000d4 	.word	0x000000d4

Disassembly of section .text.pftp_get:

00000000 <pftp_get>:
pftp_get():
C:\Users\MightyDubster\Documents\Projects\pygmyos\profiles\nebula\shields/gsmModem.c:627
    
    return( TRUE );
} 

u8 pftp_get( u8 *ucBuffer )
{
   0:	b500      	push	{lr}
   2:	b087      	sub	sp, #28
C:\Users\MightyDubster\Documents\Projects\pygmyos\profiles\nebula\shields/gsmModem.c:630
    PYGMYCOMMAND pygmyCmd;
    
    pygmyCmd.Name = "pftp";
   4:	f240 0300 	movw	r3, #0
   8:	f2c0 0300 	movt	r3, #0
   c:	9301      	str	r3, [sp, #4]
C:\Users\MightyDubster\Documents\Projects\pygmyos\profiles\nebula\shields/gsmModem.c:631
    pygmyCmd.PrintHandler = (void *)print_pftp_get;
   e:	f240 0300 	movw	r3, #0
  12:	f2c0 0300 	movt	r3, #0
  16:	9302      	str	r3, [sp, #8]
C:\Users\MightyDubster\Documents\Projects\pygmyos\profiles\nebula\shields/gsmModem.c:632
    pygmyCmd.EventHandler = (void *)pftp_handler;
  18:	f240 0300 	movw	r3, #0
  1c:	f2c0 0300 	movt	r3, #0
  20:	9303      	str	r3, [sp, #12]
C:\Users\MightyDubster\Documents\Projects\pygmyos\profiles\nebula\shields/gsmModem.c:633
    pygmyCmd.Expire = 7;
  22:	f04f 0307 	mov.w	r3, #7
  26:	9305      	str	r3, [sp, #20]
C:\Users\MightyDubster\Documents\Projects\pygmyos\profiles\nebula\shields/gsmModem.c:634
    pygmyCmd.Retry = 3;
  28:	f04f 0303 	mov.w	r3, #3
  2c:	f88d 3001 	strb.w	r3, [sp, #1]
C:\Users\MightyDubster\Documents\Projects\pygmyos\profiles\nebula\shields/gsmModem.c:635
    cmdQueue( &globalModemQueue, &pygmyCmd );
  30:	f240 0000 	movw	r0, #0
  34:	f2c0 0000 	movt	r0, #0
  38:	4669      	mov	r1, sp
  3a:	f7ff fffe 	bl	0 <cmdQueue>
C:\Users\MightyDubster\Documents\Projects\pygmyos\profiles\nebula\shields/gsmModem.c:636
}
  3e:	b007      	add	sp, #28
  40:	bd00      	pop	{pc}
  42:	bf00      	nop

Disassembly of section .text.pftp_handler:

00000000 <pftp_handler>:
pftp_handler():
C:\Users\MightyDubster\Documents\Projects\pygmyos\profiles\nebula\shields/gsmModem.c:1113

    return( FALSE ); 
}

u8 pftp_handler( u8 *ucBuffer )
{
   0:	e92d 41f0 	stmdb	sp!, {r4, r5, r6, r7, r8, lr}
   4:	b086      	sub	sp, #24
C:\Users\MightyDubster\Documents\Projects\pygmyos\profiles\nebula\shields/gsmModem.c:1118
    u8 *ucParams[ 5 ], ucLen, *ucSubString, *ucPayload;
    u16 uiCRC, uiLen, uiChunk;
    u32 i, ulPDIA;

    ucLen = getAllSubStrings( ucBuffer, ucParams, 5, WHITESPACE|PUNCT|SEPARATORS );
   6:	a901      	add	r1, sp, #4
   8:	f04f 0205 	mov.w	r2, #5
   c:	f04f 030b 	mov.w	r3, #11
  10:	f7ff fffe 	bl	0 <getAllSubStrings>
C:\Users\MightyDubster\Documents\Projects\pygmyos\profiles\nebula\shields/gsmModem.c:1120
    
    if( isStringSame( ucParams[ 0 ], "PFTP" ) ){
  14:	9801      	ldr	r0, [sp, #4]
  16:	f240 0100 	movw	r1, #0
  1a:	f2c0 0100 	movt	r1, #0
  1e:	f7ff fffe 	bl	0 <isStringSame>
  22:	2800      	cmp	r0, #0
  24:	f000 80cb 	beq.w	1be <pftp_handler+0x1be>
C:\Users\MightyDubster\Documents\Projects\pygmyos\profiles\nebula\shields/gsmModem.c:1121
        if( isStringSame( ucParams[ 1 ], (u8*)AT_ERROR ) ){
  28:	9802      	ldr	r0, [sp, #8]
  2a:	4967      	ldr	r1, [pc, #412]	; (1c8 <pftp_handler+0x1c8>)
  2c:	f7ff fffe 	bl	0 <isStringSame>
  30:	b180      	cbz	r0, 24 <pftp_handler+0x24>
C:\Users\MightyDubster\Documents\Projects\pygmyos\profiles\nebula\shields/gsmModem.c:1123
            // ERROR is returned when resource is unavailable, such as incorrect filename
            globalModemStatus &= ~(MODEM_PFTPINPROGRESS|MODEM_BUSY);
  32:	f240 0300 	movw	r3, #0
  36:	f2c0 0300 	movt	r3, #0
  3a:	681a      	ldr	r2, [r3, #0]
  3c:	f022 0209 	bic.w	r2, r2, #9
  40:	601a      	str	r2, [r3, #0]
C:\Users\MightyDubster\Documents\Projects\pygmyos\profiles\nebula\shields/gsmModem.c:1124
            modem_close( "now" ); // Clear command queue
  42:	f240 0000 	movw	r0, #0
  46:	f2c0 0000 	movt	r0, #0
  4a:	f7ff fffe 	bl	0 <pftp_handler>
C:\Users\MightyDubster\Documents\Projects\pygmyos\profiles\nebula\shields/gsmModem.c:1125
            return( TRUE ); // was 0, must test, but 1 cancels
  4e:	f04f 0001 	mov.w	r0, #1
  52:	e0b6      	b.n	1c2 <pftp_handler+0x1c2>
C:\Users\MightyDubster\Documents\Projects\pygmyos\profiles\nebula\shields/gsmModem.c:1126
        }else if( !isStringSame( ucSubString, "EOF" ) ){
  54:	f04f 0000 	mov.w	r0, #0
  58:	f240 0100 	movw	r1, #0
  5c:	f2c0 0100 	movt	r1, #0
  60:	f7ff fffe 	bl	0 <isStringSame>
  64:	2800      	cmp	r0, #0
  66:	f040 8099 	bne.w	19c <pftp_handler+0x19c>
C:\Users\MightyDubster\Documents\Projects\pygmyos\profiles\nebula\shields/gsmModem.c:1127
            uiChunk = convertStringToInt( ucParams[ 1 ] );
  6a:	9802      	ldr	r0, [sp, #8]
  6c:	f7ff fffe 	bl	0 <convertStringToInt>
  70:	fa1f f880 	uxth.w	r8, r0
C:\Users\MightyDubster\Documents\Projects\pygmyos\profiles\nebula\shields/gsmModem.c:1128
            print( MODEM_DEBUG, "\rChunkReq: %d", globalModemPFTP.CurrentChunk );
  74:	f240 0300 	movw	r3, #0
  78:	f2c0 0300 	movt	r3, #0
  7c:	f04f 0002 	mov.w	r0, #2
  80:	f240 0100 	movw	r1, #0
  84:	f2c0 0100 	movt	r1, #0
  88:	885a      	ldrh	r2, [r3, #2]
  8a:	f7ff fffe 	bl	0 <print>
C:\Users\MightyDubster\Documents\Projects\pygmyos\profiles\nebula\shields/gsmModem.c:1129
            print( MODEM_DEBUG, "\rChunkRcv: %d", uiChunk );
  8e:	f04f 0002 	mov.w	r0, #2
  92:	f240 0100 	movw	r1, #0
  96:	f2c0 0100 	movt	r1, #0
  9a:	4642      	mov	r2, r8
  9c:	f7ff fffe 	bl	0 <print>
C:\Users\MightyDubster\Documents\Projects\pygmyos\profiles\nebula\shields/gsmModem.c:1130
            uiLen = convertStringToInt( ucParams[ 2 ] );
  a0:	9803      	ldr	r0, [sp, #12]
  a2:	f7ff fffe 	bl	0 <convertStringToInt>
  a6:	4606      	mov	r6, r0
C:\Users\MightyDubster\Documents\Projects\pygmyos\profiles\nebula\shields/gsmModem.c:1132
                
            ucPayload = ucParams[ 3 ]; //getNextSubString( "", PYGMY_STRING_WHITE|PYGMY_STRING_SEPARATORS );
  a8:	9d04      	ldr	r5, [sp, #16]
C:\Users\MightyDubster\Documents\Projects\pygmyos\profiles\nebula\shields/gsmModem.c:1133
            print( MODEM_DEBUG, "\rPayLen: %d", ucParams[ 3 ] );
  aa:	f04f 0002 	mov.w	r0, #2
  ae:	f240 0100 	movw	r1, #0
  b2:	f2c0 0100 	movt	r1, #0
  b6:	462a      	mov	r2, r5
  b8:	f7ff fffe 	bl	0 <print>
C:\Users\MightyDubster\Documents\Projects\pygmyos\profiles\nebula\shields/gsmModem.c:1134
            if( convertHexEncodedStringToBuffer( ucPayload, ucPayload ) != uiLen ){
  bc:	4628      	mov	r0, r5
  be:	4629      	mov	r1, r5
  c0:	f7ff fffe 	bl	0 <convertHexEncodedStringToBuffer>
  c4:	4604      	mov	r4, r0
  c6:	b2b6      	uxth	r6, r6
  c8:	42b0      	cmp	r0, r6
  ca:	d00a      	beq.n	e2 <pftp_handler+0xe2>
C:\Users\MightyDubster\Documents\Projects\pygmyos\profiles\nebula\shields/gsmModem.c:1135
                print( MODEM_DEBUG, "\rLEN Fail!" );
  cc:	f04f 0002 	mov.w	r0, #2
  d0:	f240 0100 	movw	r1, #0
  d4:	f2c0 0100 	movt	r1, #0
  d8:	f7ff fffe 	bl	0 <print>
C:\Users\MightyDubster\Documents\Projects\pygmyos\profiles\nebula\shields/gsmModem.c:1136
                return( FALSE );
  dc:	f04f 0000 	mov.w	r0, #0
  e0:	e06f      	b.n	1c2 <pftp_handler+0x1c2>
C:\Users\MightyDubster\Documents\Projects\pygmyos\profiles\nebula\shields/gsmModem.c:1139
            } // if
                // Updated to 32bit PDIA, single frame in HEX n 03/17/2011
            pdiaEncode( 0, PDIA_NEW, 0 );
  e2:	f04f 0000 	mov.w	r0, #0
  e6:	f04f 0101 	mov.w	r1, #1
  ea:	4602      	mov	r2, r0
  ec:	f7ff fffe 	bl	0 <pdiaEncode>
C:\Users\MightyDubster\Documents\Projects\pygmyos\profiles\nebula\shields/gsmModem.c:1140
            for( i = 0, ulPDIA = 0, uiCRC = 0; i < uiLen; i++ ){
  f0:	f04f 0300 	mov.w	r3, #0
  f4:	9300      	str	r3, [sp, #0]
  f6:	4626      	mov	r6, r4
  f8:	b15c      	cbz	r4, 112 <pftp_handler+0x112>
  fa:	461c      	mov	r4, r3
C:\Users\MightyDubster\Documents\Projects\pygmyos\profiles\nebula\shields/gsmModem.c:1141
                pdiaEncode( ucPayload[ i ], PDIA_ADD, (u32*)&ulPDIA );
  fc:	f04f 0702 	mov.w	r7, #2
 100:	5d28      	ldrb	r0, [r5, r4]
 102:	4639      	mov	r1, r7
 104:	466a      	mov	r2, sp
 106:	f7ff fffe 	bl	0 <pdiaEncode>
C:\Users\MightyDubster\Documents\Projects\pygmyos\profiles\nebula\shields/gsmModem.c:1140
                print( MODEM_DEBUG, "\rLEN Fail!" );
                return( FALSE );
            } // if
                // Updated to 32bit PDIA, single frame in HEX n 03/17/2011
            pdiaEncode( 0, PDIA_NEW, 0 );
            for( i = 0, ulPDIA = 0, uiCRC = 0; i < uiLen; i++ ){
 10a:	f104 0401 	add.w	r4, r4, #1
 10e:	42b4      	cmp	r4, r6
 110:	d3f6      	bcc.n	100 <pftp_handler+0x100>
C:\Users\MightyDubster\Documents\Projects\pygmyos\profiles\nebula\shields/gsmModem.c:1143
                pdiaEncode( ucPayload[ i ], PDIA_ADD, (u32*)&ulPDIA );
            } // for
            pdiaEncode( 0, PDIA_END, (u32*)&ulPDIA );
 112:	f04f 0000 	mov.w	r0, #0
 116:	f04f 0104 	mov.w	r1, #4
 11a:	466a      	mov	r2, sp
 11c:	f7ff fffe 	bl	0 <pdiaEncode>
C:\Users\MightyDubster\Documents\Projects\pygmyos\profiles\nebula\shields/gsmModem.c:1145
            //Next append h to mark string as hexadecimal
            i = len( ucParams[ 4 ] );
 120:	9805      	ldr	r0, [sp, #20]
 122:	f7ff fffe 	bl	0 <len>
C:\Users\MightyDubster\Documents\Projects\pygmyos\profiles\nebula\shields/gsmModem.c:1146
            ucParams[ 4 ][ i++ ] = 'h';
 126:	f04f 0268 	mov.w	r2, #104	; 0x68
 12a:	9b05      	ldr	r3, [sp, #20]
 12c:	541a      	strb	r2, [r3, r0]
C:\Users\MightyDubster\Documents\Projects\pygmyos\profiles\nebula\shields/gsmModem.c:1147
            ucParams[ 4 ][ i ] = '\0';
 12e:	9b05      	ldr	r3, [sp, #20]
 130:	1818      	adds	r0, r3, r0
 132:	f04f 0300 	mov.w	r3, #0
 136:	7043      	strb	r3, [r0, #1]
C:\Users\MightyDubster\Documents\Projects\pygmyos\profiles\nebula\shields/gsmModem.c:1150
            // Then convert hexadecimal string to integer
            // Now compare integer against that produced by PDIA encoder
            if( ulPDIA != convertStringToInt( ucParams[ 4 ] ) ){ // Contains CRC
 138:	9805      	ldr	r0, [sp, #20]
 13a:	f7ff fffe 	bl	0 <convertStringToInt>
 13e:	9b00      	ldr	r3, [sp, #0]
 140:	4298      	cmp	r0, r3
 142:	d00a      	beq.n	15a <pftp_handler+0x15a>
C:\Users\MightyDubster\Documents\Projects\pygmyos\profiles\nebula\shields/gsmModem.c:1151
                print( MODEM_DEBUG, "\rData Corrupt!" );
 144:	f04f 0002 	mov.w	r0, #2
 148:	f240 0100 	movw	r1, #0
 14c:	f2c0 0100 	movt	r1, #0
 150:	f7ff fffe 	bl	0 <print>
C:\Users\MightyDubster\Documents\Projects\pygmyos\profiles\nebula\shields/gsmModem.c:1152
                return( FALSE );
 154:	f04f 0000 	mov.w	r0, #0
 158:	e033      	b.n	9a <pftp_handler+0x9a>
C:\Users\MightyDubster\Documents\Projects\pygmyos\profiles\nebula\shields/gsmModem.c:1154
            } // if
            if( uiChunk == globalModemPFTP.CurrentChunk ){
 15a:	f240 0300 	movw	r3, #0
 15e:	f2c0 0300 	movt	r3, #0
 162:	885b      	ldrh	r3, [r3, #2]
 164:	4543      	cmp	r3, r8
C:\Users\MightyDubster\Documents\Projects\pygmyos\profiles\nebula\shields/gsmModem.c:1174
                    pftp_get( "" );
                    return( TRUE );
                } // else
                print( MODEM_DEBUG, "." );
            }
            return( FALSE );
 166:	bf18      	it	ne
 168:	2000      	movne	r0, #0
C:\Users\MightyDubster\Documents\Projects\pygmyos\profiles\nebula\shields/gsmModem.c:1154
            // Now compare integer against that produced by PDIA encoder
            if( ulPDIA != convertStringToInt( ucParams[ 4 ] ) ){ // Contains CRC
                print( MODEM_DEBUG, "\rData Corrupt!" );
                return( FALSE );
            } // if
            if( uiChunk == globalModemPFTP.CurrentChunk ){
 16a:	d12a      	bne.n	1c2 <pftp_handler+0x1c2>
C:\Users\MightyDubster\Documents\Projects\pygmyos\profiles\nebula\shields/gsmModem.c:1155
                if( globalModemPFTP.CurrentChunk == 1 ){
 16c:	2b01      	cmp	r3, #1
C:\Users\MightyDubster\Documents\Projects\pygmyos\profiles\nebula\shields/gsmModem.c:1160
                    //if( !Pygmy_PCMP_DecompressStreamToFile( ucPayload, uiLen, PYGMY_PCMP_START, 
                    //    backlinkData.PFTP_Compressed, backlinkData.PFTP_File.Name ) ){
                    //    return( 0 );
                    //}
                    ++globalModemPFTP.CurrentChunk;
 16e:	bf01      	itttt	eq
 170:	f240 0300 	movweq	r3, #0
 174:	f2c0 0300 	movteq	r3, #0
 178:	2202      	moveq	r2, #2
 17a:	805a      	strheq	r2, [r3, #2]
C:\Users\MightyDubster\Documents\Projects\pygmyos\profiles\nebula\shields/gsmModem.c:1168
                } else{
                    //if( !Pygmy_PCMP_DecompressStreamToFile( ucPayload, uiLen, PYGMY_PCMP_DATA, 
                    //    backlinkData.PFTP_Compressed, "" ) ){
                    //    return( FALSE );
                    //}
                    ++globalModemPFTP.CurrentChunk;
 17c:	bf1f      	itttt	ne
 17e:	f240 0200 	movwne	r2, #0
 182:	f2c0 0200 	movtne	r2, #0
 186:	3301      	addne	r3, #1
 188:	8053      	strhne	r3, [r2, #2]
C:\Users\MightyDubster\Documents\Projects\pygmyos\profiles\nebula\shields/gsmModem.c:1169
                    pftp_get( "" );
 18a:	f240 0000 	movw	r0, #0
 18e:	f2c0 0000 	movt	r0, #0
 192:	f7ff fffe 	bl	0 <pftp_handler>
C:\Users\MightyDubster\Documents\Projects\pygmyos\profiles\nebula\shields/gsmModem.c:1170
                    return( TRUE );
 196:	f04f 0001 	mov.w	r0, #1
 19a:	e012      	b.n	28 <pftp_handler+0x28>
C:\Users\MightyDubster\Documents\Projects\pygmyos\profiles\nebula\shields/gsmModem.c:1177
                print( MODEM_DEBUG, "." );
            }
            return( FALSE );
        } else{
            //Pygmy_PCMP_DecompressStreamToFile( "", uiLen, PYGMY_PCMP_STOP, backlinkData.PFTP_Compressed, "" );
            globalModemStatus &= ~(MODEM_PFTPINPROGRESS|MODEM_BUSY);
 19c:	f240 0300 	movw	r3, #0
 1a0:	f2c0 0300 	movt	r3, #0
 1a4:	681a      	ldr	r2, [r3, #0]
 1a6:	f022 0209 	bic.w	r2, r2, #9
 1aa:	601a      	str	r2, [r3, #0]
C:\Users\MightyDubster\Documents\Projects\pygmyos\profiles\nebula\shields/gsmModem.c:1178
            modem_close( "now" ); // Clear command queue
 1ac:	f240 0000 	movw	r0, #0
 1b0:	f2c0 0000 	movt	r0, #0
 1b4:	f7ff fffe 	bl	0 <pftp_handler>
C:\Users\MightyDubster\Documents\Projects\pygmyos\profiles\nebula\shields/gsmModem.c:1181
        } // else
            
        return( TRUE ); 
 1b8:	f04f 0001 	mov.w	r0, #1
 1bc:	e001      	b.n	1c2 <pftp_handler+0x1c2>
C:\Users\MightyDubster\Documents\Projects\pygmyos\profiles\nebula\shields/gsmModem.c:1184
    } // if

    return( FALSE );
 1be:	f04f 0000 	mov.w	r0, #0
C:\Users\MightyDubster\Documents\Projects\pygmyos\profiles\nebula\shields/gsmModem.c:1185
}
 1c2:	b006      	add	sp, #24
 1c4:	e8bd 81f0 	ldmia.w	sp!, {r4, r5, r6, r7, r8, pc}
 1c8:	000000d8 	.word	0x000000d8

Disassembly of section .text.pftp_close:

00000000 <pftp_close>:
pftp_close():
C:\Users\MightyDubster\Documents\Projects\pygmyos\profiles\nebula\shields/gsmModem.c:639
    pygmyCmd.Retry = 3;
    cmdQueue( &globalModemQueue, &pygmyCmd );
}

u8 pftp_close( u8 *ucBuffer )
{
   0:	b500      	push	{lr}
   2:	b087      	sub	sp, #28
C:\Users\MightyDubster\Documents\Projects\pygmyos\profiles\nebula\shields/gsmModem.c:642
    PYGMYCOMMAND pygmyCmd;
    
    pygmyCmd.Name = "close";
   4:	f240 0300 	movw	r3, #0
   8:	f2c0 0300 	movt	r3, #0
   c:	9301      	str	r3, [sp, #4]
C:\Users\MightyDubster\Documents\Projects\pygmyos\profiles\nebula\shields/gsmModem.c:643
    pygmyCmd.PrintHandler = (void *)print_pftp_close;
   e:	f240 0300 	movw	r3, #0
  12:	f2c0 0300 	movt	r3, #0
  16:	9302      	str	r3, [sp, #8]
C:\Users\MightyDubster\Documents\Projects\pygmyos\profiles\nebula\shields/gsmModem.c:644
    pygmyCmd.EventHandler = (void *)pftp_close_handler;
  18:	f240 0300 	movw	r3, #0
  1c:	f2c0 0300 	movt	r3, #0
  20:	9303      	str	r3, [sp, #12]
C:\Users\MightyDubster\Documents\Projects\pygmyos\profiles\nebula\shields/gsmModem.c:645
    pygmyCmd.Expire = 2;
  22:	f04f 0302 	mov.w	r3, #2
  26:	9305      	str	r3, [sp, #20]
C:\Users\MightyDubster\Documents\Projects\pygmyos\profiles\nebula\shields/gsmModem.c:646
    pygmyCmd.Retry = 1;
  28:	f04f 0301 	mov.w	r3, #1
  2c:	f88d 3001 	strb.w	r3, [sp, #1]
C:\Users\MightyDubster\Documents\Projects\pygmyos\profiles\nebula\shields/gsmModem.c:647
    cmdQueue( &globalModemQueue, &pygmyCmd );
  30:	f240 0000 	movw	r0, #0
  34:	f2c0 0000 	movt	r0, #0
  38:	4669      	mov	r1, sp
  3a:	f7ff fffe 	bl	0 <cmdQueue>
C:\Users\MightyDubster\Documents\Projects\pygmyos\profiles\nebula\shields/gsmModem.c:648
}
  3e:	b007      	add	sp, #28
  40:	bd00      	pop	{pc}
  42:	bf00      	nop

Disassembly of section .text.modem_sd:

00000000 <modem_sd>:
modem_sd():
C:\Users\MightyDubster\Documents\Projects\pygmyos\profiles\nebula\shields/gsmModem.c:793

    return( TRUE );
}

u8 modem_sd( u8 *ucBuffer )
{
   0:	b500      	push	{lr}
   2:	b087      	sub	sp, #28
C:\Users\MightyDubster\Documents\Projects\pygmyos\profiles\nebula\shields/gsmModem.c:797
    // Socket Dial, used to open internet connection
    PYGMYCOMMAND pygmyCmd;

    pygmyCmd.Name = (u8*)AT_SD;
   4:	4b0e      	ldr	r3, [pc, #56]	; (40 <modem_sd+0x40>)
   6:	9301      	str	r3, [sp, #4]
C:\Users\MightyDubster\Documents\Projects\pygmyos\profiles\nebula\shields/gsmModem.c:798
    pygmyCmd.PrintHandler = print_SD;
   8:	f240 0300 	movw	r3, #0
   c:	f2c0 0300 	movt	r3, #0
  10:	9302      	str	r3, [sp, #8]
C:\Users\MightyDubster\Documents\Projects\pygmyos\profiles\nebula\shields/gsmModem.c:799
    pygmyCmd.EventHandler = handler_ATSD;
  12:	f240 0300 	movw	r3, #0
  16:	f2c0 0300 	movt	r3, #0
  1a:	9303      	str	r3, [sp, #12]
C:\Users\MightyDubster\Documents\Projects\pygmyos\profiles\nebula\shields/gsmModem.c:800
    pygmyCmd.Expire = 60;
  1c:	f04f 033c 	mov.w	r3, #60	; 0x3c
  20:	9305      	str	r3, [sp, #20]
C:\Users\MightyDubster\Documents\Projects\pygmyos\profiles\nebula\shields/gsmModem.c:801
    pygmyCmd.Retry = 3;
  22:	f04f 0303 	mov.w	r3, #3
  26:	f88d 3001 	strb.w	r3, [sp, #1]
C:\Users\MightyDubster\Documents\Projects\pygmyos\profiles\nebula\shields/gsmModem.c:802
    cmdQueue( &globalModemQueue, &pygmyCmd );
  2a:	f240 0000 	movw	r0, #0
  2e:	f2c0 0000 	movt	r0, #0
  32:	4669      	mov	r1, sp
  34:	f7ff fffe 	bl	0 <cmdQueue>
C:\Users\MightyDubster\Documents\Projects\pygmyos\profiles\nebula\shields/gsmModem.c:805
    
    return( TRUE );
}
  38:	f04f 0001 	mov.w	r0, #1
  3c:	b007      	add	sp, #28
  3e:	bd00      	pop	{pc}
  40:	00000158 	.word	0x00000158

Disassembly of section .text.modem_pftp:

00000000 <modem_pftp>:
modem_pftp():
C:\Users\MightyDubster\Documents\Projects\pygmyos\profiles\nebula\shields/gsmModem.c:569
    print( MODEM_COM, " HTTP/1.1%s", (u8*)AT_CRLF );
    print( MODEM_COM, "Host: %s%s%s", globalModemPFTP.HostName, (u8*)AT_CRLF, (u8*)AT_CRLF );
}

u8 modem_pftp( u8 *ucBuffer )
{
   0:	b5f0      	push	{r4, r5, r6, r7, lr}
   2:	b085      	sub	sp, #20
C:\Users\MightyDubster\Documents\Projects\pygmyos\profiles\nebula\shields/gsmModem.c:572
    u8 *ucParams[ 3 ], ucLen, *ucCommand, *ucFileName, *ucSubString, ucCMD;

    ucLen = getAllSubStrings( ucBuffer, ucParams, 3, WHITESPACE|NEWLINE );
   4:	a901      	add	r1, sp, #4
   6:	f04f 0203 	mov.w	r2, #3
   a:	f04f 0306 	mov.w	r3, #6
   e:	f7ff fffe 	bl	0 <getAllSubStrings>
C:\Users\MightyDubster\Documents\Projects\pygmyos\profiles\nebula\shields/gsmModem.c:573
    ucCommand = ucParams[ 0 ];
  12:	9c01      	ldr	r4, [sp, #4]
C:\Users\MightyDubster\Documents\Projects\pygmyos\profiles\nebula\shields/gsmModem.c:574
    ucFileName = ucParams[ 1 ];
  14:	9d02      	ldr	r5, [sp, #8]
C:\Users\MightyDubster\Documents\Projects\pygmyos\profiles\nebula\shields/gsmModem.c:575
    ucSubString = ucParams[ 2 ];
  16:	9e03      	ldr	r6, [sp, #12]
C:\Users\MightyDubster\Documents\Projects\pygmyos\profiles\nebula\shields/gsmModem.c:577
    
    if( ucCommand ){
  18:	b1ac      	cbz	r4, 46 <modem_pftp+0x46>
C:\Users\MightyDubster\Documents\Projects\pygmyos\profiles\nebula\shields/gsmModem.c:578
        if( isStringSame( ucCommand, "get" ) ){
  1a:	4620      	mov	r0, r4
  1c:	f240 0100 	movw	r1, #0
  20:	f2c0 0100 	movt	r1, #0
  24:	f7ff fffe 	bl	0 <isStringSame>
  28:	b958      	cbnz	r0, 42 <modem_pftp+0x42>
C:\Users\MightyDubster\Documents\Projects\pygmyos\profiles\nebula\shields/gsmModem.c:580
            ucCMD = 0; 
        } else if( isStringSame( ucCommand, "put" ) ){
  2a:	4620      	mov	r0, r4
  2c:	f240 0100 	movw	r1, #0
  30:	f2c0 0100 	movt	r1, #0
  34:	f7ff fffe 	bl	0 <isStringSame>
  38:	2800      	cmp	r0, #0
  3a:	d074      	beq.n	126 <modem_pftp+0x126>
C:\Users\MightyDubster\Documents\Projects\pygmyos\profiles\nebula\shields/gsmModem.c:581
            ucCMD = 1;
  3c:	f04f 0701 	mov.w	r7, #1
  40:	e001      	b.n	46 <modem_pftp+0x46>
C:\Users\MightyDubster\Documents\Projects\pygmyos\profiles\nebula\shields/gsmModem.c:579
    ucFileName = ucParams[ 1 ];
    ucSubString = ucParams[ 2 ];
    
    if( ucCommand ){
        if( isStringSame( ucCommand, "get" ) ){
            ucCMD = 0; 
  42:	f04f 0700 	mov.w	r7, #0
C:\Users\MightyDubster\Documents\Projects\pygmyos\profiles\nebula\shields/gsmModem.c:590
    }// if
    
    if( ucFileName ){
        copyString( ucFileName, globalModemPFTP.File.Name );
    } else{
        return( FALSE );
  46:	f04f 0000 	mov.w	r0, #0
C:\Users\MightyDubster\Documents\Projects\pygmyos\profiles\nebula\shields/gsmModem.c:587
        } else{
            return( FALSE );
        } // else
    }// if
    
    if( ucFileName ){
  4a:	2d00      	cmp	r5, #0
  4c:	d070      	beq.n	130 <modem_pftp+0x130>
C:\Users\MightyDubster\Documents\Projects\pygmyos\profiles\nebula\shields/gsmModem.c:588
        copyString( ucFileName, globalModemPFTP.File.Name );
  4e:	4c39      	ldr	r4, [pc, #228]	; (134 <modem_pftp+0x134>)
  50:	4628      	mov	r0, r5
  52:	4621      	mov	r1, r4
  54:	f7ff fffe 	bl	0 <copyString>
C:\Users\MightyDubster\Documents\Projects\pygmyos\profiles\nebula\shields/gsmModem.c:594
    } else{
        return( FALSE );
    } // else
    
    // Next test for pcmp tag, if used the file will be decompressed with PCMP as it's saved
    globalModemPFTP.CurrentChunk = 1; // 0 is reserved for error
  58:	f04f 0201 	mov.w	r2, #1
  5c:	f824 2c1e 	strh.w	r2, [r4, #-30]
C:\Users\MightyDubster\Documents\Projects\pygmyos\profiles\nebula\shields/gsmModem.c:595
    if ( ucSubString ){ // Second optional parameter is start chunk for resume
  60:	b186      	cbz	r6, 84 <modem_pftp+0x84>
C:\Users\MightyDubster\Documents\Projects\pygmyos\profiles\nebula\shields/gsmModem.c:596
        globalModemPFTP.CurrentChunk = convertStringToInt( ucSubString );
  62:	4630      	mov	r0, r6
  64:	f7ff fffe 	bl	0 <convertStringToInt>
  68:	b280      	uxth	r0, r0
  6a:	f240 0300 	movw	r3, #0
  6e:	f2c0 0300 	movt	r3, #0
  72:	8058      	strh	r0, [r3, #2]
C:\Users\MightyDubster\Documents\Projects\pygmyos\profiles\nebula\shields/gsmModem.c:597
        if( globalModemPFTP.CurrentChunk < 1 ){
  74:	b930      	cbnz	r0, 84 <modem_pftp+0x84>
C:\Users\MightyDubster\Documents\Projects\pygmyos\profiles\nebula\shields/gsmModem.c:598
            globalModemPFTP.CurrentChunk = 1;
  76:	f240 0300 	movw	r3, #0
  7a:	f2c0 0300 	movt	r3, #0
  7e:	f04f 0201 	mov.w	r2, #1
  82:	805a      	strh	r2, [r3, #2]
C:\Users\MightyDubster\Documents\Projects\pygmyos\profiles\nebula\shields/gsmModem.c:602
        } // if
    } // if
    
    globalModemTCPPort = 80; // HTTP Port
  84:	f240 0300 	movw	r3, #0
  88:	f2c0 0300 	movt	r3, #0
  8c:	f04f 0250 	mov.w	r2, #80	; 0x50
  90:	801a      	strh	r2, [r3, #0]
C:\Users\MightyDubster\Documents\Projects\pygmyos\profiles\nebula\shields/gsmModem.c:604
    globalModemStatus &= ~( MODEM_HTTPINPROGRESS|MODEM_PFTPINPROGRESS|MODEM_SMSINPROGRESS|MODEM_EMAILINPROGRESS);
    globalModemStatus |= MODEM_BUSY;
  92:	f240 0300 	movw	r3, #0
  96:	f2c0 0300 	movt	r3, #0
C:\Users\MightyDubster\Documents\Projects\pygmyos\profiles\nebula\shields/gsmModem.c:603
            globalModemPFTP.CurrentChunk = 1;
        } // if
    } // if
    
    globalModemTCPPort = 80; // HTTP Port
    globalModemStatus &= ~( MODEM_HTTPINPROGRESS|MODEM_PFTPINPROGRESS|MODEM_SMSINPROGRESS|MODEM_EMAILINPROGRESS);
  9a:	681a      	ldr	r2, [r3, #0]
  9c:	f022 021e 	bic.w	r2, r2, #30
C:\Users\MightyDubster\Documents\Projects\pygmyos\profiles\nebula\shields/gsmModem.c:604
    globalModemStatus |= MODEM_BUSY;
  a0:	f042 0201 	orr.w	r2, r2, #1
  a4:	601a      	str	r2, [r3, #0]
C:\Users\MightyDubster\Documents\Projects\pygmyos\profiles\nebula\shields/gsmModem.c:605
    globalModemPFTP.ChunkSize = 256; // 256 is default, no sz parameter will be sent, saves bandwidth
  a6:	f240 0300 	movw	r3, #0
  aa:	f2c0 0300 	movt	r3, #0
  ae:	f44f 7280 	mov.w	r2, #256	; 0x100
  b2:	801a      	strh	r2, [r3, #0]
C:\Users\MightyDubster\Documents\Projects\pygmyos\profiles\nebula\shields/gsmModem.c:606
    modem_close( "" ); // Clear command queue
  b4:	f240 0400 	movw	r4, #0
  b8:	f2c0 0400 	movt	r4, #0
  bc:	4620      	mov	r0, r4
  be:	f7ff fffe 	bl	0 <modem_pftp>
C:\Users\MightyDubster\Documents\Projects\pygmyos\profiles\nebula\shields/gsmModem.c:607
    modem_close( "" ); // close any open connections
  c2:	4620      	mov	r0, r4
  c4:	f7ff fffe 	bl	0 <modem_pftp>
C:\Users\MightyDubster\Documents\Projects\pygmyos\profiles\nebula\shields/gsmModem.c:608
    modem_portal( "" );//Configure internet portal ( APN )
  c8:	4620      	mov	r0, r4
  ca:	f7ff fffe 	bl	0 <modem_pftp>
C:\Users\MightyDubster\Documents\Projects\pygmyos\profiles\nebula\shields/gsmModem.c:609
    modem_attach( "" );//Attach, always to default context 1
  ce:	4620      	mov	r0, r4
  d0:	f7ff fffe 	bl	0 <modem_pftp>
C:\Users\MightyDubster\Documents\Projects\pygmyos\profiles\nebula\shields/gsmModem.c:610
    modem_sd( "" ); // Socket dial
  d4:	4620      	mov	r0, r4
  d6:	f7ff fffe 	bl	0 <modem_pftp>
C:\Users\MightyDubster\Documents\Projects\pygmyos\profiles\nebula\shields/gsmModem.c:612

    if( ucCMD ){
  da:	b1b7      	cbz	r7, 10a <modem_pftp+0x10a>
C:\Users\MightyDubster\Documents\Projects\pygmyos\profiles\nebula\shields/gsmModem.c:613
        if( !fileOpen( &globalModemPFTP.File, globalModemPFTP.File.Name, READ ) ){
  dc:	4916      	ldr	r1, [pc, #88]	; (138 <modem_pftp+0x138>)
  de:	4608      	mov	r0, r1
  e0:	f101 0118 	add.w	r1, r1, #24
  e4:	f04f 0201 	mov.w	r2, #1
  e8:	f7ff fffe 	bl	0 <fileOpen>
  ec:	b1f0      	cbz	r0, 40 <modem_pftp+0x40>
C:\Users\MightyDubster\Documents\Projects\pygmyos\profiles\nebula\shields/gsmModem.c:616
            return( FALSE );
        } // if
        globalModemStatus |= MODEM_PFTPPUT;
  ee:	f240 0300 	movw	r3, #0
  f2:	f2c0 0300 	movt	r3, #0
  f6:	681a      	ldr	r2, [r3, #0]
  f8:	f042 0220 	orr.w	r2, r2, #32
  fc:	601a      	str	r2, [r3, #0]
C:\Users\MightyDubster\Documents\Projects\pygmyos\profiles\nebula\shields/gsmModem.c:617
        pftp_put( "" ); // connection will be closed by server
  fe:	4620      	mov	r0, r4
 100:	f7ff fffe 	bl	0 <modem_pftp>
C:\Users\MightyDubster\Documents\Projects\pygmyos\profiles\nebula\shields/gsmModem.c:623
    } else{
        globalModemStatus &= ~MODEM_PFTPPUT;
        pftp_get( "" ); // connection will be closed by server
    } // else
    
    return( TRUE );
 104:	f04f 0001 	mov.w	r0, #1
 108:	e012      	b.n	28 <modem_pftp+0x28>
C:\Users\MightyDubster\Documents\Projects\pygmyos\profiles\nebula\shields/gsmModem.c:619
            return( FALSE );
        } // if
        globalModemStatus |= MODEM_PFTPPUT;
        pftp_put( "" ); // connection will be closed by server
    } else{
        globalModemStatus &= ~MODEM_PFTPPUT;
 10a:	f240 0300 	movw	r3, #0
 10e:	f2c0 0300 	movt	r3, #0
 112:	681a      	ldr	r2, [r3, #0]
 114:	f022 0220 	bic.w	r2, r2, #32
 118:	601a      	str	r2, [r3, #0]
C:\Users\MightyDubster\Documents\Projects\pygmyos\profiles\nebula\shields/gsmModem.c:620
        pftp_get( "" ); // connection will be closed by server
 11a:	4620      	mov	r0, r4
 11c:	f7ff fffe 	bl	0 <modem_pftp>
C:\Users\MightyDubster\Documents\Projects\pygmyos\profiles\nebula\shields/gsmModem.c:623
    } // else
    
    return( TRUE );
 120:	f04f 0001 	mov.w	r0, #1
 124:	e004      	b.n	130 <modem_pftp+0x130>
C:\Users\MightyDubster\Documents\Projects\pygmyos\profiles\nebula\shields/gsmModem.c:583
        if( isStringSame( ucCommand, "get" ) ){
            ucCMD = 0; 
        } else if( isStringSame( ucCommand, "put" ) ){
            ucCMD = 1;
        } else{
            return( FALSE );
 126:	f04f 0000 	mov.w	r0, #0
 12a:	e001      	b.n	130 <modem_pftp+0x130>
C:\Users\MightyDubster\Documents\Projects\pygmyos\profiles\nebula\shields/gsmModem.c:614
    modem_attach( "" );//Attach, always to default context 1
    modem_sd( "" ); // Socket dial

    if( ucCMD ){
        if( !fileOpen( &globalModemPFTP.File, globalModemPFTP.File.Name, READ ) ){
            return( FALSE );
 12c:	f04f 0000 	mov.w	r0, #0
C:\Users\MightyDubster\Documents\Projects\pygmyos\profiles\nebula\shields/gsmModem.c:624
        globalModemStatus &= ~MODEM_PFTPPUT;
        pftp_get( "" ); // connection will be closed by server
    } // else
    
    return( TRUE );
} 
 130:	b005      	add	sp, #20
 132:	bdf0      	pop	{r4, r5, r6, r7, pc}
 134:	00000020 	.word	0x00000020
 138:	00000008 	.word	0x00000008

Disassembly of section .text.modem_email:

00000000 <modem_email>:
modem_email():
C:\Users\MightyDubster\Documents\Projects\pygmyos\profiles\nebula\shields/gsmModem.c:302

    return( TRUE );
}

u8 modem_email( u8 *ucBuffer )
{
   0:	b510      	push	{r4, lr}
C:\Users\MightyDubster\Documents\Projects\pygmyos\profiles\nebula\shields/gsmModem.c:303
    modem_close( "now" ); // this clears the status bits
   2:	f240 0000 	movw	r0, #0
   6:	f2c0 0000 	movt	r0, #0
   a:	f7ff fffe 	bl	0 <modem_email>
C:\Users\MightyDubster\Documents\Projects\pygmyos\profiles\nebula\shields/gsmModem.c:304
    modem_close( "" );
   e:	f240 0400 	movw	r4, #0
  12:	f2c0 0400 	movt	r4, #0
  16:	4620      	mov	r0, r4
  18:	f7ff fffe 	bl	0 <modem_email>
C:\Users\MightyDubster\Documents\Projects\pygmyos\profiles\nebula\shields/gsmModem.c:305
    modem_portal( "" );//Configure internet portal ( APN )
  1c:	4620      	mov	r0, r4
  1e:	f7ff fffe 	bl	0 <modem_email>
C:\Users\MightyDubster\Documents\Projects\pygmyos\profiles\nebula\shields/gsmModem.c:306
    modem_attach( "" );//Attach, always to default context 1
  22:	4620      	mov	r0, r4
  24:	f7ff fffe 	bl	0 <modem_email>
C:\Users\MightyDubster\Documents\Projects\pygmyos\profiles\nebula\shields/gsmModem.c:307
    globalModemTCPPort = 25;
  28:	f240 0300 	movw	r3, #0
  2c:	f2c0 0300 	movt	r3, #0
  30:	f04f 0219 	mov.w	r2, #25
  34:	801a      	strh	r2, [r3, #0]
C:\Users\MightyDubster\Documents\Projects\pygmyos\profiles\nebula\shields/gsmModem.c:308
    modem_sd( "" ); // Socket dial
  36:	4620      	mov	r0, r4
  38:	f7ff fffe 	bl	0 <modem_email>
C:\Users\MightyDubster\Documents\Projects\pygmyos\profiles\nebula\shields/gsmModem.c:309
    email_wait();
  3c:	f7ff fffe 	bl	0 <modem_email>
C:\Users\MightyDubster\Documents\Projects\pygmyos\profiles\nebula\shields/gsmModem.c:310
    email_HELO();
  40:	f7ff fffe 	bl	0 <modem_email>
C:\Users\MightyDubster\Documents\Projects\pygmyos\profiles\nebula\shields/gsmModem.c:311
    email_AUTHLOGIN();
  44:	f7ff fffe 	bl	0 <modem_email>
C:\Users\MightyDubster\Documents\Projects\pygmyos\profiles\nebula\shields/gsmModem.c:312
    email_user();
  48:	f7ff fffe 	bl	0 <modem_email>
C:\Users\MightyDubster\Documents\Projects\pygmyos\profiles\nebula\shields/gsmModem.c:313
    email_pw();
  4c:	f7ff fffe 	bl	0 <modem_email>
C:\Users\MightyDubster\Documents\Projects\pygmyos\profiles\nebula\shields/gsmModem.c:314
    email_MAILFROM();
  50:	f7ff fffe 	bl	0 <modem_email>
C:\Users\MightyDubster\Documents\Projects\pygmyos\profiles\nebula\shields/gsmModem.c:315
    email_RCPT();
  54:	f7ff fffe 	bl	0 <modem_email>
C:\Users\MightyDubster\Documents\Projects\pygmyos\profiles\nebula\shields/gsmModem.c:316
    email_DATA();
  58:	f7ff fffe 	bl	0 <modem_email>
C:\Users\MightyDubster\Documents\Projects\pygmyos\profiles\nebula\shields/gsmModem.c:317
    email_body();
  5c:	f7ff fffe 	bl	0 <modem_email>
C:\Users\MightyDubster\Documents\Projects\pygmyos\profiles\nebula\shields/gsmModem.c:318
    email_quit();
  60:	f7ff fffe 	bl	0 <modem_email>
C:\Users\MightyDubster\Documents\Projects\pygmyos\profiles\nebula\shields/gsmModem.c:319
    email_wait();
  64:	f7ff fffe 	bl	0 <modem_email>
C:\Users\MightyDubster\Documents\Projects\pygmyos\profiles\nebula\shields/gsmModem.c:320
    modem_suspend( "" ); // Connection must be suspended to close
  68:	4620      	mov	r0, r4
  6a:	f7ff fffe 	bl	0 <modem_email>
C:\Users\MightyDubster\Documents\Projects\pygmyos\profiles\nebula\shields/gsmModem.c:323

    return( TRUE );
}
  6e:	f04f 0001 	mov.w	r0, #1
  72:	bd10      	pop	{r4, pc}

Disassembly of section .text.modem_smssave:

00000000 <modem_smssave>:
modem_smssave():
C:\Users\MightyDubster\Documents\Projects\pygmyos\profiles\nebula\shields/gsmModem.c:871

    return( TRUE );
}

u8 modem_smssave( u8 *ucBuffer )
{
   0:	b508      	push	{r3, lr}
C:\Users\MightyDubster\Documents\Projects\pygmyos\profiles\nebula\shields/gsmModem.c:872
    print_CSAS( );
   2:	f7ff fffe 	bl	0 <modem_smssave>
C:\Users\MightyDubster\Documents\Projects\pygmyos\profiles\nebula\shields/gsmModem.c:875
    
    return( TRUE );
}
   6:	f04f 0001 	mov.w	r0, #1
   a:	bd08      	pop	{r3, pc}

Disassembly of section .text.handler_ATOK:

00000000 <handler_ATOK>:
handler_ATOK():
C:\Users\MightyDubster\Documents\Projects\pygmyos\profiles\nebula\shields/gsmModem.c:915

    return( 0 );
}

u8 handler_ATOK( u8 *ucBuffer )
{
   0:	b508      	push	{r3, lr}
C:\Users\MightyDubster\Documents\Projects\pygmyos\profiles\nebula\shields/gsmModem.c:920
    // Waits for OK response
    // Returns TRUE for "OK" FALSE for anything else
    u8 *ucSubString;

    ucSubString = getNextSubString( ucBuffer, WHITESPACE|PUNCT );
   2:	f04f 0103 	mov.w	r1, #3
   6:	f7ff fffe 	bl	0 <getNextSubString>
C:\Users\MightyDubster\Documents\Projects\pygmyos\profiles\nebula\shields/gsmModem.c:921
    if( ucSubString && isStringSame( ucSubString, (u8*)AT_OK ) ){
   a:	b130      	cbz	r0, 1a <handler_ATOK+0x1a>
   c:	4904      	ldr	r1, [pc, #16]	; (20 <handler_ATOK+0x20>)
   e:	f7ff fffe 	bl	0 <isStringSame>
C:\Users\MightyDubster\Documents\Projects\pygmyos\profiles\nebula\shields/gsmModem.c:922
        return( TRUE );
  12:	3800      	subs	r0, #0
  14:	bf18      	it	ne
  16:	2001      	movne	r0, #1
  18:	bd08      	pop	{r3, pc}
C:\Users\MightyDubster\Documents\Projects\pygmyos\profiles\nebula\shields/gsmModem.c:925
    }

    return( FALSE );
  1a:	f04f 0000 	mov.w	r0, #0
C:\Users\MightyDubster\Documents\Projects\pygmyos\profiles\nebula\shields/gsmModem.c:926
}
  1e:	bd08      	pop	{r3, pc}
  20:	000000d4 	.word	0x000000d4

Disassembly of section .text.handler_HTTP:

00000000 <handler_HTTP>:
handler_HTTP():
C:\Users\MightyDubster\Documents\Projects\pygmyos\profiles\nebula\shields/gsmModem.c:933
u8 handler_HTTP( u8 *ucBuffer )
{
    // AT GET is the main() of the cell functions, it processes the HTTP transactions
    
    return( FALSE );
}
   0:	f04f 0000 	mov.w	r0, #0
   4:	4770      	bx	lr
   6:	bf00      	nop

Disassembly of section .text.handler_ATCMGF:

00000000 <handler_ATCMGF>:
handler_ATCMGF():
C:\Users\MightyDubster\Documents\Projects\pygmyos\profiles\nebula\shields/gsmModem.c:1068
    
    return( TRUE );
}

u8 handler_ATCMGF( u8 *ucBuffer )
{
   0:	b508      	push	{r3, lr}
C:\Users\MightyDubster\Documents\Projects\pygmyos\profiles\nebula\shields/gsmModem.c:1071
    u8 *ucParam;

    ucParam = getNextSubString( ucBuffer, WHITESPACE|PUNCT|SEPARATORS );
   2:	f04f 010b 	mov.w	r1, #11
   6:	f7ff fffe 	bl	0 <getNextSubString>
C:\Users\MightyDubster\Documents\Projects\pygmyos\profiles\nebula\shields/gsmModem.c:1073
    //print( MODEM_COM, "\rATCMGF( %s )", ucParam );
    if( isStringSame( ucParam, (u8*)AT_OK ) ){
   a:	4903      	ldr	r1, [pc, #12]	; (10 <isStringSame+0x10>)
   c:	f7ff fffe 	bl	0 <isStringSame>
C:\Users\MightyDubster\Documents\Projects\pygmyos\profiles\nebula\shields/gsmModem.c:1078
        return( TRUE );
    } // if

    return( FALSE );
}
  10:	3800      	subs	r0, #0
  12:	bf18      	it	ne
  14:	2001      	movne	r0, #1
  16:	bd08      	pop	{r3, pc}
  18:	000000d4 	.word	0x000000d4

Disassembly of section .text.handler_ATAT:

00000000 <handler_ATAT>:
handler_ATAT():
C:\Users\MightyDubster\Documents\Projects\pygmyos\profiles\nebula\shields/gsmModem.c:1081

u8 handler_ATAT( u8 *ucBuffer )
{
   0:	b510      	push	{r4, lr}
C:\Users\MightyDubster\Documents\Projects\pygmyos\profiles\nebula\shields/gsmModem.c:1084
    u8 *ucSubString;
    
    ucSubString = getNextSubString( ucBuffer, WHITESPACE|PUNCT );
   2:	f04f 0103 	mov.w	r1, #3
   6:	f7ff fffe 	bl	0 <getNextSubString>
C:\Users\MightyDubster\Documents\Projects\pygmyos\profiles\nebula\shields/gsmModem.c:1085
    if( ucSubString ){
   a:	4604      	mov	r4, r0
   c:	b300      	cbz	r0, 50 <handler_ATAT+0x50>
C:\Users\MightyDubster\Documents\Projects\pygmyos\profiles\nebula\shields/gsmModem.c:1086
        if( isStringSame( ucSubString, (u8*)AT_OK ) ||
   e:	4913      	ldr	r1, [pc, #76]	; (5c <handler_ATAT+0x5c>)
  10:	f7ff fffe 	bl	0 <isStringSame>
  14:	b948      	cbnz	r0, 2a <handler_ATAT+0x2a>
C:\Users\MightyDubster\Documents\Projects\pygmyos\profiles\nebula\shields/gsmModem.c:1087
            isStringSame( ucSubString, (u8*)AT_ERROR ) || 
  16:	4620      	mov	r0, r4
  18:	4911      	ldr	r1, [pc, #68]	; (60 <handler_ATAT+0x60>)
  1a:	f7ff fffe 	bl	0 <isStringSame>
C:\Users\MightyDubster\Documents\Projects\pygmyos\profiles\nebula\shields/gsmModem.c:1086
{
    u8 *ucSubString;
    
    ucSubString = getNextSubString( ucBuffer, WHITESPACE|PUNCT );
    if( ucSubString ){
        if( isStringSame( ucSubString, (u8*)AT_OK ) ||
  1e:	b920      	cbnz	r0, 2a <handler_ATAT+0x2a>
C:\Users\MightyDubster\Documents\Projects\pygmyos\profiles\nebula\shields/gsmModem.c:1088
            isStringSame( ucSubString, (u8*)AT_ERROR ) || 
            isStringSame( ucSubString, (u8*)AT_MWI ) ){
  20:	4620      	mov	r0, r4
  22:	4910      	ldr	r1, [pc, #64]	; (64 <handler_ATAT+0x64>)
  24:	f7ff fffe 	bl	0 <isStringSame>
C:\Users\MightyDubster\Documents\Projects\pygmyos\profiles\nebula\shields/gsmModem.c:1087
    u8 *ucSubString;
    
    ucSubString = getNextSubString( ucBuffer, WHITESPACE|PUNCT );
    if( ucSubString ){
        if( isStringSame( ucSubString, (u8*)AT_OK ) ||
            isStringSame( ucSubString, (u8*)AT_ERROR ) || 
  28:	b1a8      	cbz	r0, 56 <handler_ATAT+0x56>
C:\Users\MightyDubster\Documents\Projects\pygmyos\profiles\nebula\shields/gsmModem.c:1089
            isStringSame( ucSubString, (u8*)AT_MWI ) ){
            print( MODEM_COM, "\rRadio On\r" );
  2a:	f04f 0001 	mov.w	r0, #1
  2e:	f240 0100 	movw	r1, #0
  32:	f2c0 0100 	movt	r1, #0
  36:	f7ff fffe 	bl	0 <print>
C:\Users\MightyDubster\Documents\Projects\pygmyos\profiles\nebula\shields/gsmModem.c:1090
            deleteTask( "AT", 0 );
  3a:	f240 0000 	movw	r0, #0
  3e:	f2c0 0000 	movt	r0, #0
  42:	f04f 0100 	mov.w	r1, #0
  46:	f7ff fffe 	bl	0 <deleteTask>
C:\Users\MightyDubster\Documents\Projects\pygmyos\profiles\nebula\shields/gsmModem.c:1092
        
            return( TRUE );
  4a:	f04f 0001 	mov.w	r0, #1
  4e:	bd10      	pop	{r4, pc}
C:\Users\MightyDubster\Documents\Projects\pygmyos\profiles\nebula\shields/gsmModem.c:1096
        } // if
    } // if
    
    return( FALSE );
  50:	f04f 0000 	mov.w	r0, #0
  54:	bd10      	pop	{r4, pc}
  56:	f04f 0000 	mov.w	r0, #0
C:\Users\MightyDubster\Documents\Projects\pygmyos\profiles\nebula\shields/gsmModem.c:1097
}
  5a:	bd10      	pop	{r4, pc}
  5c:	000000d4 	.word	0x000000d4
  60:	000000d8 	.word	0x000000d8
  64:	0000015c 	.word	0x0000015c

Disassembly of section .text.handler_ATATOFF:

00000000 <handler_ATATOFF>:
handler_ATATOFF():
C:\Users\MightyDubster\Documents\Projects\pygmyos\profiles\nebula\shields/gsmModem.c:1100

u8 handler_ATATOFF( u8 *ucBuffer )
{
   0:	b508      	push	{r3, lr}
C:\Users\MightyDubster\Documents\Projects\pygmyos\profiles\nebula\shields/gsmModem.c:1103
    u8 *ucSubString;

    ucSubString = getNextSubString( ucBuffer, WHITESPACE|NEWLINE );
   2:	f04f 0106 	mov.w	r1, #6
   6:	f7ff fffe 	bl	0 <getNextSubString>
C:\Users\MightyDubster\Documents\Projects\pygmyos\profiles\nebula\shields/gsmModem.c:1110
        // cell_onoff( "" );
        return( TRUE ); // if cell responded then it's not off yet
    }

    return( FALSE ); 
}
   a:	3800      	subs	r0, #0
   c:	bf18      	it	ne
   e:	2001      	movne	r0, #1
  10:	bd08      	pop	{r3, pc}
  12:	bf00      	nop

Disassembly of section .text.handler_ATCSDH:

00000000 <handler_ATCSDH>:
handler_ATCSDH():
C:\Users\MightyDubster\Documents\Projects\pygmyos\profiles\nebula\shields/gsmModem.c:1229

u8 handler_ATCSDH( u8 *ucBuffer )
{

    return( TRUE );
}
   0:	f04f 0001 	mov.w	r0, #1
   4:	4770      	bx	lr
   6:	bf00      	nop

Disassembly of section .text.handler_ATCMGR:

00000000 <handler_ATCMGR>:
handler_ATCMGR():
C:\Users\MightyDubster\Documents\Projects\pygmyos\profiles\nebula\shields/gsmModem.c:1239

    //ucParam = getNextSubString( ucBuffer, NEWLINE );
    //print( MODEM_DEBUG, "SMS( %s )", ucParam );

    return( TRUE );
}
   0:	f04f 0001 	mov.w	r0, #1
   4:	4770      	bx	lr
   6:	bf00      	nop

Disassembly of section .text.handler_ATCMGD:

00000000 <handler_ATCMGD>:
handler_ATCMGD():
C:\Users\MightyDubster\Documents\Projects\pygmyos\profiles\nebula\shields/gsmModem.c:1245

u8 handler_ATCMGD( u8 *ucBuffer )
{

    return( TRUE );
}
   0:	f04f 0001 	mov.w	r0, #1
   4:	4770      	bx	lr
   6:	bf00      	nop

Disassembly of section .text.handler_ATCMGL:

00000000 <handler_ATCMGL>:
handler_ATCMGL():
C:\Users\MightyDubster\Documents\Projects\pygmyos\profiles\nebula\shields/gsmModem.c:1248

u8 handler_ATCMGL( u8 *ucBuffer )
{
   0:	b508      	push	{r3, lr}
C:\Users\MightyDubster\Documents\Projects\pygmyos\profiles\nebula\shields/gsmModem.c:1249
    print( MODEM_DEBUG, "SMS( %s )", getNextSubString( ucBuffer, NEWLINE ) );
   2:	f04f 0104 	mov.w	r1, #4
   6:	f7ff fffe 	bl	0 <getNextSubString>
   a:	4602      	mov	r2, r0
   c:	f04f 0002 	mov.w	r0, #2
  10:	f240 0100 	movw	r1, #0
  14:	f2c0 0100 	movt	r1, #0
  18:	f7ff fffe 	bl	0 <print>
C:\Users\MightyDubster\Documents\Projects\pygmyos\profiles\nebula\shields/gsmModem.c:1252

    return( TRUE );
}
  1c:	f04f 0001 	mov.w	r0, #1
  20:	bd08      	pop	{r3, pc}
  22:	bf00      	nop

Disassembly of section .text.print_AT:

00000000 <print_AT>:
print_AT():
C:\Users\MightyDubster\Documents\Projects\pygmyos\profiles\nebula\shields/gsmModem.c:1261

//---------------------------------------Print Handlers---------------------------------------
//--------------------------------------------------------------------------------------------

void print_AT( void )
{
   0:	b508      	push	{r3, lr}
C:\Users\MightyDubster\Documents\Projects\pygmyos\profiles\nebula\shields/gsmModem.c:1265
    // If modem is working this will return promptly with OK
    // This command is only to test communications
    // If modem doesn't respond within 1 second power cycle
    print( MODEM_COM, "ATE0&W\r" );
   2:	f04f 0001 	mov.w	r0, #1
   6:	f240 0100 	movw	r1, #0
   a:	f2c0 0100 	movt	r1, #0
   e:	f7ff fffe 	bl	0 <print>
C:\Users\MightyDubster\Documents\Projects\pygmyos\profiles\nebula\shields/gsmModem.c:1266
}
  12:	bd08      	pop	{r3, pc}

Disassembly of section .text.print_CMGF:

00000000 <print_CMGF>:
print_CMGF():
C:\Users\MightyDubster\Documents\Projects\pygmyos\profiles\nebula\shields/gsmModem.c:1281
    //streamSetActionChars( MODEM_COM, "\r>" );
    print( MODEM_COM, "%s%s", globalModemSMS.Message, (u8*)AT_CTRLZ );
}

void print_CMGF( void )
{
   0:	b508      	push	{r3, lr}
C:\Users\MightyDubster\Documents\Projects\pygmyos\profiles\nebula\shields/gsmModem.c:1282
    print( MODEM_COM, "%sAT+CMGF=1\r", (u8*)AT_CTRLZ );
   2:	f04f 0001 	mov.w	r0, #1
   6:	f240 0100 	movw	r1, #0
   a:	f2c0 0100 	movt	r1, #0
   e:	4a02      	ldr	r2, [pc, #8]	; (c <print+0xc>)
  10:	f7ff fffe 	bl	0 <print>
C:\Users\MightyDubster\Documents\Projects\pygmyos\profiles\nebula\shields/gsmModem.c:1283
}
  14:	bd08      	pop	{r3, pc}
  16:	bf00      	nop
  18:	000000d0 	.word	0x000000d0

Disassembly of section .text.print_pftp_getlen:

00000000 <print_pftp_getlen>:
print_pftp_getlen():
C:\Users\MightyDubster\Documents\Projects\pygmyos\profiles\nebula\shields/gsmModem.c:1424
{
    // This page left blank intentionally :)
}

void print_pftp_getlen( void )
{
   0:	b508      	push	{r3, lr}
C:\Users\MightyDubster\Documents\Projects\pygmyos\profiles\nebula\shields/gsmModem.c:1425
    print_pftp_GET();
   2:	f7ff fffe 	bl	0 <print_pftp_GET>
C:\Users\MightyDubster\Documents\Projects\pygmyos\profiles\nebula\shields/gsmModem.c:1427
    // Any payload for CGI goes here
    print( MODEM_COM, "getlen=%s", globalModemPFTP.File.Name);
   6:	f04f 0001 	mov.w	r0, #1
   a:	f240 0100 	movw	r1, #0
   e:	f2c0 0100 	movt	r1, #0
  12:	4a03      	ldr	r2, [pc, #12]	; (10 <print+0x10>)
  14:	f7ff fffe 	bl	0 <print>
C:\Users\MightyDubster\Documents\Projects\pygmyos\profiles\nebula\shields/gsmModem.c:1429
    // End Payload for CGI   
    print_HTTP_GET_secondhalf();
  18:	f7ff fffe 	bl	0 <print_HTTP_GET_secondhalf>
C:\Users\MightyDubster\Documents\Projects\pygmyos\profiles\nebula\shields/gsmModem.c:1430
}
  1c:	bd08      	pop	{r3, pc}
  1e:	bf00      	nop
  20:	00000020 	.word	0x00000020

Disassembly of section .text.print_ATCMGR:

00000000 <print_ATCMGR>:
print_ATCMGR():
C:\Users\MightyDubster\Documents\Projects\pygmyos\profiles\nebula\shields/gsmModem.c:1458
{
    print( MODEM_COM, (u8*)AT_ESCAPE );
}

void print_ATCMGR( void )
{
   0:	b508      	push	{r3, lr}
C:\Users\MightyDubster\Documents\Projects\pygmyos\profiles\nebula\shields/gsmModem.c:1459
    print( MODEM_COM, "AT+CMGR=1\r" );
   2:	f04f 0001 	mov.w	r0, #1
   6:	f240 0100 	movw	r1, #0
   a:	f2c0 0100 	movt	r1, #0
   e:	f7ff fffe 	bl	0 <print>
C:\Users\MightyDubster\Documents\Projects\pygmyos\profiles\nebula\shields/gsmModem.c:1460
}
  12:	bd08      	pop	{r3, pc}

Disassembly of section .text.modem_smsread:

00000000 <modem_smsread>:
modem_smsread():
C:\Users\MightyDubster\Documents\Projects\pygmyos\profiles\nebula\shields/gsmModem.c:808
    
    return( TRUE );
}

u8 modem_smsread( u8 *ucBuffer )
{
   0:	b508      	push	{r3, lr}
C:\Users\MightyDubster\Documents\Projects\pygmyos\profiles\nebula\shields/gsmModem.c:826
    pygmyCmd.Retry = 1;

    cmdQueue( &globalModemQueue, &pygmyCmd2 );
    cmdQueue( &globalModemQueue, &pygmyCmd );
    */
    print_ATCMGR();
   2:	f7ff fffe 	bl	0 <modem_smsread>
C:\Users\MightyDubster\Documents\Projects\pygmyos\profiles\nebula\shields/gsmModem.c:829
    
    return( TRUE );
}
   6:	f04f 0001 	mov.w	r0, #1
   a:	bd08      	pop	{r3, pc}

Disassembly of section .text.print_ATCMGD:

00000000 <print_ATCMGD>:
print_ATCMGD():
C:\Users\MightyDubster\Documents\Projects\pygmyos\profiles\nebula\shields/gsmModem.c:1463
{
    print( MODEM_COM, "AT+CMGR=1\r" );
}

void print_ATCMGD( void )
{
   0:	b508      	push	{r3, lr}
C:\Users\MightyDubster\Documents\Projects\pygmyos\profiles\nebula\shields/gsmModem.c:1468
    // index, flag, flag values follow:
    // 0, delete message at index
    // 1,2 delete all read messages
    // 3, delete all messages
    print( MODEM_COM, "AT+CMGD=1,4\r" );
   2:	f04f 0001 	mov.w	r0, #1
   6:	f240 0100 	movw	r1, #0
   a:	f2c0 0100 	movt	r1, #0
   e:	f7ff fffe 	bl	0 <print>
C:\Users\MightyDubster\Documents\Projects\pygmyos\profiles\nebula\shields/gsmModem.c:1469
}
  12:	bd08      	pop	{r3, pc}

Disassembly of section .text.print_ATCMGL:

00000000 <print_ATCMGL>:
print_ATCMGL():
C:\Users\MightyDubster\Documents\Projects\pygmyos\profiles\nebula\shields/gsmModem.c:1472

void print_ATCMGL( void )
{
   0:	b508      	push	{r3, lr}
C:\Users\MightyDubster\Documents\Projects\pygmyos\profiles\nebula\shields/gsmModem.c:1473
    print( MODEM_COM, "AT+CMGL\r" );
   2:	f04f 0001 	mov.w	r0, #1
   6:	f240 0100 	movw	r1, #0
   a:	f2c0 0100 	movt	r1, #0
   e:	f7ff fffe 	bl	0 <print>
C:\Users\MightyDubster\Documents\Projects\pygmyos\profiles\nebula\shields/gsmModem.c:1474
}
  12:	bd08      	pop	{r3, pc}

Disassembly of section .text.modem_smslist:

00000000 <modem_smslist>:
modem_smslist():
C:\Users\MightyDubster\Documents\Projects\pygmyos\profiles\nebula\shields/gsmModem.c:855

    return( FALSE );
}

u8 modem_smslist( u8 *ucBuffer )
{
   0:	b508      	push	{r3, lr}
C:\Users\MightyDubster\Documents\Projects\pygmyos\profiles\nebula\shields/gsmModem.c:865
    pygmyCmd.EventHandler = handler_ATCMGL;
    pygmyCmd.Expire = 15;
    pygmyCmd.Retry = 1;
    cmdQueue( &globalModemQueue, &pygmyCmd );
    */
    print_ATCMGL();
   2:	f7ff fffe 	bl	0 <modem_smslist>
C:\Users\MightyDubster\Documents\Projects\pygmyos\profiles\nebula\shields/gsmModem.c:868

    return( TRUE );
}
   6:	f04f 0001 	mov.w	r0, #1
   a:	bd08      	pop	{r3, pc}

Disassembly of section .text.print_ATCSDH:

00000000 <print_ATCSDH>:
print_ATCSDH():
C:\Users\MightyDubster\Documents\Projects\pygmyos\profiles\nebula\shields/gsmModem.c:1477
{
    print( MODEM_COM, "AT+CMGL\r" );
}

void print_ATCSDH( void )
{
   0:	b508      	push	{r3, lr}
C:\Users\MightyDubster\Documents\Projects\pygmyos\profiles\nebula\shields/gsmModem.c:1478
    print( MODEM_COM, "AT+CSDH=1\r" );
   2:	f04f 0001 	mov.w	r0, #1
   6:	f240 0100 	movw	r1, #0
   a:	f2c0 0100 	movt	r1, #0
   e:	f7ff fffe 	bl	0 <print>
C:\Users\MightyDubster\Documents\Projects\pygmyos\profiles\nebula\shields/gsmModem.c:1479
}
  12:	bd08      	pop	{r3, pc}
