
C:\Users\MightyDubster\Documents\Projects\pygmyos.code\FileTest\pygmy_cmd.o:     file format elf32-littlearm
C:\Users\MightyDubster\Documents\Projects\pygmyos.code\FileTest\pygmy_cmd.o


Disassembly of section .text.cmdNull:

00000000 <cmdNull>:
cmdNull():
C:\Users\MightyDubster\Documents\Projects\pygmyos\core/pygmy_cmd.c:266
}

u8 cmdNull( u8 *ucBuffer )
{
    return( 0 ); // No command, return error
}
   0:	2000      	movs	r0, #0
   2:	4770      	bx	lr

Disassembly of section .text.cmd_reset:

00000000 <cmd_reset>:
cmd_reset():
C:\Users\MightyDubster\Documents\Projects\pygmyos\core/pygmy_cmd.c:270

u8 cmd_reset( u8 *ucBuffer )
{
    PYGMY_RESET;
   0:	4a02      	ldr	r2, [pc, #8]	; (c <cmd_reset+0xc>)
   2:	4b03      	ldr	r3, [pc, #12]	; (10 <cmd_reset+0x10>)
C:\Users\MightyDubster\Documents\Projects\pygmyos\core/pygmy_cmd.c:273

    return( 0 ); // If reached, error has occurred
}
   4:	2000      	movs	r0, #0
C:\Users\MightyDubster\Documents\Projects\pygmyos\core/pygmy_cmd.c:270
    return( 0 ); // No command, return error
}

u8 cmd_reset( u8 *ucBuffer )
{
    PYGMY_RESET;
   6:	60da      	str	r2, [r3, #12]
C:\Users\MightyDubster\Documents\Projects\pygmyos\core/pygmy_cmd.c:273

    return( 0 ); // If reached, error has occurred
}
   8:	4770      	bx	lr
   a:	bf00      	nop
   c:	05fa0004 	.word	0x05fa0004
  10:	e000ed00 	.word	0xe000ed00

Disassembly of section .text.cmd_peek:

00000000 <cmd_peek>:
cmd_peek():
C:\Users\MightyDubster\Documents\Projects\pygmyos\core/pygmy_cmd.c:279

u8 cmd_peek( u8 *ucBuffer )
{

    return( 0 );
}
   0:	2000      	movs	r0, #0
   2:	4770      	bx	lr

Disassembly of section .text.cmd_poke:

00000000 <cmd_poke>:
cmd_poke():
C:\Users\MightyDubster\Documents\Projects\pygmyos\core/pygmy_cmd.c:285

u8 cmd_poke( u8 *ucBuffer )
{

    return( 0 );
}
   0:	2000      	movs	r0, #0
   2:	4770      	bx	lr

Disassembly of section .text.cmd_rfsend:

00000000 <cmd_rfsend>:
cmd_rfsend():
C:\Users\MightyDubster\Documents\Projects\pygmyos\core/pygmy_cmd.c:837

    return( 1 );
}

u8 cmd_rfsend( u8 *ucBuffer )
{
   0:	b508      	push	{r3, lr}
C:\Users\MightyDubster\Documents\Projects\pygmyos\core/pygmy_cmd.c:840
    u8 *ucParam;
    
    ucParam = getNextSubString( ucBuffer, NEWLINE );
   2:	2104      	movs	r1, #4
   4:	f7ff fffe 	bl	0 <getNextSubString>
C:\Users\MightyDubster\Documents\Projects\pygmyos\core/pygmy_cmd.c:841
    if( ucParam ){
   8:	b108      	cbz	r0, 6 <rfPutString+0x6>
C:\Users\MightyDubster\Documents\Projects\pygmyos\core/pygmy_cmd.c:842
        rfPutString( ucParam );
   a:	f7ff fffe 	bl	0 <rfPutString>
C:\Users\MightyDubster\Documents\Projects\pygmyos\core/pygmy_cmd.c:846
    } // if

    return( 1 );
}
   e:	2001      	movs	r0, #1
  10:	bd08      	pop	{r3, pc}

Disassembly of section .text.cmd_rfopen:

00000000 <cmd_rfopen>:
cmd_rfopen():
C:\Users\MightyDubster\Documents\Projects\pygmyos\core/pygmy_cmd.c:818
    
    return( 0 );
}

u8 cmd_rfopen( u8 *ucBuffer )
{
   0:	b508      	push	{r3, lr}
C:\Users\MightyDubster\Documents\Projects\pygmyos\core/pygmy_cmd.c:822
    u32 ulID;
    u8 ucSocket;

    ulID = rfGetID();
   2:	f7ff fffe 	bl	0 <rfGetID>
C:\Users\MightyDubster\Documents\Projects\pygmyos\core/pygmy_cmd.c:823
    if( ulID == 0x41B40AA8 ){
   6:	4b08      	ldr	r3, [pc, #32]	; (28 <cmd_rfopen+0x28>)
   8:	4298      	cmp	r0, r3
C:\Users\MightyDubster\Documents\Projects\pygmyos\core/pygmy_cmd.c:824
        ucSocket = rfOpenSocket( 0x1FC60435, RF_COMLINK );
   a:	bf0c      	ite	eq
   c:	4807      	ldreq	r0, [pc, #28]	; (2c <cmd_rfopen+0x2c>)
C:\Users\MightyDubster\Documents\Projects\pygmyos\core/pygmy_cmd.c:826
    } else {
        ucSocket = rfOpenSocket( 0x41B40AA8, RF_COMLINK );
   e:	4618      	movne	r0, r3
  10:	2101      	movs	r1, #1
  12:	f7ff fffe 	bl	0 <rfOpenSocket>
C:\Users\MightyDubster\Documents\Projects\pygmyos\core/pygmy_cmd.c:828
    } // else
    if( ucSocket == 0xFF ){
  16:	28ff      	cmp	r0, #255	; 0xff
  18:	d003      	beq.n	22 <cmd_rfopen+0x22>
C:\Users\MightyDubster\Documents\Projects\pygmyos\core/pygmy_cmd.c:831
        return( 0 );
    } // if
    rfSendOpenCommand( ucSocket );
  1a:	f7ff fffe 	bl	0 <rfSendOpenCommand>
C:\Users\MightyDubster\Documents\Projects\pygmyos\core/pygmy_cmd.c:833

    return( 1 );
  1e:	2001      	movs	r0, #1
  20:	bd08      	pop	{r3, pc}
C:\Users\MightyDubster\Documents\Projects\pygmyos\core/pygmy_cmd.c:829
        ucSocket = rfOpenSocket( 0x1FC60435, RF_COMLINK );
    } else {
        ucSocket = rfOpenSocket( 0x41B40AA8, RF_COMLINK );
    } // else
    if( ucSocket == 0xFF ){
        return( 0 );
  22:	2000      	movs	r0, #0
C:\Users\MightyDubster\Documents\Projects\pygmyos\core/pygmy_cmd.c:834
    } // if
    rfSendOpenCommand( ucSocket );

    return( 1 );
}
  24:	bd08      	pop	{r3, pc}
  26:	bf00      	nop
  28:	41b40aa8 	.word	0x41b40aa8
  2c:	1fc60435 	.word	0x1fc60435

Disassembly of section .text.cmd_write:

00000000 <cmd_write>:
cmd_write():
C:\Users\MightyDubster\Documents\Projects\pygmyos\core/pygmy_cmd.c:513

    return( 0 );
}

u8 cmd_write( u8 *ucBuffer )
{
   0:	4601      	mov	r1, r0
   2:	b508      	push	{r3, lr}
C:\Users\MightyDubster\Documents\Projects\pygmyos\core/pygmy_cmd.c:514
    print( FILE, ucBuffer );
   4:	2002      	movs	r0, #2
   6:	f7ff fffe 	bl	0 <print>
C:\Users\MightyDubster\Documents\Projects\pygmyos\core/pygmy_cmd.c:517

    return( 1 );
}
   a:	2001      	movs	r0, #1
   c:	bd08      	pop	{r3, pc}

Disassembly of section .text.cmd_pinconfig:

00000000 <cmd_pinconfig>:
cmd_pinconfig():
C:\Users\MightyDubster\Documents\Projects\pygmyos\core/pygmy_cmd.c:436

    return( TRUE );
}

u8 cmd_pinconfig( u8 *ucBuffer )
{
   0:	b537      	push	{r0, r1, r2, r4, r5, lr}
C:\Users\MightyDubster\Documents\Projects\pygmyos\core/pygmy_cmd.c:439
    u8 *ucParams[ 2 ], ucPin, ucMode;

    getAllSubStrings( ucBuffer, ucParams, 2, WHITESPACE );
   2:	2202      	movs	r2, #2
   4:	4669      	mov	r1, sp
   6:	4613      	mov	r3, r2
   8:	f7ff fffe 	bl	0 <getAllSubStrings>
C:\Users\MightyDubster\Documents\Projects\pygmyos\core/pygmy_cmd.c:440
    ucPin = convertStringToPin( ucParams[ 0 ] );
   c:	9800      	ldr	r0, [sp, #0]
   e:	f7ff fffe 	bl	0 <convertStringToPin>
C:\Users\MightyDubster\Documents\Projects\pygmyos\core/pygmy_cmd.c:441
    if( isStringSameIgnoreCase( ucParams[ 1 ], "in" ) ){
  12:	4914      	ldr	r1, [pc, #80]	; (64 <cmd_pinconfig+0x64>)
C:\Users\MightyDubster\Documents\Projects\pygmyos\core/pygmy_cmd.c:440
u8 cmd_pinconfig( u8 *ucBuffer )
{
    u8 *ucParams[ 2 ], ucPin, ucMode;

    getAllSubStrings( ucBuffer, ucParams, 2, WHITESPACE );
    ucPin = convertStringToPin( ucParams[ 0 ] );
  14:	4605      	mov	r5, r0
C:\Users\MightyDubster\Documents\Projects\pygmyos\core/pygmy_cmd.c:441
    if( isStringSameIgnoreCase( ucParams[ 1 ], "in" ) ){
  16:	9801      	ldr	r0, [sp, #4]
  18:	f7ff fffe 	bl	0 <isStringSameIgnoreCase>
  1c:	b9b0      	cbnz	r0, 4c <cmd_pinconfig+0x4c>
C:\Users\MightyDubster\Documents\Projects\pygmyos\core/pygmy_cmd.c:443
        ucMode = IN;
    } else if( isStringSameIgnoreCase( ucParams[ 1 ], "out" ) ){
  1e:	9801      	ldr	r0, [sp, #4]
  20:	4911      	ldr	r1, [pc, #68]	; (68 <cmd_pinconfig+0x68>)
  22:	f7ff fffe 	bl	0 <isStringSameIgnoreCase>
  26:	4604      	mov	r4, r0
  28:	b990      	cbnz	r0, 50 <cmd_pinconfig+0x50>
C:\Users\MightyDubster\Documents\Projects\pygmyos\core/pygmy_cmd.c:445
        ucMode = OUT;
    } else if( isStringSameIgnoreCase( ucParams[ 1 ], "analog" ) ){
  2a:	9801      	ldr	r0, [sp, #4]
  2c:	490f      	ldr	r1, [pc, #60]	; (6c <cmd_pinconfig+0x6c>)
  2e:	f7ff fffe 	bl	0 <isStringSameIgnoreCase>
  32:	b978      	cbnz	r0, 54 <cmd_pinconfig+0x54>
C:\Users\MightyDubster\Documents\Projects\pygmyos\core/pygmy_cmd.c:447
        ucMode = ANALOG;
    } else if( isStringSameIgnoreCase( ucParams[ 1 ], "pullup" ) ){
  34:	9801      	ldr	r0, [sp, #4]
  36:	490e      	ldr	r1, [pc, #56]	; (70 <cmd_pinconfig+0x70>)
  38:	f7ff fffe 	bl	0 <isStringSameIgnoreCase>
  3c:	b960      	cbnz	r0, 58 <cmd_pinconfig+0x58>
C:\Users\MightyDubster\Documents\Projects\pygmyos\core/pygmy_cmd.c:449
        ucMode = PULLUP;
    } else if( isStringSameIgnoreCase( ucParams[ 1 ], "pulldown" ) ){
  3e:	9801      	ldr	r0, [sp, #4]
  40:	490c      	ldr	r1, [pc, #48]	; (74 <cmd_pinconfig+0x74>)
  42:	f7ff fffe 	bl	0 <isStringSameIgnoreCase>
  46:	b160      	cbz	r0, 62 <cmd_pinconfig+0x62>
C:\Users\MightyDubster\Documents\Projects\pygmyos\core/pygmy_cmd.c:450
        ucMode = PULLDOWN;
  48:	2128      	movs	r1, #40	; 0x28
  4a:	e006      	b.n	5a <cmd_pinconfig+0x5a>
C:\Users\MightyDubster\Documents\Projects\pygmyos\core/pygmy_cmd.c:442
    u8 *ucParams[ 2 ], ucPin, ucMode;

    getAllSubStrings( ucBuffer, ucParams, 2, WHITESPACE );
    ucPin = convertStringToPin( ucParams[ 0 ] );
    if( isStringSameIgnoreCase( ucParams[ 1 ], "in" ) ){
        ucMode = IN;
  4c:	2104      	movs	r1, #4
  4e:	e004      	b.n	5a <cmd_pinconfig+0x5a>
C:\Users\MightyDubster\Documents\Projects\pygmyos\core/pygmy_cmd.c:444
    } else if( isStringSameIgnoreCase( ucParams[ 1 ], "out" ) ){
        ucMode = OUT;
  50:	2103      	movs	r1, #3
  52:	e002      	b.n	5a <cmd_pinconfig+0x5a>
C:\Users\MightyDubster\Documents\Projects\pygmyos\core/pygmy_cmd.c:446
    } else if( isStringSameIgnoreCase( ucParams[ 1 ], "analog" ) ){
        ucMode = ANALOG;
  54:	4621      	mov	r1, r4
  56:	e000      	b.n	5a <cmd_pinconfig+0x5a>
C:\Users\MightyDubster\Documents\Projects\pygmyos\core/pygmy_cmd.c:448
    } else if( isStringSameIgnoreCase( ucParams[ 1 ], "pullup" ) ){
        ucMode = PULLUP;
  58:	2118      	movs	r1, #24
C:\Users\MightyDubster\Documents\Projects\pygmyos\core/pygmy_cmd.c:454
    } else if( isStringSameIgnoreCase( ucParams[ 1 ], "pulldown" ) ){
        ucMode = PULLDOWN;
    } else{
        return( 0 );
    } // else
    pinConfig( ucPin, ucMode );
  5a:	4628      	mov	r0, r5
  5c:	f7ff fffe 	bl	0 <pinConfig>
C:\Users\MightyDubster\Documents\Projects\pygmyos\core/pygmy_cmd.c:456

    return( 1 );
  60:	2001      	movs	r0, #1
C:\Users\MightyDubster\Documents\Projects\pygmyos\core/pygmy_cmd.c:457
}
  62:	bd3e      	pop	{r1, r2, r3, r4, r5, pc}
  64:	00000000 	.word	0x00000000
  68:	00000003 	.word	0x00000003
  6c:	00000007 	.word	0x00000007
  70:	0000000e 	.word	0x0000000e
  74:	00000015 	.word	0x00000015

Disassembly of section .text.cmd_cp:

00000000 <cmd_cp>:
cmd_cp():
C:\Users\MightyDubster\Documents\Projects\pygmyos\core/pygmy_cmd.c:612

    return( fileRename( ucParams[ 1 ], ucParams[ 2 ] ) );
}

u8 cmd_cp( u8 *ucBuffer )
{
   0:	b507      	push	{r0, r1, r2, lr}
C:\Users\MightyDubster\Documents\Projects\pygmyos\core/pygmy_cmd.c:615
    u8 *ucParams[ 2 ];
    
    getAllSubStrings( ucBuffer, ucParams, 2, WHITESPACE );
   2:	2202      	movs	r2, #2
   4:	4669      	mov	r1, sp
   6:	4613      	mov	r3, r2
   8:	f7ff fffe 	bl	0 <getAllSubStrings>
C:\Users\MightyDubster\Documents\Projects\pygmyos\core/pygmy_cmd.c:616
    return( fileCopy( ucParams[ 0 ], ucParams[ 1 ] ) );
   c:	9800      	ldr	r0, [sp, #0]
   e:	9901      	ldr	r1, [sp, #4]
  10:	f7ff fffe 	bl	0 <fileCopy>
C:\Users\MightyDubster\Documents\Projects\pygmyos\core/pygmy_cmd.c:617
}
  14:	b2c0      	uxtb	r0, r0
  16:	bd0e      	pop	{r1, r2, r3, pc}

Disassembly of section .text.cmd_mv:

00000000 <cmd_mv>:
cmd_mv():
C:\Users\MightyDubster\Documents\Projects\pygmyos\core/pygmy_cmd.c:603

    return( fileOpen( pygmyFile, ucParams[ 0 ], ucMode ) );
}

u8 cmd_mv( u8 *ucBuffer )
{
   0:	b507      	push	{r0, r1, r2, lr}
C:\Users\MightyDubster\Documents\Projects\pygmyos\core/pygmy_cmd.c:606
    u8 *ucParams[ 2 ], *ucParam2;

    getAllSubStrings( ucBuffer, ucParams, 2, WHITESPACE );
   2:	2202      	movs	r2, #2
   4:	4669      	mov	r1, sp
   6:	4613      	mov	r3, r2
   8:	f7ff fffe 	bl	0 <getAllSubStrings>
C:\Users\MightyDubster\Documents\Projects\pygmyos\core/pygmy_cmd.c:608

    return( fileRename( ucParams[ 1 ], ucParams[ 2 ] ) );
   c:	9801      	ldr	r0, [sp, #4]
   e:	9902      	ldr	r1, [sp, #8]
  10:	f7ff fffe 	bl	0 <fileRename>
C:\Users\MightyDubster\Documents\Projects\pygmyos\core/pygmy_cmd.c:609
}
  14:	bd0e      	pop	{r1, r2, r3, pc}

Disassembly of section .text.cmd_open:

00000000 <cmd_open>:
cmd_open():
C:\Users\MightyDubster\Documents\Projects\pygmyos\core/pygmy_cmd.c:581

    return( TRUE );
}

u8 cmd_open( u8 *ucBuffer )
{
   0:	b513      	push	{r0, r1, r4, lr}
C:\Users\MightyDubster\Documents\Projects\pygmyos\core/pygmy_cmd.c:585
    PYGMYFILE *pygmyFile;
    u8 *ucParams[ 2 ], ucMode;
    
    getAllSubStrings( ucBuffer, ucParams, 2, WHITESPACE );
   2:	2202      	movs	r2, #2
   4:	4613      	mov	r3, r2
   6:	4669      	mov	r1, sp
   8:	f7ff fffe 	bl	0 <getAllSubStrings>
C:\Users\MightyDubster\Documents\Projects\pygmyos\core/pygmy_cmd.c:587
    
    if( ucParams[ 1 ][ 0 ] == '-' ){
   c:	9b01      	ldr	r3, [sp, #4]
   e:	781a      	ldrb	r2, [r3, #0]
  10:	2a2d      	cmp	r2, #45	; 0x2d
  12:	d101      	bne.n	18 <cmd_open+0x18>
C:\Users\MightyDubster\Documents\Projects\pygmyos\core/pygmy_cmd.c:588
        ++ucParams[ 1 ];
  14:	3301      	adds	r3, #1
  16:	9301      	str	r3, [sp, #4]
C:\Users\MightyDubster\Documents\Projects\pygmyos\core/pygmy_cmd.c:590
    } // if
    if( isCharInString( *ucParams[ 1 ], "rR" ) ){
  18:	9b01      	ldr	r3, [sp, #4]
  1a:	490f      	ldr	r1, [pc, #60]	; (58 <cmd_open+0x58>)
  1c:	7818      	ldrb	r0, [r3, #0]
  1e:	f7ff fffe 	bl	0 <isCharInString>
  22:	b978      	cbnz	r0, 44 <cmd_open+0x44>
C:\Users\MightyDubster\Documents\Projects\pygmyos\core/pygmy_cmd.c:592
        ucMode = READ;
    } else if( isCharInString( *ucParams[ 1 ], "aA" ) ){
  24:	9b01      	ldr	r3, [sp, #4]
  26:	490d      	ldr	r1, [pc, #52]	; (5c <cmd_open+0x5c>)
  28:	7818      	ldrb	r0, [r3, #0]
  2a:	f7ff fffe 	bl	0 <isCharInString>
  2e:	b958      	cbnz	r0, 48 <cmd_open+0x48>
C:\Users\MightyDubster\Documents\Projects\pygmyos\core/pygmy_cmd.c:594
        ucMode = APPEND;
    } else if( isCharInString( *ucParams[ 1 ], "wW" ) ){
  30:	9b01      	ldr	r3, [sp, #4]
  32:	490b      	ldr	r1, [pc, #44]	; (60 <cmd_open+0x60>)
  34:	7818      	ldrb	r0, [r3, #0]
  36:	f7ff fffe 	bl	0 <isCharInString>
C:\Users\MightyDubster\Documents\Projects\pygmyos\core/pygmy_cmd.c:595
        ucMode = WRITE;
  3a:	2800      	cmp	r0, #0
  3c:	bf14      	ite	ne
  3e:	2402      	movne	r4, #2
  40:	2400      	moveq	r4, #0
  42:	e002      	b.n	4a <cmd_open+0x4a>
C:\Users\MightyDubster\Documents\Projects\pygmyos\core/pygmy_cmd.c:591
    
    if( ucParams[ 1 ][ 0 ] == '-' ){
        ++ucParams[ 1 ];
    } // if
    if( isCharInString( *ucParams[ 1 ], "rR" ) ){
        ucMode = READ;
  44:	2401      	movs	r4, #1
  46:	e000      	b.n	4a <cmd_open+0x4a>
C:\Users\MightyDubster\Documents\Projects\pygmyos\core/pygmy_cmd.c:593
    } else if( isCharInString( *ucParams[ 1 ], "aA" ) ){
        ucMode = APPEND;
  48:	2404      	movs	r4, #4
C:\Users\MightyDubster\Documents\Projects\pygmyos\core/pygmy_cmd.c:597
    } else if( isCharInString( *ucParams[ 1 ], "wW" ) ){
        ucMode = WRITE;
    } // else if
    pygmyFile = ( PYGMYFILE *)sysGetFile();
  4a:	f7ff fffe 	bl	0 <sysGetFile>
C:\Users\MightyDubster\Documents\Projects\pygmyos\core/pygmy_cmd.c:599

    return( fileOpen( pygmyFile, ucParams[ 0 ], ucMode ) );
  4e:	9900      	ldr	r1, [sp, #0]
  50:	4622      	mov	r2, r4
  52:	f7ff fffe 	bl	0 <fileOpen>
C:\Users\MightyDubster\Documents\Projects\pygmyos\core/pygmy_cmd.c:600
}
  56:	bd1c      	pop	{r2, r3, r4, pc}
  58:	0000001e 	.word	0x0000001e
  5c:	00000021 	.word	0x00000021
  60:	00000024 	.word	0x00000024

Disassembly of section .text.cmd_close:

00000000 <cmd_close>:
cmd_close():
C:\Users\MightyDubster\Documents\Projects\pygmyos\core/pygmy_cmd.c:571
{
    return( fileDelete( getNextSubString( ucBuffer, WHITESPACE ) ) );
}

u8 cmd_close( u8 *ucBuffer )
{
   0:	b508      	push	{r3, lr}
C:\Users\MightyDubster\Documents\Projects\pygmyos\core/pygmy_cmd.c:574
    PYGMYFILE *pygmyFile;
    
    pygmyFile = ( PYGMYFILE *)sysGetFile();
   2:	f7ff fffe 	bl	0 <sysGetFile>
C:\Users\MightyDubster\Documents\Projects\pygmyos\core/pygmy_cmd.c:575
    fileClose( pygmyFile );
   6:	f7ff fffe 	bl	0 <fileClose>
C:\Users\MightyDubster\Documents\Projects\pygmyos\core/pygmy_cmd.c:578

    return( TRUE );
}
   a:	2001      	movs	r0, #1
   c:	bd08      	pop	{r3, pc}

Disassembly of section .text.cmd_rm:

00000000 <cmd_rm>:
cmd_rm():
C:\Users\MightyDubster\Documents\Projects\pygmyos\core/pygmy_cmd.c:566
    filePrintList( STDIO );
    return( 1 );
}

u8 cmd_rm( u8 *ucBuffer )
{
   0:	b510      	push	{r4, lr}
C:\Users\MightyDubster\Documents\Projects\pygmyos\core/pygmy_cmd.c:567
    return( fileDelete( getNextSubString( ucBuffer, WHITESPACE ) ) );
   2:	2102      	movs	r1, #2
   4:	f7ff fffe 	bl	0 <getNextSubString>
C:\Users\MightyDubster\Documents\Projects\pygmyos\core/pygmy_cmd.c:568
}
   8:	e8bd 4010 	ldmia.w	sp!, {r4, lr}
C:\Users\MightyDubster\Documents\Projects\pygmyos\core/pygmy_cmd.c:567
    return( 1 );
}

u8 cmd_rm( u8 *ucBuffer )
{
    return( fileDelete( getNextSubString( ucBuffer, WHITESPACE ) ) );
   c:	f7ff bffe 	b.w	0 <fileDelete>

Disassembly of section .text.cmd_ls:

00000000 <cmd_ls>:
cmd_ls():
C:\Users\MightyDubster\Documents\Projects\pygmyos\core/pygmy_cmd.c:561
            print( STDIO, "%d", fileGetLength( uiID ) );
        } // if
    } // for
    print( STDIO, "\rFree:           %d\r", fileGetFreeSpace() );
  */
    filePrintList( STDIO );
   0:	2000      	movs	r0, #0
C:\Users\MightyDubster\Documents\Projects\pygmyos\core/pygmy_cmd.c:544
    } // for

    return( 1 );
}*/
u8 cmd_ls( u8 *ucBuffer )
{
   2:	b508      	push	{r3, lr}
C:\Users\MightyDubster\Documents\Projects\pygmyos\core/pygmy_cmd.c:561
            print( STDIO, "%d", fileGetLength( uiID ) );
        } // if
    } // for
    print( STDIO, "\rFree:           %d\r", fileGetFreeSpace() );
  */
    filePrintList( STDIO );
   4:	f7ff fffe 	bl	0 <filePrintList>
C:\Users\MightyDubster\Documents\Projects\pygmyos\core/pygmy_cmd.c:563
    return( 1 );
}
   8:	2001      	movs	r0, #1
   a:	bd08      	pop	{r3, pc}

Disassembly of section .text.cmd_read:

00000000 <cmd_read>:
cmd_read():
C:\Users\MightyDubster\Documents\Projects\pygmyos\core/pygmy_cmd.c:483

    return( 1 );
}

u8 cmd_read( u8 *ucBuffer )
{
   0:	b530      	push	{r4, r5, lr}
C:\Users\MightyDubster\Documents\Projects\pygmyos\core/pygmy_cmd.c:488
    PYGMYFILE pygmyFile;
    u16 i;
    u8 *ucParam, ucChar;
    
    ucParam = getNextSubString( ucParam, WHITESPACE|NEWLINE );
   2:	2106      	movs	r1, #6
C:\Users\MightyDubster\Documents\Projects\pygmyos\core/pygmy_cmd.c:483

    return( 1 );
}

u8 cmd_read( u8 *ucBuffer )
{
   4:	b08b      	sub	sp, #44	; 0x2c
C:\Users\MightyDubster\Documents\Projects\pygmyos\core/pygmy_cmd.c:488
    PYGMYFILE pygmyFile;
    u16 i;
    u8 *ucParam, ucChar;
    
    ucParam = getNextSubString( ucParam, WHITESPACE|NEWLINE );
   6:	2000      	movs	r0, #0
   8:	f7ff fffe 	bl	0 <getNextSubString>
C:\Users\MightyDubster\Documents\Projects\pygmyos\core/pygmy_cmd.c:489
    if( ucParam && fileOpen( &pygmyFile, ucParam, READ ) ){
   c:	4601      	mov	r1, r0
   e:	2800      	cmp	r0, #0
  10:	d033      	beq.n	7a <cmd_read+0x7a>
  12:	4668      	mov	r0, sp
  14:	2201      	movs	r2, #1
  16:	f7ff fffe 	bl	0 <fileOpen>
  1a:	2800      	cmp	r0, #0
  1c:	d02d      	beq.n	7a <cmd_read+0x7a>
  1e:	2400      	movs	r4, #0
  20:	e025      	b.n	6e <cmd_read+0x6e>
C:\Users\MightyDubster\Documents\Projects\pygmyos\core/pygmy_cmd.c:491
        for( i = 0; !(pygmyFile.Attributes & EOF ); i++ ){
            ucChar = fileGetChar( &pygmyFile );
  22:	4668      	mov	r0, sp
  24:	f7ff fffe 	bl	0 <fileGetChar>
C:\Users\MightyDubster\Documents\Projects\pygmyos\core/pygmy_cmd.c:492
            if( !(pygmyFile.Attributes & EOF ) ){
  28:	f99d 3010 	ldrsb.w	r3, [sp, #16]
C:\Users\MightyDubster\Documents\Projects\pygmyos\core/pygmy_cmd.c:491
    u8 *ucParam, ucChar;
    
    ucParam = getNextSubString( ucParam, WHITESPACE|NEWLINE );
    if( ucParam && fileOpen( &pygmyFile, ucParam, READ ) ){
        for( i = 0; !(pygmyFile.Attributes & EOF ); i++ ){
            ucChar = fileGetChar( &pygmyFile );
  2c:	4605      	mov	r5, r0
C:\Users\MightyDubster\Documents\Projects\pygmyos\core/pygmy_cmd.c:492
            if( !(pygmyFile.Attributes & EOF ) ){
  2e:	2b00      	cmp	r3, #0
  30:	db1b      	blt.n	6a <cmd_read+0x6a>
C:\Users\MightyDubster\Documents\Projects\pygmyos\core/pygmy_cmd.c:494
                if( ucChar == '\r' ){
                    i = 0;
  32:	280d      	cmp	r0, #13
  34:	bf08      	it	eq
  36:	2400      	moveq	r4, #0
C:\Users\MightyDubster\Documents\Projects\pygmyos\core/pygmy_cmd.c:496
                } // if
                if( !( i % 80 ) ){
  38:	2350      	movs	r3, #80	; 0x50
  3a:	fbb4 f0f3 	udiv	r0, r4, r3
  3e:	fb03 4010 	mls	r0, r3, r0, r4
  42:	b280      	uxth	r0, r0
  44:	b910      	cbnz	r0, 4c <cmd_read+0x4c>
C:\Users\MightyDubster\Documents\Projects\pygmyos\core/pygmy_cmd.c:497
                    print( STDIO, "\r" );
  46:	490e      	ldr	r1, [pc, #56]	; (80 <cmd_read+0x80>)
  48:	f7ff fffe 	bl	0 <print>
C:\Users\MightyDubster\Documents\Projects\pygmyos\core/pygmy_cmd.c:499
                } // if
                if( ucChar != '\r' && ( ucChar < 32 || ucChar > 126 ) ){
  4c:	2d0d      	cmp	r5, #13
  4e:	d007      	beq.n	60 <cmd_read+0x60>
  50:	f1a5 0320 	sub.w	r3, r5, #32
  54:	b2db      	uxtb	r3, r3
  56:	2b5e      	cmp	r3, #94	; 0x5e
  58:	d902      	bls.n	60 <cmd_read+0x60>
C:\Users\MightyDubster\Documents\Projects\pygmyos\core/pygmy_cmd.c:500
                    print( STDIO, "(%d)", ucChar );
  5a:	2000      	movs	r0, #0
  5c:	4909      	ldr	r1, [pc, #36]	; (84 <cmd_read+0x84>)
  5e:	e001      	b.n	64 <cmd_read+0x64>
C:\Users\MightyDubster\Documents\Projects\pygmyos\core/pygmy_cmd.c:502
                } else{
                    print( STDIO, "%c", ucChar );
  60:	4909      	ldr	r1, [pc, #36]	; (88 <cmd_read+0x88>)
  62:	2000      	movs	r0, #0
  64:	462a      	mov	r2, r5
  66:	f7ff fffe 	bl	0 <print>
C:\Users\MightyDubster\Documents\Projects\pygmyos\core/pygmy_cmd.c:490
    u16 i;
    u8 *ucParam, ucChar;
    
    ucParam = getNextSubString( ucParam, WHITESPACE|NEWLINE );
    if( ucParam && fileOpen( &pygmyFile, ucParam, READ ) ){
        for( i = 0; !(pygmyFile.Attributes & EOF ); i++ ){
  6a:	3401      	adds	r4, #1
  6c:	b2a4      	uxth	r4, r4
  6e:	f99d 3010 	ldrsb.w	r3, [sp, #16]
  72:	2b00      	cmp	r3, #0
  74:	dad5      	bge.n	22 <cmd_read+0x22>
C:\Users\MightyDubster\Documents\Projects\pygmyos\core/pygmy_cmd.c:506
                } else{
                    print( STDIO, "%c", ucChar );
                } // else
            } // if
        } // 
        return( 1 );
  76:	2001      	movs	r0, #1
  78:	e7ff      	b.n	7a <cmd_read+0x7a>
C:\Users\MightyDubster\Documents\Projects\pygmyos\core/pygmy_cmd.c:510
    } // if

    return( 0 );
}
  7a:	b00b      	add	sp, #44	; 0x2c
  7c:	bd30      	pop	{r4, r5, pc}
  7e:	bf00      	nop
  80:	00000027 	.word	0x00000027
  84:	00000029 	.word	0x00000029
  88:	0000002e 	.word	0x0000002e

Disassembly of section .text.cmd_format:

00000000 <cmd_format>:
cmd_format():
C:\Users\MightyDubster\Documents\Projects\pygmyos\core/pygmy_cmd.c:473
    
    return( 0 );
}

u8 cmd_format( u8 *ucBuffer )
{
   0:	b508      	push	{r3, lr}
C:\Users\MightyDubster\Documents\Projects\pygmyos\core/pygmy_cmd.c:476
    u8 *ucParam;
    
    ucParam = getNextSubString( ucBuffer, WHITESPACE );
   2:	2102      	movs	r1, #2
   4:	f7ff fffe 	bl	0 <getNextSubString>
C:\Users\MightyDubster\Documents\Projects\pygmyos\core/pygmy_cmd.c:477
    fileFormat( ucParam );
   8:	f7ff fffe 	bl	0 <fileFormat>
C:\Users\MightyDubster\Documents\Projects\pygmyos\core/pygmy_cmd.c:480

    return( 1 );
}
   c:	2001      	movs	r0, #1
   e:	bd08      	pop	{r3, pc}

Disassembly of section .text.cmd_mnt:

00000000 <cmd_mnt>:
cmd_mnt():
C:\Users\MightyDubster\Documents\Projects\pygmyos\core/pygmy_cmd.c:466

//------------------------------------Basic File Commands-------------------------------------
//--------------------------------------------------------------------------------------------
#ifdef __PYGMYSTREAMFILE
u8 cmd_mnt( u8 *ucBuffer )
{
   0:	b508      	push	{r3, lr}
C:\Users\MightyDubster\Documents\Projects\pygmyos\core/pygmy_cmd.c:467
    fileMountRoot();
   2:	f7ff fffe 	bl	0 <fileMountRoot>
C:\Users\MightyDubster\Documents\Projects\pygmyos\core/pygmy_cmd.c:470
    
    return( 0 );
}
   6:	2000      	movs	r0, #0
   8:	bd08      	pop	{r3, pc}

Disassembly of section .text.cmd_pinpwm:

00000000 <cmd_pinpwm>:
cmd_pinpwm():
C:\Users\MightyDubster\Documents\Projects\pygmyos\core/pygmy_cmd.c:423

    return( TRUE );
}

u8 cmd_pinpwm( u8 *ucBuffer )
{
   0:	b530      	push	{r4, r5, lr}
   2:	b085      	sub	sp, #20
C:\Users\MightyDubster\Documents\Projects\pygmyos\core/pygmy_cmd.c:426
    u8 *ucParams[ 3 ], ucPin, ucDutyCycle, ucFreq;

    getAllSubStrings( ucBuffer, ucParams, 3, WHITESPACE );
   4:	a901      	add	r1, sp, #4
   6:	2203      	movs	r2, #3
   8:	2302      	movs	r3, #2
   a:	f7ff fffe 	bl	0 <getAllSubStrings>
C:\Users\MightyDubster\Documents\Projects\pygmyos\core/pygmy_cmd.c:427
    ucPin = convertStringToPin( ucParams[ 0 ] );
   e:	9801      	ldr	r0, [sp, #4]
  10:	f7ff fffe 	bl	0 <convertStringToPin>
  14:	4605      	mov	r5, r0
C:\Users\MightyDubster\Documents\Projects\pygmyos\core/pygmy_cmd.c:428
    ucFreq = convertStringToInt( ucParams[ 1 ] );
  16:	9802      	ldr	r0, [sp, #8]
  18:	f7ff fffe 	bl	0 <convertStringToInt>
  1c:	4604      	mov	r4, r0
C:\Users\MightyDubster\Documents\Projects\pygmyos\core/pygmy_cmd.c:429
    ucDutyCycle = convertStringToInt( ucParams[ 2 ] );
  1e:	9803      	ldr	r0, [sp, #12]
  20:	f7ff fffe 	bl	0 <convertStringToInt>
C:\Users\MightyDubster\Documents\Projects\pygmyos\core/pygmy_cmd.c:430
    pinPWM( ucPin, ucFreq, ucDutyCycle );
  24:	b2e1      	uxtb	r1, r4
  26:	b2c2      	uxtb	r2, r0
  28:	4628      	mov	r0, r5
  2a:	f7ff fffe 	bl	0 <pinPWM>
C:\Users\MightyDubster\Documents\Projects\pygmyos\core/pygmy_cmd.c:433

    return( TRUE );
}
  2e:	2001      	movs	r0, #1
  30:	b005      	add	sp, #20
  32:	bd30      	pop	{r4, r5, pc}

Disassembly of section .text.cmd_pinanalog:

00000000 <cmd_pinanalog>:
cmd_pinanalog():
C:\Users\MightyDubster\Documents\Projects\pygmyos\core/pygmy_cmd.c:413

    return( 1 );
}

u8 cmd_pinanalog( u8 *ucBuffer )
{
   0:	b510      	push	{r4, lr}
   2:	4604      	mov	r4, r0
C:\Users\MightyDubster\Documents\Projects\pygmyos\core/pygmy_cmd.c:414
    if( !adcGetStatus( ) ){
   4:	f7ff fffe 	bl	0 <adcGetStatus>
   8:	b908      	cbnz	r0, 6 <adcSingleSampleInit+0x6>
C:\Users\MightyDubster\Documents\Projects\pygmyos\core/pygmy_cmd.c:415
        adcSingleSampleInit();
   a:	f7ff fffe 	bl	0 <adcSingleSampleInit>
C:\Users\MightyDubster\Documents\Projects\pygmyos\core/pygmy_cmd.c:417
    } // if
    print( STDIO, "\r%d", adcSingleSample( convertStringToPin( getNextSubString( ucBuffer, WHITESPACE ) ) ) );
   e:	2102      	movs	r1, #2
  10:	4620      	mov	r0, r4
  12:	f7ff fffe 	bl	0 <getNextSubString>
  16:	f7ff fffe 	bl	0 <convertStringToPin>
  1a:	f7ff fffe 	bl	0 <adcSingleSample>
  1e:	4903      	ldr	r1, [pc, #12]	; (2c <cmd_pinanalog+0x2c>)
  20:	4602      	mov	r2, r0
  22:	2000      	movs	r0, #0
  24:	f7ff fffe 	bl	0 <print>
C:\Users\MightyDubster\Documents\Projects\pygmyos\core/pygmy_cmd.c:420

    return( TRUE );
}
  28:	2001      	movs	r0, #1
  2a:	bd10      	pop	{r4, pc}
  2c:	00000031 	.word	0x00000031

Disassembly of section .text.cmd_pinget:

00000000 <cmd_pinget>:
cmd_pinget():
C:\Users\MightyDubster\Documents\Projects\pygmyos\core/pygmy_cmd.c:406
    return( TRUE );
}


u8 cmd_pinget( u8 *ucBuffer )
{
   0:	2102b508 	.word	0x2102b508
C:\Users\MightyDubster\Documents\Projects\pygmyos\core/pygmy_cmd.c:407
    print( STDIO, "\r%d", pinGet( convertStringToPin( getNextSubString( ucBuffer, WHITESPACE ) ) ) );
   4:	f7ff fffe 	bl	0 <getNextSubString>
   8:	f7ff fffe 	bl	0 <convertStringToPin>
   c:	f7ff fffe 	bl	0 <pinGet>
  10:	4903      	ldr	r1, [pc, #12]	; (20 <cmd_pinget+0x20>)
  12:	4602      	mov	r2, r0
  14:	2000      	movs	r0, #0
  16:	f7ff fffe 	bl	0 <print>
C:\Users\MightyDubster\Documents\Projects\pygmyos\core/pygmy_cmd.c:410

    return( 1 );
}
  1a:	2001      	movs	r0, #1
  1c:	bd08      	pop	{r3, pc}
  1e:	bf00      	nop
  20:	00000031 	.word	0x00000031

Disassembly of section .text.cmd_pinset:

00000000 <cmd_pinset>:
cmd_pinset():
C:\Users\MightyDubster\Documents\Projects\pygmyos\core/pygmy_cmd.c:386

    return( TRUE );
}

u8 cmd_pinset( u8 *ucBuffer )
{
   0:	b513      	push	{r0, r1, r4, lr}
C:\Users\MightyDubster\Documents\Projects\pygmyos\core/pygmy_cmd.c:389
    u8 *ucParams[ 2 ], ucPin;
    
    getAllSubStrings( ucBuffer, ucParams, 2, WHITESPACE );
   2:	2202      	movs	r2, #2
   4:	4669      	mov	r1, sp
   6:	4613      	mov	r3, r2
   8:	f7ff fffe 	bl	0 <getAllSubStrings>
C:\Users\MightyDubster\Documents\Projects\pygmyos\core/pygmy_cmd.c:390
    ucPin = convertStringToPin( ucParams[ 0 ] );
   c:	9800      	ldr	r0, [sp, #0]
   e:	f7ff fffe 	bl	0 <convertStringToPin>
C:\Users\MightyDubster\Documents\Projects\pygmyos\core/pygmy_cmd.c:391
    if( isStringSameIgnoreCase( ucParams[ 1 ], "high" ) || isStringSame( ucParams[ 1 ], "1" )
  12:	4914      	ldr	r1, [pc, #80]	; (64 <cmd_pinset+0x64>)
C:\Users\MightyDubster\Documents\Projects\pygmyos\core/pygmy_cmd.c:390
u8 cmd_pinset( u8 *ucBuffer )
{
    u8 *ucParams[ 2 ], ucPin;
    
    getAllSubStrings( ucBuffer, ucParams, 2, WHITESPACE );
    ucPin = convertStringToPin( ucParams[ 0 ] );
  14:	4604      	mov	r4, r0
C:\Users\MightyDubster\Documents\Projects\pygmyos\core/pygmy_cmd.c:391
    if( isStringSameIgnoreCase( ucParams[ 1 ], "high" ) || isStringSame( ucParams[ 1 ], "1" )
  16:	9801      	ldr	r0, [sp, #4]
  18:	f7ff fffe 	bl	0 <isStringSameIgnoreCase>
  1c:	b948      	cbnz	r0, 32 <cmd_pinset+0x32>
  1e:	9801      	ldr	r0, [sp, #4]
  20:	4911      	ldr	r1, [pc, #68]	; (68 <cmd_pinset+0x68>)
  22:	f7ff fffe 	bl	0 <isStringSame>
  26:	b920      	cbnz	r0, 32 <cmd_pinset+0x32>
C:\Users\MightyDubster\Documents\Projects\pygmyos\core/pygmy_cmd.c:392
        || isStringSameIgnoreCase( ucParams[ 1 ], "on" ) ){
  28:	9801      	ldr	r0, [sp, #4]
  2a:	4910      	ldr	r1, [pc, #64]	; (6c <cmd_pinset+0x6c>)
  2c:	f7ff fffe 	bl	0 <isStringSameIgnoreCase>
  30:	b110      	cbz	r0, 38 <cmd_pinset+0x38>
C:\Users\MightyDubster\Documents\Projects\pygmyos\core/pygmy_cmd.c:393
        pinSet( ucPin, 1 );
  32:	4620      	mov	r0, r4
  34:	2101      	movs	r1, #1
  36:	e010      	b.n	5a <cmd_pinset+0x5a>
C:\Users\MightyDubster\Documents\Projects\pygmyos\core/pygmy_cmd.c:394
    } else if( isStringSameIgnoreCase( ucParams[ 1 ], "low" ) || isStringSame( ucParams[ 1 ], "0" )
  38:	9801      	ldr	r0, [sp, #4]
  3a:	490d      	ldr	r1, [pc, #52]	; (70 <cmd_pinset+0x70>)
  3c:	f7ff fffe 	bl	0 <isStringSameIgnoreCase>
  40:	b948      	cbnz	r0, 56 <cmd_pinset+0x56>
  42:	9801      	ldr	r0, [sp, #4]
  44:	490b      	ldr	r1, [pc, #44]	; (74 <cmd_pinset+0x74>)
  46:	f7ff fffe 	bl	0 <isStringSame>
  4a:	b920      	cbnz	r0, 56 <cmd_pinset+0x56>
C:\Users\MightyDubster\Documents\Projects\pygmyos\core/pygmy_cmd.c:395
        || isStringSameIgnoreCase( ucParams[ 1 ], "off" ) ){
  4c:	9801      	ldr	r0, [sp, #4]
  4e:	490a      	ldr	r1, [pc, #40]	; (78 <cmd_pinset+0x78>)
  50:	f7ff fffe 	bl	0 <isStringSameIgnoreCase>
  54:	b120      	cbz	r0, 60 <cmd_pinset+0x60>
C:\Users\MightyDubster\Documents\Projects\pygmyos\core/pygmy_cmd.c:396
        pinSet( ucPin, 0 );
  56:	4620      	mov	r0, r4
  58:	2100      	movs	r1, #0
  5a:	f7ff fffe 	bl	0 <pinSet>
C:\Users\MightyDubster\Documents\Projects\pygmyos\core/pygmy_cmd.c:401
    } else{
        return( FALSE );
    } // else

    return( TRUE );
  5e:	2001      	movs	r0, #1
C:\Users\MightyDubster\Documents\Projects\pygmyos\core/pygmy_cmd.c:402
}
  60:	bd1c      	pop	{r2, r3, r4, pc}
  62:	bf00      	nop
  64:	00000035 	.word	0x00000035
  68:	0000003a 	.word	0x0000003a
  6c:	0000003c 	.word	0x0000003c
  70:	0000003f 	.word	0x0000003f
  74:	00000043 	.word	0x00000043
  78:	00000045 	.word	0x00000045

Disassembly of section .text.cmd_pinevent:

00000000 <cmd_pinevent>:
cmd_pinevent():
C:\Users\MightyDubster\Documents\Projects\pygmyos\core/pygmy_cmd.c:370
        } // if
    } // for
}

u8 cmd_pinevent( u8 *ucBuffer )
{
   0:	2202b537 	.word	0x2202b537
C:\Users\MightyDubster\Documents\Projects\pygmyos\core/pygmy_cmd.c:373
    u8 *ucParams[ 2 ], ucLen, ucPin;

    ucLen = getAllSubStrings( ucBuffer, ucParams, 2, WHITESPACE );
   4:	4669      	mov	r1, sp
   6:	4613      	mov	r3, r2
   8:	f7ff fffe 	bl	0 <getAllSubStrings>
   c:	4605      	mov	r5, r0
C:\Users\MightyDubster\Documents\Projects\pygmyos\core/pygmy_cmd.c:374
    ucPin = convertStringToPin( ucParams[ 0 ] );
   e:	9800      	ldr	r0, [sp, #0]
  10:	f7ff fffe 	bl	0 <convertStringToPin>
C:\Users\MightyDubster\Documents\Projects\pygmyos\core/pygmy_cmd.c:375
    if( ucLen > 1 && isStringSameIgnoreCase( ucParams[ 1 ], "off" ) ){
  14:	b2ed      	uxtb	r5, r5
  16:	2d01      	cmp	r5, #1
C:\Users\MightyDubster\Documents\Projects\pygmyos\core/pygmy_cmd.c:374
u8 cmd_pinevent( u8 *ucBuffer )
{
    u8 *ucParams[ 2 ], ucLen, ucPin;

    ucLen = getAllSubStrings( ucBuffer, ucParams, 2, WHITESPACE );
    ucPin = convertStringToPin( ucParams[ 0 ] );
  18:	4604      	mov	r4, r0
C:\Users\MightyDubster\Documents\Projects\pygmyos\core/pygmy_cmd.c:375
    if( ucLen > 1 && isStringSameIgnoreCase( ucParams[ 1 ], "off" ) ){
  1a:	d908      	bls.n	2e <cmd_pinevent+0x2e>
  1c:	9801      	ldr	r0, [sp, #4]
  1e:	4907      	ldr	r1, [pc, #28]	; (3c <cmd_pinevent+0x3c>)
  20:	f7ff fffe 	bl	0 <isStringSameIgnoreCase>
  24:	b118      	cbz	r0, 2e <cmd_pinevent+0x2e>
C:\Users\MightyDubster\Documents\Projects\pygmyos\core/pygmy_cmd.c:377
        // if second parameter is included and is "off"
        pinInterrupt( cmdPinEvent, ucPin, 0 );
  26:	4806      	ldr	r0, [pc, #24]	; (40 <cmd_pinevent+0x40>)
  28:	4621      	mov	r1, r4
  2a:	2200      	movs	r2, #0
  2c:	e002      	b.n	34 <cmd_pinevent+0x34>
C:\Users\MightyDubster\Documents\Projects\pygmyos\core/pygmy_cmd.c:379
    } else{
        pinInterrupt( cmdPinEvent, ucPin, TRIGGER_RISING|TRIGGER_FALLING );
  2e:	4804      	ldr	r0, [pc, #16]	; (40 <cmd_pinevent+0x40>)
  30:	4621      	mov	r1, r4
  32:	2203      	movs	r2, #3
  34:	f7ff fffe 	bl	0 <pinInterrupt>
C:\Users\MightyDubster\Documents\Projects\pygmyos\core/pygmy_cmd.c:383
    } // else

    return( TRUE );
}
  38:	2001      	movs	r0, #1
  3a:	bd3e      	pop	{r1, r2, r3, r4, r5, pc}
  3c:	00000045 	.word	0x00000045
  40:	00000000 	.word	0x00000000

Disassembly of section .text.cmdPinEvent:

00000000 <cmdPinEvent>:
cmdPinEvent():
C:\Users\MightyDubster\Documents\Projects\pygmyos\core/pygmy_cmd.c:352

//---------------------------------------Debug Commands-------------------------------------
//--------------------------------------------------------------------------------------------

void cmdPinEvent( void )
{
   0:	e92d 41f0 	stmdb	sp!, {r4, r5, r6, r7, r8, lr}
C:\Users\MightyDubster\Documents\Projects\pygmyos\core/pygmy_cmd.c:356
    u16 uiPR;
    u8 i, ucPin;

    uiPR = pinGetIRQPR();
   4:	f7ff fffe 	bl	0 <pinGetIRQPR>
   8:	2400      	movs	r4, #0
   a:	4605      	mov	r5, r0
C:\Users\MightyDubster\Documents\Projects\pygmyos\core/pygmy_cmd.c:358
    for( i = 0; i < 16; i++ ){
        if( uiPR & ( BIT0 << i ) ){
   c:	fa55 f304 	asrs.w	r3, r5, r4
  10:	f013 0f01 	tst.w	r3, #1
C:\Users\MightyDubster\Documents\Projects\pygmyos\core/pygmy_cmd.c:356
void cmdPinEvent( void )
{
    u16 uiPR;
    u8 i, ucPin;

    uiPR = pinGetIRQPR();
  14:	b2e0      	uxtb	r0, r4
C:\Users\MightyDubster\Documents\Projects\pygmyos\core/pygmy_cmd.c:358
    for( i = 0; i < 16; i++ ){
        if( uiPR & ( BIT0 << i ) ){
  16:	d017      	beq.n	48 <cmdPinEvent+0x48>
C:\Users\MightyDubster\Documents\Projects\pygmyos\core/pygmy_cmd.c:359
            ucPin = pinGetIRQPin( i );
  18:	f7ff fffe 	bl	0 <pinGetIRQPin>
  1c:	4680      	mov	r8, r0
C:\Users\MightyDubster\Documents\Projects\pygmyos\core/pygmy_cmd.c:360
            if( pinGet( ucPin ) ){
  1e:	f7ff fffe 	bl	0 <pinGet>
  22:	4e0c      	ldr	r6, [pc, #48]	; (54 <cmdPinEvent+0x54>)
  24:	4607      	mov	r7, r0
  26:	b130      	cbz	r0, 36 <cmdPinEvent+0x36>
C:\Users\MightyDubster\Documents\Projects\pygmyos\core/pygmy_cmd.c:361
                print( STDIO, "\r%s HIGH%s", convertPinToString( ucPin ),  globalCMDPrompt );
  28:	4640      	mov	r0, r8
  2a:	f7ff fffe 	bl	0 <convertPinToString>
  2e:	490a      	ldr	r1, [pc, #40]	; (58 <cmdPinEvent+0x58>)
  30:	4602      	mov	r2, r0
  32:	2000      	movs	r0, #0
  34:	e005      	b.n	42 <cmdPinEvent+0x42>
C:\Users\MightyDubster\Documents\Projects\pygmyos\core/pygmy_cmd.c:363
            } else{
                print( STDIO, "\r%s LOW%s", convertPinToString( ucPin ), globalCMDPrompt );
  36:	4640      	mov	r0, r8
  38:	f7ff fffe 	bl	0 <convertPinToString>
  3c:	4907      	ldr	r1, [pc, #28]	; (5c <cmdPinEvent+0x5c>)
  3e:	4602      	mov	r2, r0
  40:	4638      	mov	r0, r7
  42:	6833      	ldr	r3, [r6, #0]
  44:	f7ff fffe 	bl	0 <print>
  48:	3401      	adds	r4, #1
C:\Users\MightyDubster\Documents\Projects\pygmyos\core/pygmy_cmd.c:357
{
    u16 uiPR;
    u8 i, ucPin;

    uiPR = pinGetIRQPR();
    for( i = 0; i < 16; i++ ){
  4a:	2c10      	cmp	r4, #16
  4c:	d1de      	bne.n	c <cmdPinEvent+0xc>
C:\Users\MightyDubster\Documents\Projects\pygmyos\core/pygmy_cmd.c:367
            } else{
                print( STDIO, "\r%s LOW%s", convertPinToString( ucPin ), globalCMDPrompt );
            } // else
        } // if
    } // for
}
  4e:	e8bd 81f0 	ldmia.w	sp!, {r4, r5, r6, r7, r8, pc}
  52:	bf00      	nop
  54:	00000000 	.word	0x00000000
  58:	00000049 	.word	0x00000049
  5c:	00000054 	.word	0x00000054

Disassembly of section .text.cmdInit:

00000000 <cmdInit>:
cmdInit():
C:\Users\MightyDubster\Documents\Projects\pygmyos\core/pygmy_cmd.c:160

    #ifndef __PYGMYCMDMAXLISTS
        #define __PYGMYCMDMAXLISTS 1
    #endif // __PYGMYCMDMAXLISTS
    for( i = 0; i < __PYGMY_MAXCOMMANDPORTS; i++ ){
        globalCMDPorts[ i ].SPI = 0xFF;
   0:	23ff4a0d 	.word	0x23ff4a0d
   4:	7013      	strb	r3, [r2, #0]
C:\Users\MightyDubster\Documents\Projects\pygmyos\core/pygmy_cmd.c:161
        globalCMDPorts[ i ].I2C = 0xFF;
   6:	7053      	strb	r3, [r2, #1]
C:\Users\MightyDubster\Documents\Projects\pygmyos\core/pygmy_cmd.c:160

    #ifndef __PYGMYCMDMAXLISTS
        #define __PYGMYCMDMAXLISTS 1
    #endif // __PYGMYCMDMAXLISTS
    for( i = 0; i < __PYGMY_MAXCOMMANDPORTS; i++ ){
        globalCMDPorts[ i ].SPI = 0xFF;
   8:	7093      	strb	r3, [r2, #2]
C:\Users\MightyDubster\Documents\Projects\pygmyos\core/pygmy_cmd.c:161
        globalCMDPorts[ i ].I2C = 0xFF;
   a:	70d3      	strb	r3, [r2, #3]
C:\Users\MightyDubster\Documents\Projects\pygmyos\core/pygmy_cmd.c:160

    #ifndef __PYGMYCMDMAXLISTS
        #define __PYGMYCMDMAXLISTS 1
    #endif // __PYGMYCMDMAXLISTS
    for( i = 0; i < __PYGMY_MAXCOMMANDPORTS; i++ ){
        globalCMDPorts[ i ].SPI = 0xFF;
   c:	7113      	strb	r3, [r2, #4]
C:\Users\MightyDubster\Documents\Projects\pygmyos\core/pygmy_cmd.c:161
        globalCMDPorts[ i ].I2C = 0xFF;
   e:	7153      	strb	r3, [r2, #5]
C:\Users\MightyDubster\Documents\Projects\pygmyos\core/pygmy_cmd.c:160

    #ifndef __PYGMYCMDMAXLISTS
        #define __PYGMYCMDMAXLISTS 1
    #endif // __PYGMYCMDMAXLISTS
    for( i = 0; i < __PYGMY_MAXCOMMANDPORTS; i++ ){
        globalCMDPorts[ i ].SPI = 0xFF;
  10:	7193      	strb	r3, [r2, #6]
C:\Users\MightyDubster\Documents\Projects\pygmyos\core/pygmy_cmd.c:161
        globalCMDPorts[ i ].I2C = 0xFF;
  12:	71d3      	strb	r3, [r2, #7]
C:\Users\MightyDubster\Documents\Projects\pygmyos\core/pygmy_cmd.c:164
    } // for
    for( i = 0; i < __PYGMY_MAXCOMMANDSPIPORTS; i++ ){
        globalSPIPorts[ i ].CR = 0xFF;
  14:	4a09      	ldr	r2, [pc, #36]	; (3c <cmdInit+0x3c>)
C:\Users\MightyDubster\Documents\Projects\pygmyos\core/pygmy_cmd.c:169
    } // for
    for( i = 0; i < __PYGMY_MAXCOMMANDI2CPORTS; i++ ){
        globalI2CPorts[ i ].CR = 0xFF;
    } // for
    globalCMDPrompt = "\r> ";
  16:	490a      	ldr	r1, [pc, #40]	; (40 <cmdInit+0x40>)
C:\Users\MightyDubster\Documents\Projects\pygmyos\core/pygmy_cmd.c:164
    for( i = 0; i < __PYGMY_MAXCOMMANDPORTS; i++ ){
        globalCMDPorts[ i ].SPI = 0xFF;
        globalCMDPorts[ i ].I2C = 0xFF;
    } // for
    for( i = 0; i < __PYGMY_MAXCOMMANDSPIPORTS; i++ ){
        globalSPIPorts[ i ].CR = 0xFF;
  18:	8313      	strh	r3, [r2, #24]
  1a:	8693      	strh	r3, [r2, #52]	; 0x34
C:\Users\MightyDubster\Documents\Projects\pygmyos\core/pygmy_cmd.c:167
    } // for
    for( i = 0; i < __PYGMY_MAXCOMMANDI2CPORTS; i++ ){
        globalI2CPorts[ i ].CR = 0xFF;
  1c:	4a09      	ldr	r2, [pc, #36]	; (44 <cmdInit+0x44>)
C:\Users\MightyDubster\Documents\Projects\pygmyos\core/pygmy_cmd.c:172
    } // for
    globalCMDPrompt = "\r> ";
    globalCMDError = "\rerror\r> ";
    globalCMDUnsupported = "\runsupported\r> ";
    print( STDIO, globalCMDPrompt );
  1e:	2000      	movs	r0, #0
C:\Users\MightyDubster\Documents\Projects\pygmyos\core/pygmy_cmd.c:167
    } // for
    for( i = 0; i < __PYGMY_MAXCOMMANDSPIPORTS; i++ ){
        globalSPIPorts[ i ].CR = 0xFF;
    } // for
    for( i = 0; i < __PYGMY_MAXCOMMANDI2CPORTS; i++ ){
        globalI2CPorts[ i ].CR = 0xFF;
  20:	8253      	strh	r3, [r2, #18]
  22:	84d3      	strh	r3, [r2, #38]	; 0x26
C:\Users\MightyDubster\Documents\Projects\pygmyos\core/pygmy_cmd.c:169
    } // for
    globalCMDPrompt = "\r> ";
  24:	4b08      	ldr	r3, [pc, #32]	; (48 <cmdInit+0x48>)
C:\Users\MightyDubster\Documents\Projects\pygmyos\core/pygmy_cmd.c:170
    globalCMDError = "\rerror\r> ";
  26:	4a09      	ldr	r2, [pc, #36]	; (4c <cmdInit+0x4c>)
C:\Users\MightyDubster\Documents\Projects\pygmyos\core/pygmy_cmd.c:169
        globalSPIPorts[ i ].CR = 0xFF;
    } // for
    for( i = 0; i < __PYGMY_MAXCOMMANDI2CPORTS; i++ ){
        globalI2CPorts[ i ].CR = 0xFF;
    } // for
    globalCMDPrompt = "\r> ";
  28:	6019      	str	r1, [r3, #0]
C:\Users\MightyDubster\Documents\Projects\pygmyos\core/pygmy_cmd.c:170
    globalCMDError = "\rerror\r> ";
  2a:	4b09      	ldr	r3, [pc, #36]	; (50 <cmdInit+0x50>)
  2c:	601a      	str	r2, [r3, #0]
C:\Users\MightyDubster\Documents\Projects\pygmyos\core/pygmy_cmd.c:171
    globalCMDUnsupported = "\runsupported\r> ";
  2e:	4a09      	ldr	r2, [pc, #36]	; (54 <cmdInit+0x54>)
  30:	4b09      	ldr	r3, [pc, #36]	; (58 <cmdInit+0x58>)
  32:	601a      	str	r2, [r3, #0]
C:\Users\MightyDubster\Documents\Projects\pygmyos\core/pygmy_cmd.c:172
    print( STDIO, globalCMDPrompt );
  34:	f7ff bffe 	b.w	0 <print>
	...
  40:	0000005e 	.word	0x0000005e
	...
  4c:	00000062 	.word	0x00000062
  50:	00000000 	.word	0x00000000
  54:	0000006c 	.word	0x0000006c
  58:	00000000 	.word	0x00000000

Disassembly of section .text.cmdExecute:

00000000 <cmdExecute>:
cmdExecute():
C:\Users\MightyDubster\Documents\Projects\pygmyos\core/pygmy_cmd.c:176
}

u8 cmdExecute( u8 *ucBuffer, PYGMYCMD *pygmyCmds )
{
   0:	e92d 41f0 	stmdb	sp!, {r4, r5, r6, r7, r8, lr}
   4:	460d      	mov	r5, r1
C:\Users\MightyDubster\Documents\Projects\pygmyos\core/pygmy_cmd.c:180
    u16 ii;
    u8 *ucCommand;
    
    ucCommand = getNextSubString( ucBuffer, WHITESPACE|PUNCT );
   6:	2103      	movs	r1, #3
   8:	f7ff fffe 	bl	0 <getNextSubString>
C:\Users\MightyDubster\Documents\Projects\pygmyos\core/pygmy_cmd.c:181
    if( !ucCommand ){
   c:	4607      	mov	r7, r0
   e:	b108      	cbz	r0, 14 <cmdExecute+0x14>
  10:	2400      	movs	r4, #0
  12:	e001      	b.n	18 <cmdExecute+0x18>
C:\Users\MightyDubster\Documents\Projects\pygmyos\core/pygmy_cmd.c:182
        print( STDIO, globalCMDPrompt );
  14:	4b17      	ldr	r3, [pc, #92]	; (74 <cmdExecute+0x74>)
  16:	e023      	b.n	60 <cmdExecute+0x60>
C:\Users\MightyDubster\Documents\Projects\pygmyos\core/pygmy_cmd.c:187
        return( 0 );
    } // if
        
    for( ii = 0; 1; ii++ ){
        if( isStringSame( NULL, pygmyCmds[ ii ].Name ) ){
  18:	2000      	movs	r0, #0
  1a:	f855 1034 	ldr.w	r1, [r5, r4, lsl #3]
  1e:	f7ff fffe 	bl	0 <isStringSame>
  22:	eb05 08c4 	add.w	r8, r5, r4, lsl #3
  26:	4606      	mov	r6, r0
  28:	b130      	cbz	r0, 38 <cmdExecute+0x38>
C:\Users\MightyDubster\Documents\Projects\pygmyos\core/pygmy_cmd.c:188
            print( STDIO, globalCMDUnsupported);
  2a:	4b13      	ldr	r3, [pc, #76]	; (78 <cmdExecute+0x78>)
  2c:	2000      	movs	r0, #0
  2e:	6819      	ldr	r1, [r3, #0]
  30:	f7ff fffe 	bl	0 <print>
C:\Users\MightyDubster\Documents\Projects\pygmyos\core/pygmy_cmd.c:189
            return( 0 );
  34:	2700      	movs	r7, #0
  36:	e01a      	b.n	6e <cmdExecute+0x6e>
C:\Users\MightyDubster\Documents\Projects\pygmyos\core/pygmy_cmd.c:191
        } // if
        if( isStringSame( ucCommand, pygmyCmds[ ii ].Name ) ){
  38:	4638      	mov	r0, r7
  3a:	f855 1034 	ldr.w	r1, [r5, r4, lsl #3]
  3e:	f7ff fffe 	bl	0 <isStringSame>
  42:	b188      	cbz	r0, 68 <cmdExecute+0x68>
C:\Users\MightyDubster\Documents\Projects\pygmyos\core/pygmy_cmd.c:193
            // Parameters should not be passed here, they are passed using getNextSubString
            if( pygmyCmds[ ii ].Call( (u8*)"" ) ){
  44:	f8d8 3004 	ldr.w	r3, [r8, #4]
  48:	480c      	ldr	r0, [pc, #48]	; (7c <cmdExecute+0x7c>)
  4a:	4798      	blx	r3
  4c:	4607      	mov	r7, r0
  4e:	b130      	cbz	r0, 5e <cmdExecute+0x5e>
C:\Users\MightyDubster\Documents\Projects\pygmyos\core/pygmy_cmd.c:194
                print( STDIO, globalCMDPrompt );
  50:	4b08      	ldr	r3, [pc, #32]	; (74 <cmdExecute+0x74>)
  52:	4630      	mov	r0, r6
  54:	6819      	ldr	r1, [r3, #0]
  56:	f7ff fffe 	bl	0 <print>
C:\Users\MightyDubster\Documents\Projects\pygmyos\core/pygmy_cmd.c:195
                return( 1 );
  5a:	2701      	movs	r7, #1
  5c:	e007      	b.n	6e <cmdExecute+0x6e>
C:\Users\MightyDubster\Documents\Projects\pygmyos\core/pygmy_cmd.c:197
            }else{
                print( STDIO, globalCMDError );
  5e:	4b08      	ldr	r3, [pc, #32]	; (80 <cmdExecute+0x80>)
  60:	6819      	ldr	r1, [r3, #0]
  62:	f7ff fffe 	bl	0 <print>
C:\Users\MightyDubster\Documents\Projects\pygmyos\core/pygmy_cmd.c:198
                return( 0 );
  66:	e002      	b.n	6e <cmdExecute+0x6e>
C:\Users\MightyDubster\Documents\Projects\pygmyos\core/pygmy_cmd.c:186
    if( !ucCommand ){
        print( STDIO, globalCMDPrompt );
        return( 0 );
    } // if
        
    for( ii = 0; 1; ii++ ){
  68:	3401      	adds	r4, #1
  6a:	b2a4      	uxth	r4, r4
C:\Users\MightyDubster\Documents\Projects\pygmyos\core/pygmy_cmd.c:201
            }else{
                print( STDIO, globalCMDError );
                return( 0 );
            } // else
        } // if
    } // for
  6c:	e7d4      	b.n	18 <cmdExecute+0x18>
C:\Users\MightyDubster\Documents\Projects\pygmyos\core/pygmy_cmd.c:202
}
  6e:	4638      	mov	r0, r7
  70:	e8bd 81f0 	ldmia.w	sp!, {r4, r5, r6, r7, r8, pc}
	...
  7c:	0000007c 	.word	0x0000007c
  80:	00000000 	.word	0x00000000

Disassembly of section .text.cmdGetsCOM3:

00000000 <cmdGetsCOM3>:
cmdGetsCOM3():
C:\Users\MightyDubster\Documents\Projects\pygmyos\core/pygmy_cmd.c:115
}
#endif // __PYGMYSTREAMCOM2

#ifdef __PYGMYSTREAMCOM3
void cmdGetsCOM3( void )
{
   0:	b0a0b510 	.word	0xb0a0b510
C:\Users\MightyDubster\Documents\Projects\pygmyos\core/pygmy_cmd.c:118
    u8 pygmySTDIO, ucBuffer[ __PYGMYCOM3BUFFERLEN ];

    pygmySTDIO = streamGetSTDIO( );
   4:	f7ff fffe 	bl	0 <streamGetSTDIO>
   8:	4604      	mov	r4, r0
C:\Users\MightyDubster\Documents\Projects\pygmyos\core/pygmy_cmd.c:119
    streamSetSTDIO( COM3 );
   a:	2001      	movs	r0, #1
   c:	f7ff fffe 	bl	0 <streamSetSTDIO>
C:\Users\MightyDubster\Documents\Projects\pygmyos\core/pygmy_cmd.c:120
    streamFIFOToString( COM3, ucBuffer );
  10:	2001      	movs	r0, #1
  12:	4669      	mov	r1, sp
  14:	f7ff fffe 	bl	0 <streamFIFOToString>
C:\Users\MightyDubster\Documents\Projects\pygmyos\core/pygmy_cmd.c:121
    cmdExecute( ucBuffer, (PYGMYCMD*)PYGMYSTDCOMMANDS );
  18:	4668      	mov	r0, sp
  1a:	4904      	ldr	r1, [pc, #16]	; (2c <cmdGetsCOM3+0x2c>)
  1c:	f7ff fffe 	bl	0 <cmdGetsCOM3>
C:\Users\MightyDubster\Documents\Projects\pygmyos\core/pygmy_cmd.c:122
    streamSetSTDIO( pygmySTDIO ); 
  20:	4620      	mov	r0, r4
  22:	f7ff fffe 	bl	0 <streamSetSTDIO>
C:\Users\MightyDubster\Documents\Projects\pygmyos\core/pygmy_cmd.c:123
}
  26:	b020      	add	sp, #128	; 0x80
  28:	bd10      	pop	{r4, pc}
  2a:	bf00      	nop
  2c:	00000000 	.word	0x00000000

Disassembly of section .text.cmd_voltshield:

00000000 <cmd_voltshield>:
cmd_voltshield():
C:\Users\MightyDubster\Documents\Projects\pygmyos\core/pygmy_cmd.c:210
//--------------------------------------------------------------------------------------------

//--------------------------------------Standard Commands-------------------------------------
//--------------------------------------------------------------------------------------------
u8 cmd_voltshield( u8 *ucBuffer )
{
   0:	b530      	push	{r4, r5, lr}
   2:	b085      	sub	sp, #20
C:\Users\MightyDubster\Documents\Projects\pygmyos\core/pygmy_cmd.c:214
    //u16 uiSample;
    u8 *ucParams[ 4 ], ucLen, ucChannel, ucGain;

    ucLen = getAllSubStrings( ucBuffer, ucParams, 4, WHITESPACE );
   4:	4669      	mov	r1, sp
   6:	2204      	movs	r2, #4
   8:	2302      	movs	r3, #2
   a:	f7ff fffe 	bl	0 <getAllSubStrings>
C:\Users\MightyDubster\Documents\Projects\pygmyos\core/pygmy_cmd.c:217

    
    if( isStringSame( ucParams[ 0 ], "set" ) ){
   e:	4935      	ldr	r1, [pc, #212]	; (e4 <cmd_voltshield+0xe4>)
C:\Users\MightyDubster\Documents\Projects\pygmyos\core/pygmy_cmd.c:214
u8 cmd_voltshield( u8 *ucBuffer )
{
    //u16 uiSample;
    u8 *ucParams[ 4 ], ucLen, ucChannel, ucGain;

    ucLen = getAllSubStrings( ucBuffer, ucParams, 4, WHITESPACE );
  10:	b2c5      	uxtb	r5, r0
C:\Users\MightyDubster\Documents\Projects\pygmyos\core/pygmy_cmd.c:217

    
    if( isStringSame( ucParams[ 0 ], "set" ) ){
  12:	9800      	ldr	r0, [sp, #0]
  14:	f7ff fffe 	bl	0 <isStringSame>
  18:	4604      	mov	r4, r0
  1a:	2800      	cmp	r0, #0
  1c:	d030      	beq.n	80 <cmd_voltshield+0x80>
C:\Users\MightyDubster\Documents\Projects\pygmyos\core/pygmy_cmd.c:218
        if( ucLen < 4 ){
  1e:	2d03      	cmp	r5, #3
  20:	d95b      	bls.n	da <cmd_voltshield+0xda>
C:\Users\MightyDubster\Documents\Projects\pygmyos\core/pygmy_cmd.c:221
            return( FALSE );
        } // if 
        ucChannel = convertStringToInt( ucParams[ 2 ] );
  22:	9802      	ldr	r0, [sp, #8]
  24:	f7ff fffe 	bl	0 <convertStringToInt>
C:\Users\MightyDubster\Documents\Projects\pygmyos\core/pygmy_cmd.c:222
        if( isStringSame( ucParams[ 1 ], "gain" ) ){
  28:	492f      	ldr	r1, [pc, #188]	; (e8 <cmd_voltshield+0xe8>)
C:\Users\MightyDubster\Documents\Projects\pygmyos\core/pygmy_cmd.c:221
    
    if( isStringSame( ucParams[ 0 ], "set" ) ){
        if( ucLen < 4 ){
            return( FALSE );
        } // if 
        ucChannel = convertStringToInt( ucParams[ 2 ] );
  2a:	b2c4      	uxtb	r4, r0
C:\Users\MightyDubster\Documents\Projects\pygmyos\core/pygmy_cmd.c:222
        if( isStringSame( ucParams[ 1 ], "gain" ) ){
  2c:	9801      	ldr	r0, [sp, #4]
  2e:	f7ff fffe 	bl	0 <isStringSame>
  32:	b138      	cbz	r0, 44 <cmd_voltshield+0x44>
C:\Users\MightyDubster\Documents\Projects\pygmyos\core/pygmy_cmd.c:223
            ucGain = convertStringToInt( ucParams[ 3 ] );
  34:	9803      	ldr	r0, [sp, #12]
  36:	f7ff fffe 	bl	0 <convertStringToInt>
C:\Users\MightyDubster\Documents\Projects\pygmyos\core/pygmy_cmd.c:224
            voltShieldSetGain( ucChannel, ucGain );
  3a:	b2c1      	uxtb	r1, r0
  3c:	4620      	mov	r0, r4
  3e:	f7ff fffe 	bl	0 <voltShieldSetGain>
  42:	e048      	b.n	d6 <cmd_voltshield+0xd6>
C:\Users\MightyDubster\Documents\Projects\pygmyos\core/pygmy_cmd.c:225
        } else if( isStringSame( ucParams[ 1 ], "coupling" ) || isStringSame( ucParams[ 1 ], "couple" ) ){
  44:	9801      	ldr	r0, [sp, #4]
  46:	4929      	ldr	r1, [pc, #164]	; (ec <cmd_voltshield+0xec>)
  48:	f7ff fffe 	bl	0 <isStringSame>
  4c:	b928      	cbnz	r0, 5a <cmd_voltshield+0x5a>
  4e:	9801      	ldr	r0, [sp, #4]
  50:	4927      	ldr	r1, [pc, #156]	; (f0 <cmd_voltshield+0xf0>)
  52:	f7ff fffe 	bl	0 <isStringSame>
  56:	2800      	cmp	r0, #0
  58:	d042      	beq.n	e0 <cmd_voltshield+0xe0>
C:\Users\MightyDubster\Documents\Projects\pygmyos\core/pygmy_cmd.c:226
            if( isStringSameIgnoreCase( ucParams[ 3 ], "ac" ) ){
  5a:	9803      	ldr	r0, [sp, #12]
  5c:	4925      	ldr	r1, [pc, #148]	; (f4 <cmd_voltshield+0xf4>)
  5e:	f7ff fffe 	bl	0 <isStringSameIgnoreCase>
  62:	b110      	cbz	r0, 6a <cmd_voltshield+0x6a>
C:\Users\MightyDubster\Documents\Projects\pygmyos\core/pygmy_cmd.c:227
                voltShieldSetCoupling( ucChannel, AC );
  64:	4620      	mov	r0, r4
  66:	2100      	movs	r1, #0
  68:	e007      	b.n	7a <cmd_voltshield+0x7a>
C:\Users\MightyDubster\Documents\Projects\pygmyos\core/pygmy_cmd.c:228
            }else if(isStringSameIgnoreCase( ucParams[ 3 ], "dc" ) ){
  6a:	9803      	ldr	r0, [sp, #12]
  6c:	4922      	ldr	r1, [pc, #136]	; (f8 <cmd_voltshield+0xf8>)
  6e:	f7ff fffe 	bl	0 <isStringSameIgnoreCase>
  72:	2800      	cmp	r0, #0
  74:	d034      	beq.n	e0 <cmd_voltshield+0xe0>
C:\Users\MightyDubster\Documents\Projects\pygmyos\core/pygmy_cmd.c:229
                voltShieldSetCoupling( ucChannel, DC );
  76:	4620      	mov	r0, r4
  78:	2101      	movs	r1, #1
  7a:	f7ff fffe 	bl	0 <voltShieldSetCoupling>
  7e:	e02a      	b.n	d6 <cmd_voltshield+0xd6>
C:\Users\MightyDubster\Documents\Projects\pygmyos\core/pygmy_cmd.c:236
                return( FALSE );
            } // else
        } else{
            return( FALSE );
        } // else
    } else if( isStringSame( ucParams[ 0 ], "get" ) ){
  80:	9800      	ldr	r0, [sp, #0]
  82:	491e      	ldr	r1, [pc, #120]	; (fc <cmd_voltshield+0xfc>)
  84:	f7ff fffe 	bl	0 <isStringSame>
  88:	b350      	cbz	r0, e0 <cmd_voltshield+0xe0>
C:\Users\MightyDubster\Documents\Projects\pygmyos\core/pygmy_cmd.c:237
        if( ucLen < 3 ){
  8a:	2d02      	cmp	r5, #2
  8c:	d927      	bls.n	de <cmd_voltshield+0xde>
C:\Users\MightyDubster\Documents\Projects\pygmyos\core/pygmy_cmd.c:240
            return( FALSE );
        } // if
        ucChannel = convertStringToInt( ucParams[ 2 ] );
  8e:	9802      	ldr	r0, [sp, #8]
  90:	f7ff fffe 	bl	0 <convertStringToInt>
C:\Users\MightyDubster\Documents\Projects\pygmyos\core/pygmy_cmd.c:241
        if( isStringSame( ucParams[ 1 ], "resistance" ) || isStringSame( ucParams[ 1 ], "res" ) ){
  94:	491a      	ldr	r1, [pc, #104]	; (100 <cmd_voltshield+0x100>)
C:\Users\MightyDubster\Documents\Projects\pygmyos\core/pygmy_cmd.c:240
        } // else
    } else if( isStringSame( ucParams[ 0 ], "get" ) ){
        if( ucLen < 3 ){
            return( FALSE );
        } // if
        ucChannel = convertStringToInt( ucParams[ 2 ] );
  96:	b2c5      	uxtb	r5, r0
C:\Users\MightyDubster\Documents\Projects\pygmyos\core/pygmy_cmd.c:241
        if( isStringSame( ucParams[ 1 ], "resistance" ) || isStringSame( ucParams[ 1 ], "res" ) ){
  98:	9801      	ldr	r0, [sp, #4]
  9a:	f7ff fffe 	bl	0 <isStringSame>
  9e:	b920      	cbnz	r0, aa <cmd_voltshield+0xaa>
  a0:	9801      	ldr	r0, [sp, #4]
  a2:	4918      	ldr	r1, [pc, #96]	; (104 <cmd_voltshield+0x104>)
  a4:	f7ff fffe 	bl	0 <isStringSame>
  a8:	b118      	cbz	r0, b2 <cmd_voltshield+0xb2>
C:\Users\MightyDubster\Documents\Projects\pygmyos\core/pygmy_cmd.c:243
            //voltShieldSetCoupling( ucChannel, RESISTANCE );
            print( STDIO, "\r%d", voltShieldGetResistance( ucChannel ) );
  aa:	4628      	mov	r0, r5
  ac:	f7ff fffe 	bl	0 <voltShieldGetResistance>
  b0:	e00c      	b.n	cc <cmd_voltshield+0xcc>
C:\Users\MightyDubster\Documents\Projects\pygmyos\core/pygmy_cmd.c:244
        } else if( isStringSame( ucParams[ 1 ], "voltage" ) || isStringSame( ucParams[ 1 ], "volt" ) ){
  b2:	9801      	ldr	r0, [sp, #4]
  b4:	4914      	ldr	r1, [pc, #80]	; (108 <cmd_voltshield+0x108>)
  b6:	f7ff fffe 	bl	0 <isStringSame>
  ba:	b920      	cbnz	r0, c6 <cmd_voltshield+0xc6>
  bc:	9801      	ldr	r0, [sp, #4]
  be:	4913      	ldr	r1, [pc, #76]	; (10c <cmd_voltshield+0x10c>)
  c0:	f7ff fffe 	bl	0 <isStringSame>
  c4:	b160      	cbz	r0, e0 <cmd_voltshield+0xe0>
C:\Users\MightyDubster\Documents\Projects\pygmyos\core/pygmy_cmd.c:245
            print( STDIO, "\r%d", voltShieldGetVoltage( ucChannel ) );
  c6:	4628      	mov	r0, r5
  c8:	f7ff fffe 	bl	0 <voltShieldGetVoltage>
  cc:	4602      	mov	r2, r0
  ce:	4910      	ldr	r1, [pc, #64]	; (110 <cmd_voltshield+0x110>)
  d0:	2000      	movs	r0, #0
  d2:	f7ff fffe 	bl	0 <print>
C:\Users\MightyDubster\Documents\Projects\pygmyos\core/pygmy_cmd.c:253
        } // else
    } else{
        return( FALSE );
    } // else

    return( TRUE );
  d6:	2001      	movs	r0, #1
C:\Users\MightyDubster\Documents\Projects\pygmyos\core/pygmy_cmd.c:245
        ucChannel = convertStringToInt( ucParams[ 2 ] );
        if( isStringSame( ucParams[ 1 ], "resistance" ) || isStringSame( ucParams[ 1 ], "res" ) ){
            //voltShieldSetCoupling( ucChannel, RESISTANCE );
            print( STDIO, "\r%d", voltShieldGetResistance( ucChannel ) );
        } else if( isStringSame( ucParams[ 1 ], "voltage" ) || isStringSame( ucParams[ 1 ], "volt" ) ){
            print( STDIO, "\r%d", voltShieldGetVoltage( ucChannel ) );
  d8:	e002      	b.n	e0 <cmd_voltshield+0xe0>
C:\Users\MightyDubster\Documents\Projects\pygmyos\core/pygmy_cmd.c:219
    ucLen = getAllSubStrings( ucBuffer, ucParams, 4, WHITESPACE );

    
    if( isStringSame( ucParams[ 0 ], "set" ) ){
        if( ucLen < 4 ){
            return( FALSE );
  da:	2000      	movs	r0, #0
  dc:	e000      	b.n	e0 <cmd_voltshield+0xe0>
C:\Users\MightyDubster\Documents\Projects\pygmyos\core/pygmy_cmd.c:238
        } else{
            return( FALSE );
        } // else
    } else if( isStringSame( ucParams[ 0 ], "get" ) ){
        if( ucLen < 3 ){
            return( FALSE );
  de:	4620      	mov	r0, r4
C:\Users\MightyDubster\Documents\Projects\pygmyos\core/pygmy_cmd.c:254
    } else{
        return( FALSE );
    } // else

    return( TRUE );
}
  e0:	b005      	add	sp, #20
  e2:	bd30      	pop	{r4, r5, pc}
  e4:	0000007d 	.word	0x0000007d
  e8:	00000081 	.word	0x00000081
  ec:	00000086 	.word	0x00000086
  f0:	0000008f 	.word	0x0000008f
  f4:	00000096 	.word	0x00000096
  f8:	00000099 	.word	0x00000099
  fc:	0000009c 	.word	0x0000009c
 100:	000000a0 	.word	0x000000a0
 104:	000000ab 	.word	0x000000ab
 108:	000000af 	.word	0x000000af
 10c:	000000b7 	.word	0x000000b7
 110:	00000031 	.word	0x00000031

Disassembly of section .text.cmd_modem:

00000000 <cmd_modem>:
cmd_modem():
C:\Users\MightyDubster\Documents\Projects\pygmyos\core/pygmy_cmd.c:260

u8 cmd_modem( u8 *ucBuffer )
{
    //print( COM2, "%s\r", getNextSubString( ucBuffer, NEWLINE ) );
    
    return( cmdExecute( ucBuffer, PYGMYMODEMCMDS ) );
   0:	f7ff4901 	.word	0xf7ff4901
   4:	bffe      	ittt	<und>
   6:	bf00      	nop<und>
   8:	00000000 	.word	0x00000000

Disassembly of section .text.cmd_ps:

00000000 <cmd_ps>:
cmd_ps():
C:\Users\MightyDubster\Documents\Projects\pygmyos\core/pygmy_cmd.c:288

    return( 0 );
}

u8 cmd_ps( u8 *ucBuffer )
{
   0:	b570      	push	{r4, r5, r6, lr}
C:\Users\MightyDubster\Documents\Projects\pygmyos\core/pygmy_cmd.c:294
    PYGMYCOMMANDQUEUE *pygmyQueue;
    PYGMYTASK pygmyTask;
    u16 i, ii;
    u8 *ucParam;

    ucParam = getNextSubString( ucBuffer, WHITESPACE );
   2:	2102      	mov<und>	r1, #2
C:\Users\MightyDubster\Documents\Projects\pygmyos\core/pygmy_cmd.c:288

    return( 0 );
}

u8 cmd_ps( u8 *ucBuffer )
{
   4:	b08a      	sub<und>	sp, #40	; 0x28
C:\Users\MightyDubster\Documents\Projects\pygmyos\core/pygmy_cmd.c:294
    PYGMYCOMMANDQUEUE *pygmyQueue;
    PYGMYTASK pygmyTask;
    u16 i, ii;
    u8 *ucParam;

    ucParam = getNextSubString( ucBuffer, WHITESPACE );
   6:	f7ff fffe 	bl	0 <getNextSubString>
C:\Users\MightyDubster\Documents\Projects\pygmyos\core/pygmy_cmd.c:295
    if( ucParam ){
   a:	4604      	mov	r4, r0
   c:	b150      	cbz	r0, 24 <cmd_ps+0x24>
C:\Users\MightyDubster\Documents\Projects\pygmyos\core/pygmy_cmd.c:296
        if( isStringSame( ucParam, "-s" ) || isStringSame( ucParam, "--sockets" ) ){
   e:	4921      	ldr	r1, [pc, #132]	; (94 <cmd_ps+0x94>)
  10:	f7ff fffe 	bl	0 <isStringSame>
  14:	b920      	cbnz	r0, 20 <cmd_ps+0x20>
  16:	4620      	mov	r0, r4
  18:	491f      	ldr	r1, [pc, #124]	; (98 <cmd_ps+0x98>)
  1a:	f7ff fffe 	bl	0 <isStringSame>
  1e:	b108      	cbz	r0, 6 <rfListSockets+0x6>
C:\Users\MightyDubster\Documents\Projects\pygmyos\core/pygmy_cmd.c:297
            rfListSockets();
  20:	f7ff fffe 	bl	0 <rfListSockets>
C:\Users\MightyDubster\Documents\Projects\pygmyos\core/pygmy_cmd.c:300
        } // if
    } // if
    print( STDIO, "\rTasks\r\r" );
  24:	2000      	movs	r0, #0
  26:	491d      	ldr	r1, [pc, #116]	; (9c <cmd_ps+0x9c>)
  28:	f7ff fffe 	bl	0 <print>
C:\Users\MightyDubster\Documents\Projects\pygmyos\core/pygmy_cmd.c:301
    for( i = 0; i < PYGMY_MAXTASKS; i++ ){
  2c:	2400      	movs	r4, #0
C:\Users\MightyDubster\Documents\Projects\pygmyos\core/pygmy_cmd.c:302
        taskList( &pygmyTask, i );
  2e:	a803      	add	r0, sp, #12
  30:	4621      	mov	r1, r4
  32:	f7ff fffe 	bl	0 <taskList>
C:\Users\MightyDubster\Documents\Projects\pygmyos\core/pygmy_cmd.c:303
        if( pygmyTask.ID ){
  36:	f8bd 2012 	ldrh.w	r2, [sp, #18]
  3a:	b132      	cbz	r2, 4a <cmd_ps+0x4a>
C:\Users\MightyDubster\Documents\Projects\pygmyos\core/pygmy_cmd.c:304
            println( STDIO, "%4d %s %t", pygmyTask.ID, pygmyTask.Name, pygmyTask.TimeStamp );
  3c:	9b08      	ldr	r3, [sp, #32]
  3e:	2000      	movs	r0, #0
  40:	9300      	str	r3, [sp, #0]
  42:	4917      	ldr	r1, [pc, #92]	; (a0 <cmd_ps+0xa0>)
  44:	9b03      	ldr	r3, [sp, #12]
  46:	f7ff fffe 	bl	0 <println>
C:\Users\MightyDubster\Documents\Projects\pygmyos\core/pygmy_cmd.c:301
        if( isStringSame( ucParam, "-s" ) || isStringSame( ucParam, "--sockets" ) ){
            rfListSockets();
        } // if
    } // if
    print( STDIO, "\rTasks\r\r" );
    for( i = 0; i < PYGMY_MAXTASKS; i++ ){
  4a:	3401      	adds	r4, #1
  4c:	b2a4      	uxth	r4, r4
  4e:	2c0f      	cmp	r4, #15
  50:	d1ed      	bne.n	2e <cmd_ps+0x2e>
  52:	3c0f      	subs	r4, #15
C:\Users\MightyDubster\Documents\Projects\pygmyos\core/pygmy_cmd.c:310
        }
    } // for
    
    for( i = 0; i < PYGMY_MAXQUEUES; i++ ){
        
        pygmyQueue = cmdListQueue( i );
  54:	4620      	mov	r0, r4
  56:	f7ff fffe 	bl	0 <cmdListQueue>
C:\Users\MightyDubster\Documents\Projects\pygmyos\core/pygmy_cmd.c:311
        if( !pygmyQueue ){
  5a:	4606      	mov	r6, r0
  5c:	b198      	cbz	r0, 86 <cmd_ps+0x86>
C:\Users\MightyDubster\Documents\Projects\pygmyos\core/pygmy_cmd.c:314
            continue;
        } // if
        print( STDIO, "\rCommand Queue\r\r" );
  5e:	2000      	movs	r0, #0
  60:	4910      	ldr	r1, [pc, #64]	; (a4 <cmd_ps+0xa4>)
  62:	f7ff fffe 	bl	0 <print>
  66:	2500      	movs	r5, #0
C:\Users\MightyDubster\Documents\Projects\pygmyos\core/pygmy_cmd.c:287
{

    return( 0 );
}

u8 cmd_ps( u8 *ucBuffer )
  68:	1972      	adds	r2, r6, r5
C:\Users\MightyDubster\Documents\Projects\pygmyos\core/pygmy_cmd.c:316
        if( !pygmyQueue ){
            continue;
        } // if
        print( STDIO, "\rCommand Queue\r\r" );
        for( ii = 0; ii < PYGMY_MAXCOMMANDS; ii++ ){
            if( pygmyQueue->Commands[ ii ].Status ){
  6a:	7913      	ldrb	r3, [r2, #4]
  6c:	b13b      	cbz	r3, 7e <cmd_ps+0x7e>
C:\Users\MightyDubster\Documents\Projects\pygmyos\core/pygmy_cmd.c:317
                print( STDIO, "\r%s %d %t", pygmyQueue->Commands[ ii ].Name, 
  6e:	6951      	ldr	r1, [r2, #20]
  70:	7953      	ldrb	r3, [r2, #5]
  72:	9100      	str	r1, [sp, #0]
  74:	2000      	movs	r0, #0
  76:	490c      	ldr	r1, [pc, #48]	; (a8 <cmd_ps+0xa8>)
  78:	6892      	ldr	r2, [r2, #8]
  7a:	f7ff fffe 	bl	0 <print>
  7e:	3518      	adds	r5, #24
C:\Users\MightyDubster\Documents\Projects\pygmyos\core/pygmy_cmd.c:315
        pygmyQueue = cmdListQueue( i );
        if( !pygmyQueue ){
            continue;
        } // if
        print( STDIO, "\rCommand Queue\r\r" );
        for( ii = 0; ii < PYGMY_MAXCOMMANDS; ii++ ){
  80:	f5b5 7ff0 	cmp.w	r5, #480	; 0x1e0
  84:	d1f0      	bne.n	68 <cmd_ps+0x68>
C:\Users\MightyDubster\Documents\Projects\pygmyos\core/pygmy_cmd.c:308
        if( pygmyTask.ID ){
            println( STDIO, "%4d %s %t", pygmyTask.ID, pygmyTask.Name, pygmyTask.TimeStamp );
        }
    } // for
    
    for( i = 0; i < PYGMY_MAXQUEUES; i++ ){
  86:	3401      	adds	r4, #1
  88:	b2a4      	uxth	r4, r4
  8a:	2c04      	cmp	r4, #4
  8c:	d1e2      	bne.n	54 <cmd_ps+0x54>
C:\Users\MightyDubster\Documents\Projects\pygmyos\core/pygmy_cmd.c:325
        } // for
         
    } // for

    return( 1 );
}
  8e:	2001      	movs	r0, #1
  90:	b00a      	add	sp, #40	; 0x28
  92:	bd70      	pop	{r4, r5, r6, pc}
  94:	000000bc 	.word	0x000000bc
  98:	000000bf 	.word	0x000000bf
  9c:	000000c9 	.word	0x000000c9
  a0:	000000d2 	.word	0x000000d2
  a4:	000000dc 	.word	0x000000dc
  a8:	000000ed 	.word	0x000000ed

Disassembly of section .text.cmd_kill:

00000000 <cmd_kill>:
cmd_kill():
C:\Users\MightyDubster\Documents\Projects\pygmyos\core/pygmy_cmd.c:331

u8 cmd_kill( u8 *ucBuffer )
{

    return( 0 );
}
   0:	2000      	movs	r0, #0
   2:	4770      	bx	lr

Disassembly of section .text.cmd_time:

00000000 <cmd_time>:
cmd_time():
C:\Users\MightyDubster\Documents\Projects\pygmyos\core/pygmy_cmd.c:337

u8 cmd_time( u8 *ucBuffer )
{

    return( 0 );
}
   0:	2000      	movs	r0, #0
   2:	4770      	bx	lr

Disassembly of section .text.cmd_pipe:

00000000 <cmd_pipe>:
cmd_pipe():
C:\Users\MightyDubster\Documents\Projects\pygmyos\core/pygmy_cmd.c:343

u8 cmd_pipe( u8 *ucBuffer )
{
    
    return( 0 );
}
   0:	2000      	movs	r0, #0
   2:	4770      	bx	lr

Disassembly of section .text.cmdOpenPort:

00000000 <cmdOpenPort>:
cmdOpenPort():
C:\Users\MightyDubster\Documents\Projects\pygmyos\core/pygmy_cmd.c:626
//--------------------------------------------------------------------------------------------

//----------------------------------------Port Commands---------------------------------------
//--------------------------------------------------------------------------------------------
u8 cmdOpenPort( u8 ucProtocol, u8 ucPin0, u8 ucPin1, u8 ucPin2, u8 ucPin3, u8 ucAddress )
{
   0:	e92d 4ff7 	stmdb	sp!, {r0, r1, r2, r4, r5, r6, r7, r8, r9, sl, fp, lr}
   4:	4e30      	ldr	r6, [pc, #192]	; (c8 <cmdOpenPort+0xc8>)
   6:	f89d b030 	ldrb.w	fp, [sp, #48]	; 0x30
   a:	f89d 5034 	ldrb.w	r5, [sp, #52]	; 0x34
C:\Users\MightyDubster\Documents\Projects\pygmyos\core/pygmy_cmd.c:629
    u8 i, ii;

    if( ucProtocol ){
   e:	b350      	cbz	r0, 66 <cmdOpenPort+0x66>
C:\Users\MightyDubster\Documents\Projects\pygmyos\core/pygmy_cmd.c:633
        for( i = 0; i < __PYGMY_MAXCOMMANDPORTS; i++ ){
            if( globalCMDPorts[ i ].SPI == 0xFF && globalCMDPorts[ i ].I2C == 0xFF ){
                for( ii = 0; ii < __PYGMY_MAXCOMMANDSPIPORTS; ii++ ){
                    if( globalSPIPorts[ ii ].CR == 0xFF ){
  10:	4c2e      	ldr	r4, [pc, #184]	; (cc <cmdOpenPort+0xcc>)
  12:	2500      	movs	r5, #0
  14:	f8b4 8018 	ldrh.w	r8, [r4, #24]
  18:	8ea0      	ldrh	r0, [r4, #52]	; 0x34
  1a:	462f      	mov	r7, r5
  1c:	46a4      	mov	ip, r4
C:\Users\MightyDubster\Documents\Projects\pygmyos\core/pygmy_cmd.c:631
{
    u8 i, ii;

    if( ucProtocol ){
        for( i = 0; i < __PYGMY_MAXCOMMANDPORTS; i++ ){
            if( globalCMDPorts[ i ].SPI == 0xFF && globalCMDPorts[ i ].I2C == 0xFF ){
  1e:	f816 a005 	ldrb.w	sl, [r6, r5]
C:\Users\MightyDubster\Documents\Projects\pygmyos\core/pygmy_cmd.c:633
                for( ii = 0; ii < __PYGMY_MAXCOMMANDSPIPORTS; ii++ ){
                    if( globalSPIPorts[ ii ].CR == 0xFF ){
  22:	b2fc      	uxtb	r4, r7
C:\Users\MightyDubster\Documents\Projects\pygmyos\core/pygmy_cmd.c:631
{
    u8 i, ii;

    if( ucProtocol ){
        for( i = 0; i < __PYGMY_MAXCOMMANDPORTS; i++ ){
            if( globalCMDPorts[ i ].SPI == 0xFF && globalCMDPorts[ i ].I2C == 0xFF ){
  24:	f1ba 0fff 	cmp.w	sl, #255	; 0xff
  28:	eb06 0905 	add.w	r9, r6, r5
  2c:	d116      	bne.n	5c <cmdOpenPort+0x5c>
  2e:	f899 9001 	ldrb.w	r9, [r9, #1]
  32:	f1b9 0fff 	cmp.w	r9, #255	; 0xff
  36:	d111      	bne.n	5c <cmdOpenPort+0x5c>
C:\Users\MightyDubster\Documents\Projects\pygmyos\core/pygmy_cmd.c:633
                for( ii = 0; ii < __PYGMY_MAXCOMMANDSPIPORTS; ii++ ){
                    if( globalSPIPorts[ ii ].CR == 0xFF ){
  38:	f1b8 0fff 	cmp.w	r8, #255	; 0xff
  3c:	d003      	beq.n	46 <cmdOpenPort+0x46>
  3e:	28ff      	cmp	r0, #255	; 0xff
  40:	d10c      	bne.n	5c <cmdOpenPort+0x5c>
C:\Users\MightyDubster\Documents\Projects\pygmyos\core/pygmy_cmd.c:632
    u8 i, ii;

    if( ucProtocol ){
        for( i = 0; i < __PYGMY_MAXCOMMANDPORTS; i++ ){
            if( globalCMDPorts[ i ].SPI == 0xFF && globalCMDPorts[ i ].I2C == 0xFF ){
                for( ii = 0; ii < __PYGMY_MAXCOMMANDSPIPORTS; ii++ ){
  42:	38fe      	subs	r0, #254	; 0xfe
  44:	e000      	b.n	48 <cmdOpenPort+0x48>
C:\Users\MightyDubster\Documents\Projects\pygmyos\core/pygmy_cmd.c:633
                    if( globalSPIPorts[ ii ].CR == 0xFF ){
  46:	2000      	movs	r0, #0
C:\Users\MightyDubster\Documents\Projects\pygmyos\core/pygmy_cmd.c:635
                        globalCMDPorts[ i ].SPI = ii;
                        spiConfig( &globalSPIPorts[ globalCMDPorts[ i ].SPI ] , ucPin0, ucPin1, ucPin2, ucPin3 );
  48:	251c      	movs	r5, #28
C:\Users\MightyDubster\Documents\Projects\pygmyos\core/pygmy_cmd.c:634
    if( ucProtocol ){
        for( i = 0; i < __PYGMY_MAXCOMMANDPORTS; i++ ){
            if( globalCMDPorts[ i ].SPI == 0xFF && globalCMDPorts[ i ].I2C == 0xFF ){
                for( ii = 0; ii < __PYGMY_MAXCOMMANDSPIPORTS; ii++ ){
                    if( globalSPIPorts[ ii ].CR == 0xFF ){
                        globalCMDPorts[ i ].SPI = ii;
  4a:	f806 0017 	strb.w	r0, [r6, r7, lsl #1]
C:\Users\MightyDubster\Documents\Projects\pygmyos\core/pygmy_cmd.c:635
                        spiConfig( &globalSPIPorts[ globalCMDPorts[ i ].SPI ] , ucPin0, ucPin1, ucPin2, ucPin3 );
  4e:	fb05 c000 	mla	r0, r5, r0, ip
  52:	f8cd b000 	str.w	fp, [sp]
  56:	f7ff fffe 	bl	0 <spiConfig>
C:\Users\MightyDubster\Documents\Projects\pygmyos\core/pygmy_cmd.c:636
                        return( i );
  5a:	e032      	b.n	c2 <cmdOpenPort+0xc2>
  5c:	3502      	adds	r5, #2
  5e:	3701      	adds	r7, #1
C:\Users\MightyDubster\Documents\Projects\pygmyos\core/pygmy_cmd.c:630
u8 cmdOpenPort( u8 ucProtocol, u8 ucPin0, u8 ucPin1, u8 ucPin2, u8 ucPin3, u8 ucAddress )
{
    u8 i, ii;

    if( ucProtocol ){
        for( i = 0; i < __PYGMY_MAXCOMMANDPORTS; i++ ){
  60:	2d08      	cmp	r5, #8
  62:	d1dc      	bne.n	1e <cmdOpenPort+0x1e>
  64:	e02c      	b.n	c0 <cmdOpenPort+0xc0>
C:\Users\MightyDubster\Documents\Projects\pygmyos\core/pygmy_cmd.c:645
        } // if  
    } else{
        for( i = 0; i < __PYGMY_MAXCOMMANDPORTS; i++ ){
            if( globalCMDPorts[ i ].SPI == 0xFF && globalCMDPorts[ i ].I2C == 0xFF ){
                for( ii = 0; ii < __PYGMY_MAXCOMMANDI2CPORTS; ii++ ){
                    if( globalI2CPorts[ ii ].CR == 0xFF ){
  66:	4c1a      	ldr	r4, [pc, #104]	; (d0 <cmdOpenPort+0xd0>)
  68:	4603      	mov	r3, r0
  6a:	f8b4 8012 	ldrh.w	r8, [r4, #18]
  6e:	f8b4 c026 	ldrh.w	ip, [r4, #38]	; 0x26
  72:	4627      	mov	r7, r4
C:\Users\MightyDubster\Documents\Projects\pygmyos\core/pygmy_cmd.c:643
                } // for
            } // 
        } // if  
    } else{
        for( i = 0; i < __PYGMY_MAXCOMMANDPORTS; i++ ){
            if( globalCMDPorts[ i ].SPI == 0xFF && globalCMDPorts[ i ].I2C == 0xFF ){
  74:	f816 a000 	ldrb.w	sl, [r6, r0]
C:\Users\MightyDubster\Documents\Projects\pygmyos\core/pygmy_cmd.c:645
                for( ii = 0; ii < __PYGMY_MAXCOMMANDI2CPORTS; ii++ ){
                    if( globalI2CPorts[ ii ].CR == 0xFF ){
  78:	b2dc      	uxtb	r4, r3
C:\Users\MightyDubster\Documents\Projects\pygmyos\core/pygmy_cmd.c:643
                } // for
            } // 
        } // if  
    } else{
        for( i = 0; i < __PYGMY_MAXCOMMANDPORTS; i++ ){
            if( globalCMDPorts[ i ].SPI == 0xFF && globalCMDPorts[ i ].I2C == 0xFF ){
  7a:	f1ba 0fff 	cmp.w	sl, #255	; 0xff
  7e:	eb06 0900 	add.w	r9, r6, r0
  82:	d119      	bne.n	b8 <cmdOpenPort+0xb8>
  84:	f899 9001 	ldrb.w	r9, [r9, #1]
  88:	f1b9 0fff 	cmp.w	r9, #255	; 0xff
  8c:	d114      	bne.n	b8 <cmdOpenPort+0xb8>
C:\Users\MightyDubster\Documents\Projects\pygmyos\core/pygmy_cmd.c:645
                for( ii = 0; ii < __PYGMY_MAXCOMMANDI2CPORTS; ii++ ){
                    if( globalI2CPorts[ ii ].CR == 0xFF ){
  8e:	f1b8 0fff 	cmp.w	r8, #255	; 0xff
  92:	d004      	beq.n	9e <cmdOpenPort+0x9e>
  94:	f1bc 0fff 	cmp.w	ip, #255	; 0xff
  98:	d10e      	bne.n	b8 <cmdOpenPort+0xb8>
C:\Users\MightyDubster\Documents\Projects\pygmyos\core/pygmy_cmd.c:644
            } // 
        } // if  
    } else{
        for( i = 0; i < __PYGMY_MAXCOMMANDPORTS; i++ ){
            if( globalCMDPorts[ i ].SPI == 0xFF && globalCMDPorts[ i ].I2C == 0xFF ){
                for( ii = 0; ii < __PYGMY_MAXCOMMANDI2CPORTS; ii++ ){
  9a:	2001      	movs	r0, #1
  9c:	e000      	b.n	a0 <cmdOpenPort+0xa0>
C:\Users\MightyDubster\Documents\Projects\pygmyos\core/pygmy_cmd.c:645
                    if( globalI2CPorts[ ii ].CR == 0xFF ){
  9e:	2000      	movs	r0, #0
C:\Users\MightyDubster\Documents\Projects\pygmyos\core/pygmy_cmd.c:646
                        globalCMDPorts[ i ].I2C = ii;
  a0:	eb06 0643 	add.w	r6, r6, r3, lsl #1
C:\Users\MightyDubster\Documents\Projects\pygmyos\core/pygmy_cmd.c:648
                        //print( STDIO, "\rOpening i2c on %d %d @ %d", ucPin0, ucPin1, ucAddress );
                        i2cConfig( &globalI2CPorts[ globalCMDPorts[ i ].I2C ] , ucPin0, ucPin1, ucAddress, 0 );
  a4:	2300      	movs	r3, #0
C:\Users\MightyDubster\Documents\Projects\pygmyos\core/pygmy_cmd.c:646
    } else{
        for( i = 0; i < __PYGMY_MAXCOMMANDPORTS; i++ ){
            if( globalCMDPorts[ i ].SPI == 0xFF && globalCMDPorts[ i ].I2C == 0xFF ){
                for( ii = 0; ii < __PYGMY_MAXCOMMANDI2CPORTS; ii++ ){
                    if( globalI2CPorts[ ii ].CR == 0xFF ){
                        globalCMDPorts[ i ].I2C = ii;
  a6:	7070      	strb	r0, [r6, #1]
C:\Users\MightyDubster\Documents\Projects\pygmyos\core/pygmy_cmd.c:648
                        //print( STDIO, "\rOpening i2c on %d %d @ %d", ucPin0, ucPin1, ucAddress );
                        i2cConfig( &globalI2CPorts[ globalCMDPorts[ i ].I2C ] , ucPin0, ucPin1, ucAddress, 0 );
  a8:	9300      	str	r3, [sp, #0]
  aa:	3314      	adds	r3, #20
  ac:	fb03 7000 	mla	r0, r3, r0, r7
  b0:	462b      	mov	r3, r5
  b2:	f7ff fffe 	bl	0 <i2cConfig>
C:\Users\MightyDubster\Documents\Projects\pygmyos\core/pygmy_cmd.c:649
                        return( i );
  b6:	e004      	b.n	c2 <cmdOpenPort+0xc2>
  b8:	3301      	adds	r3, #1
  ba:	3002      	adds	r0, #2
C:\Users\MightyDubster\Documents\Projects\pygmyos\core/pygmy_cmd.c:642
                    } // if
                } // for
            } // 
        } // if  
    } else{
        for( i = 0; i < __PYGMY_MAXCOMMANDPORTS; i++ ){
  bc:	2b04      	cmp	r3, #4
  be:	d1d9      	bne.n	74 <cmdOpenPort+0x74>
C:\Users\MightyDubster\Documents\Projects\pygmyos\core/pygmy_cmd.c:658
        } // if
        //print( STDIO, "\rPort opened for address %d", ucAddress );
        //i2cConfig( &globalI2CPort, ucPin0, ucPin1, ucAddress, 0  );
    } // else

    return( 0xFF );
  c0:	24ff      	movs	r4, #255	; 0xff
C:\Users\MightyDubster\Documents\Projects\pygmyos\core/pygmy_cmd.c:659
}
  c2:	4620      	mov	r0, r4
  c4:	e8bd 8ffe 	ldmia.w	sp!, {r1, r2, r3, r4, r5, r6, r7, r8, r9, sl, fp, pc}
	...

Disassembly of section .text.cmdWritePort:

00000000 <cmdWritePort>:
cmdWritePort():
C:\Users\MightyDubster\Documents\Projects\pygmyos\core/pygmy_cmd.c:662

u8 cmdWritePort( u8 ucCOM, u32 ulAddress, u8 *ucBuffer, u16 uiLen )
{
   0:	b5f8      	push	{r3, r4, r5, r6, r7, lr}
C:\Users\MightyDubster\Documents\Projects\pygmyos\core/pygmy_cmd.c:663
    ucCOM -= __PYGMY_FIRSTUSERCOMPORT;
   2:	3814      	subs	r0, #20
C:\Users\MightyDubster\Documents\Projects\pygmyos\core/pygmy_cmd.c:664
    if( globalCMDPorts[ ucCOM ].SPI != 0xFF ){
   4:	4e10      	ldr	r6, [pc, #64]	; (48 <cmdWritePort+0x48>)
   6:	b2c7      	uxtb	r7, r0
   8:	f816 c017 	ldrb.w	ip, [r6, r7, lsl #1]
C:\Users\MightyDubster\Documents\Projects\pygmyos\core/pygmy_cmd.c:662

    return( 0xFF );
}

u8 cmdWritePort( u8 ucCOM, u32 ulAddress, u8 *ucBuffer, u16 uiLen )
{
   c:	4615      	mov	r5, r2
C:\Users\MightyDubster\Documents\Projects\pygmyos\core/pygmy_cmd.c:664
    ucCOM -= __PYGMY_FIRSTUSERCOMPORT;
    if( globalCMDPorts[ ucCOM ].SPI != 0xFF ){
   e:	f1bc 0fff 	cmp.w	ip, #255	; 0xff
C:\Users\MightyDubster\Documents\Projects\pygmyos\core/pygmy_cmd.c:662

    return( 0xFF );
}

u8 cmdWritePort( u8 ucCOM, u32 ulAddress, u8 *ucBuffer, u16 uiLen )
{
  12:	461c      	mov	r4, r3
C:\Users\MightyDubster\Documents\Projects\pygmyos\core/pygmy_cmd.c:664
    ucCOM -= __PYGMY_FIRSTUSERCOMPORT;
    if( globalCMDPorts[ ucCOM ].SPI != 0xFF ){
  14:	d008      	beq.n	28 <cmdWritePort+0x28>
C:\Users\MightyDubster\Documents\Projects\pygmyos\core/pygmy_cmd.c:665
        spiWriteBuffer( &globalSPIPorts[ globalCMDPorts[ ucCOM ].SPI ], ucBuffer, uiLen );
  16:	4b0d      	ldr	r3, [pc, #52]	; (4c <cmdWritePort+0x4c>)
  18:	201c      	movs	r0, #28
  1a:	4611      	mov	r1, r2
  1c:	fb00 300c 	mla	r0, r0, ip, r3
  20:	4622      	mov	r2, r4
  22:	f7ff fffe 	bl	0 <spiWriteBuffer>
  26:	e00b      	b.n	40 <cmdWritePort+0x40>
C:\Users\MightyDubster\Documents\Projects\pygmyos\core/pygmy_cmd.c:667
        return( 1 );
    } else if( globalCMDPorts[ ucCOM ].I2C != 0xFF ){
  28:	eb06 0647 	add.w	r6, r6, r7, lsl #1
  2c:	7874      	ldrb	r4, [r6, #1]
  2e:	2cff      	cmp	r4, #255	; 0xff
  30:	d008      	beq.n	44 <cmdWritePort+0x44>
C:\Users\MightyDubster\Documents\Projects\pygmyos\core/pygmy_cmd.c:668
        i2cWriteBuffer( &globalI2CPorts[ globalCMDPorts[ ucCOM ].I2C ], (u8)ulAddress, ucBuffer, uiLen );
  32:	4807      	ldr	r0, [pc, #28]	; (50 <cmdWritePort+0x50>)
  34:	2514      	movs	r5, #20
  36:	fb05 0004 	mla	r0, r5, r4, r0
  3a:	b2c9      	uxtb	r1, r1
  3c:	f7ff fffe 	bl	0 <i2cWriteBuffer>
C:\Users\MightyDubster\Documents\Projects\pygmyos\core/pygmy_cmd.c:669
        return( 1 );
  40:	2001      	movs	r0, #1
  42:	bdf8      	pop	{r3, r4, r5, r6, r7, pc}
C:\Users\MightyDubster\Documents\Projects\pygmyos\core/pygmy_cmd.c:672
    } // else if
    
    return( 0 );
  44:	2000      	movs	r0, #0
C:\Users\MightyDubster\Documents\Projects\pygmyos\core/pygmy_cmd.c:673
}
  46:	bdf8      	pop	{r3, r4, r5, r6, r7, pc}
	...

Disassembly of section .text.cmdReadPort:

00000000 <cmdReadPort>:
cmdReadPort():
C:\Users\MightyDubster\Documents\Projects\pygmyos\core/pygmy_cmd.c:676

u8 cmdReadPort( u8 ucCOM, u32 ulAddress, u8 *ucBuffer, u16 uiLen )
{
   0:	b5f8      	push	{r3, r4, r5, r6, r7, lr}
C:\Users\MightyDubster\Documents\Projects\pygmyos\core/pygmy_cmd.c:677
    ucCOM -= __PYGMY_FIRSTUSERCOMPORT;
   2:	3814      	subs	r0, #20
C:\Users\MightyDubster\Documents\Projects\pygmyos\core/pygmy_cmd.c:678
    if( globalCMDPorts[ ucCOM ].SPI != 0xFF ){
   4:	4e10      	ldr	r6, [pc, #64]	; (48 <cmdReadPort+0x48>)
   6:	b2c7      	uxtb	r7, r0
   8:	f816 c017 	ldrb.w	ip, [r6, r7, lsl #1]
C:\Users\MightyDubster\Documents\Projects\pygmyos\core/pygmy_cmd.c:676
    
    return( 0 );
}

u8 cmdReadPort( u8 ucCOM, u32 ulAddress, u8 *ucBuffer, u16 uiLen )
{
   c:	4615      	mov	r5, r2
C:\Users\MightyDubster\Documents\Projects\pygmyos\core/pygmy_cmd.c:678
    ucCOM -= __PYGMY_FIRSTUSERCOMPORT;
    if( globalCMDPorts[ ucCOM ].SPI != 0xFF ){
   e:	f1bc 0fff 	cmp.w	ip, #255	; 0xff
C:\Users\MightyDubster\Documents\Projects\pygmyos\core/pygmy_cmd.c:676
    
    return( 0 );
}

u8 cmdReadPort( u8 ucCOM, u32 ulAddress, u8 *ucBuffer, u16 uiLen )
{
  12:	461c      	mov	r4, r3
C:\Users\MightyDubster\Documents\Projects\pygmyos\core/pygmy_cmd.c:678
    ucCOM -= __PYGMY_FIRSTUSERCOMPORT;
    if( globalCMDPorts[ ucCOM ].SPI != 0xFF ){
  14:	d008      	beq.n	28 <cmdReadPort+0x28>
C:\Users\MightyDubster\Documents\Projects\pygmyos\core/pygmy_cmd.c:679
        spiReadBuffer( &globalSPIPorts[ globalCMDPorts[ ucCOM ].SPI ], ucBuffer, uiLen );
  16:	4b0d      	ldr	r3, [pc, #52]	; (4c <cmdReadPort+0x4c>)
  18:	201c      	movs	r0, #28
  1a:	4611      	mov	r1, r2
  1c:	fb00 300c 	mla	r0, r0, ip, r3
  20:	4622      	mov	r2, r4
  22:	f7ff fffe 	bl	0 <spiReadBuffer>
  26:	e00b      	b.n	40 <cmdReadPort+0x40>
C:\Users\MightyDubster\Documents\Projects\pygmyos\core/pygmy_cmd.c:681
        return( 1 );
    } else if( globalCMDPorts[ ucCOM ].I2C != 0xFF ){
  28:	eb06 0647 	add.w	r6, r6, r7, lsl #1
  2c:	7874      	ldrb	r4, [r6, #1]
  2e:	2cff      	cmp	r4, #255	; 0xff
  30:	d008      	beq.n	44 <cmdReadPort+0x44>
C:\Users\MightyDubster\Documents\Projects\pygmyos\core/pygmy_cmd.c:682
        i2cReadBuffer( &globalI2CPorts[ globalCMDPorts[ ucCOM ].I2C ], (u8)ulAddress, ucBuffer, uiLen );
  32:	4807      	ldr	r0, [pc, #28]	; (50 <cmdReadPort+0x50>)
  34:	2514      	movs	r5, #20
  36:	fb05 0004 	mla	r0, r5, r4, r0
  3a:	b2c9      	uxtb	r1, r1
  3c:	f7ff fffe 	bl	0 <i2cReadBuffer>
C:\Users\MightyDubster\Documents\Projects\pygmyos\core/pygmy_cmd.c:683
        return( 1 );
  40:	2001      	movs	r0, #1
  42:	bdf8      	pop	{r3, r4, r5, r6, r7, pc}
C:\Users\MightyDubster\Documents\Projects\pygmyos\core/pygmy_cmd.c:686
    } // else if
    
    return( 0 );
  44:	2000      	movs	r0, #0
C:\Users\MightyDubster\Documents\Projects\pygmyos\core/pygmy_cmd.c:687
}
  46:	bdf8      	pop	{r3, r4, r5, r6, r7, pc}
	...

Disassembly of section .text.cmd_port:

00000000 <cmd_port>:
cmd_port():
C:\Users\MightyDubster\Documents\Projects\pygmyos\core/pygmy_cmd.c:690

u8 cmd_port( u8 *ucBuffer )
{
   0:	e92d 4ff0 	stmdb	sp!, {r4, r5, r6, r7, r8, r9, sl, fp, lr}
   4:	b0c7      	sub	sp, #284	; 0x11c
C:\Users\MightyDubster\Documents\Projects\pygmyos\core/pygmy_cmd.c:695
    u8 ucData[4], ucAction, ucAddress, ucCOM, ucProtocol, ucPin0, ucPin1, ucPin2, ucPin3, *ucParam;
    u16 i, uiLen;
    u8 *ucStrings[ 64 ];
    
    uiLen = getAllSubStrings( ucBuffer, ucStrings, 64, WHITESPACE ); 
   6:	a905      	add	r1, sp, #20
   8:	2240      	movs	r2, #64	; 0x40
   a:	2302      	movs	r3, #2
   c:	f7ff fffe 	bl	0 <getAllSubStrings>
  10:	4604      	mov	r4, r0
C:\Users\MightyDubster\Documents\Projects\pygmyos\core/pygmy_cmd.c:696
    print( STDIO, "\r%d strings: ", uiLen );
  12:	4985      	ldr	r1, [pc, #532]	; (228 <cmd_port+0x228>)
  14:	2000      	movs	r0, #0
  16:	4622      	mov	r2, r4
  18:	f7ff fffe 	bl	0 <print>
  1c:	f10d 0910 	add.w	r9, sp, #16
C:\Users\MightyDubster\Documents\Projects\pygmyos\core/pygmy_cmd.c:697
    for( i = 0; i < uiLen; i++ ){
  20:	f04f 0800 	mov.w	r8, #0
  24:	e009      	b.n	3a <cmd_port+0x3a>
C:\Users\MightyDubster\Documents\Projects\pygmyos\core/pygmy_cmd.c:698
        print( STDIO, " (%s)", ucStrings[ i ] );
  26:	2000      	movs	r0, #0
  28:	4980      	ldr	r1, [pc, #512]	; (22c <cmd_port+0x22c>)
  2a:	f859 2f04 	ldr.w	r2, [r9, #4]!
  2e:	f7ff fffe 	bl	0 <print>
C:\Users\MightyDubster\Documents\Projects\pygmyos\core/pygmy_cmd.c:697
    u16 i, uiLen;
    u8 *ucStrings[ 64 ];
    
    uiLen = getAllSubStrings( ucBuffer, ucStrings, 64, WHITESPACE ); 
    print( STDIO, "\r%d strings: ", uiLen );
    for( i = 0; i < uiLen; i++ ){
  32:	f108 0801 	add.w	r8, r8, #1
  36:	fa1f f888 	uxth.w	r8, r8
  3a:	45a0      	cmp	r8, r4
  3c:	d3f3      	bcc.n	26 <cmd_port+0x26>
C:\Users\MightyDubster\Documents\Projects\pygmyos\core/pygmy_cmd.c:700
        print( STDIO, " (%s)", ucStrings[ i ] );
    } // for
    print( STDIO, "\rTesting action..." );
  3e:	2000      	movs	r0, #0
  40:	497b      	ldr	r1, [pc, #492]	; (230 <cmd_port+0x230>)
  42:	f7ff fffe 	bl	0 <print>
C:\Users\MightyDubster\Documents\Projects\pygmyos\core/pygmy_cmd.c:701
    if( isStringSameIgnoreCase( ucStrings[ 0 ], "open" ) ){
  46:	9805      	ldr	r0, [sp, #20]
  48:	497a      	ldr	r1, [pc, #488]	; (234 <cmd_port+0x234>)
  4a:	f7ff fffe 	bl	0 <isStringSameIgnoreCase>
  4e:	4680      	mov	r8, r0
  50:	2800      	cmp	r0, #0
  52:	d058      	beq.n	106 <cmd_port+0x106>
C:\Users\MightyDubster\Documents\Projects\pygmyos\core/pygmy_cmd.c:702
        print( STDIO, "Open detected\rTesting protocol..." );
  54:	2000      	movs	r0, #0
  56:	4978      	ldr	r1, [pc, #480]	; (238 <cmd_port+0x238>)
  58:	f7ff fffe 	bl	0 <print>
C:\Users\MightyDubster\Documents\Projects\pygmyos\core/pygmy_cmd.c:703
        if( isStringSameIgnoreCase( ucStrings[ 1 ], "i2c" ) ){
  5c:	9806      	ldr	r0, [sp, #24]
  5e:	4977      	ldr	r1, [pc, #476]	; (23c <cmd_port+0x23c>)
  60:	f7ff fffe 	bl	0 <isStringSameIgnoreCase>
  64:	4604      	mov	r4, r0
  66:	b198      	cbz	r0, 90 <cmd_port+0x90>
C:\Users\MightyDubster\Documents\Projects\pygmyos\core/pygmy_cmd.c:704
            print( STDIO, "i2c detected" );
  68:	4975      	ldr	r1, [pc, #468]	; (240 <cmd_port+0x240>)
  6a:	2000      	movs	r0, #0
  6c:	f7ff fffe 	bl	0 <print>
C:\Users\MightyDubster\Documents\Projects\pygmyos\core/pygmy_cmd.c:706
            ucProtocol = 0;
            ucPin0 = convertStringToPin( ucStrings[ 2 ] );
  70:	9807      	ldr	r0, [sp, #28]
  72:	f7ff fffe 	bl	0 <convertStringToPin>
  76:	4606      	mov	r6, r0
C:\Users\MightyDubster\Documents\Projects\pygmyos\core/pygmy_cmd.c:707
            ucPin1 = convertStringToPin( ucStrings[ 3 ] );
  78:	9808      	ldr	r0, [sp, #32]
  7a:	f7ff fffe 	bl	0 <convertStringToPin>
  7e:	4605      	mov	r5, r0
C:\Users\MightyDubster\Documents\Projects\pygmyos\core/pygmy_cmd.c:708
            ucAddress = convertStringToInt( ucStrings[ 4 ] );
  80:	9809      	ldr	r0, [sp, #36]	; 0x24
  82:	f7ff fffe 	bl	0 <convertStringToInt>
  86:	b2c0      	uxtb	r0, r0
  88:	9003      	str	r0, [sp, #12]
C:\Users\MightyDubster\Documents\Projects\pygmyos\core/pygmy_cmd.c:705
    print( STDIO, "\rTesting action..." );
    if( isStringSameIgnoreCase( ucStrings[ 0 ], "open" ) ){
        print( STDIO, "Open detected\rTesting protocol..." );
        if( isStringSameIgnoreCase( ucStrings[ 1 ], "i2c" ) ){
            print( STDIO, "i2c detected" );
            ucProtocol = 0;
  8a:	f04f 0a00 	mov.w	sl, #0
  8e:	e023      	b.n	d8 <cmd_port+0xd8>
C:\Users\MightyDubster\Documents\Projects\pygmyos\core/pygmy_cmd.c:709
            ucPin0 = convertStringToPin( ucStrings[ 2 ] );
            ucPin1 = convertStringToPin( ucStrings[ 3 ] );
            ucAddress = convertStringToInt( ucStrings[ 4 ] );
        } else if( isStringSameIgnoreCase( ucStrings[ 1 ], "spi" ) ){
  90:	9806      	ldr	r0, [sp, #24]
  92:	496c      	ldr	r1, [pc, #432]	; (244 <cmd_port+0x244>)
  94:	f7ff fffe 	bl	0 <isStringSameIgnoreCase>
  98:	b1f0      	cbz	r0, d8 <cmd_port+0xd8>
C:\Users\MightyDubster\Documents\Projects\pygmyos\core/pygmy_cmd.c:710
            print( STDIO, "spi detected" );
  9a:	496b      	ldr	r1, [pc, #428]	; (248 <cmd_port+0x248>)
  9c:	4620      	mov	r0, r4
  9e:	f7ff fffe 	bl	0 <print>
C:\Users\MightyDubster\Documents\Projects\pygmyos\core/pygmy_cmd.c:712
            ucProtocol = 1;
            ucPin0 = convertStringToPin( ucStrings[ 2 ] );
  a2:	9807      	ldr	r0, [sp, #28]
  a4:	f7ff fffe 	bl	0 <convertStringToPin>
  a8:	4606      	mov	r6, r0
C:\Users\MightyDubster\Documents\Projects\pygmyos\core/pygmy_cmd.c:713
            ucPin1 = convertStringToPin( ucStrings[ 3 ] );
  aa:	9808      	ldr	r0, [sp, #32]
  ac:	f7ff fffe 	bl	0 <convertStringToPin>
  b0:	4605      	mov	r5, r0
C:\Users\MightyDubster\Documents\Projects\pygmyos\core/pygmy_cmd.c:714
            ucPin2 = convertStringToPin( ucStrings[ 4 ] );
  b2:	9809      	ldr	r0, [sp, #36]	; 0x24
  b4:	f7ff fffe 	bl	0 <convertStringToPin>
  b8:	4683      	mov	fp, r0
C:\Users\MightyDubster\Documents\Projects\pygmyos\core/pygmy_cmd.c:715
            ucPin3 = convertStringToPin( ucStrings[ 5 ] );
  ba:	980a      	ldr	r0, [sp, #40]	; 0x28
  bc:	f7ff fffe 	bl	0 <convertStringToPin>
C:\Users\MightyDubster\Documents\Projects\pygmyos\core/pygmy_cmd.c:716
            print( STDIO, "\rCS=%d SCK=%d MISO=%d MOSI=%d", ucPin0, ucPin1, ucPin2, ucPin3 );
  c0:	4962      	ldr	r1, [pc, #392]	; (24c <cmd_port+0x24c>)
  c2:	9001      	str	r0, [sp, #4]
C:\Users\MightyDubster\Documents\Projects\pygmyos\core/pygmy_cmd.c:715
            print( STDIO, "spi detected" );
            ucProtocol = 1;
            ucPin0 = convertStringToPin( ucStrings[ 2 ] );
            ucPin1 = convertStringToPin( ucStrings[ 3 ] );
            ucPin2 = convertStringToPin( ucStrings[ 4 ] );
            ucPin3 = convertStringToPin( ucStrings[ 5 ] );
  c4:	4607      	mov	r7, r0
C:\Users\MightyDubster\Documents\Projects\pygmyos\core/pygmy_cmd.c:716
            print( STDIO, "\rCS=%d SCK=%d MISO=%d MOSI=%d", ucPin0, ucPin1, ucPin2, ucPin3 );
  c6:	4632      	mov	r2, r6
  c8:	4620      	mov	r0, r4
  ca:	462b      	mov	r3, r5
  cc:	f8cd b000 	str.w	fp, [sp]
  d0:	f7ff fffe 	bl	0 <print>
C:\Users\MightyDubster\Documents\Projects\pygmyos\core/pygmy_cmd.c:711
            ucPin0 = convertStringToPin( ucStrings[ 2 ] );
            ucPin1 = convertStringToPin( ucStrings[ 3 ] );
            ucAddress = convertStringToInt( ucStrings[ 4 ] );
        } else if( isStringSameIgnoreCase( ucStrings[ 1 ], "spi" ) ){
            print( STDIO, "spi detected" );
            ucProtocol = 1;
  d4:	f04f 0a01 	mov.w	sl, #1
C:\Users\MightyDubster\Documents\Projects\pygmyos\core/pygmy_cmd.c:718
            ucPin1 = convertStringToPin( ucStrings[ 3 ] );
            ucPin2 = convertStringToPin( ucStrings[ 4 ] );
            ucPin3 = convertStringToPin( ucStrings[ 5 ] );
            print( STDIO, "\rCS=%d SCK=%d MISO=%d MOSI=%d", ucPin0, ucPin1, ucPin2, ucPin3 );
        } // else if
        print( STDIO, "\rOpening port..." );
  d8:	2000      	movs	r0, #0
  da:	495d      	ldr	r1, [pc, #372]	; (250 <cmd_port+0x250>)
  dc:	f7ff fffe 	bl	0 <print>
C:\Users\MightyDubster\Documents\Projects\pygmyos\core/pygmy_cmd.c:719
        ucCOM = cmdOpenPort( ucProtocol, ucPin0, ucPin1, ucPin2, ucPin3, ucAddress );
  e0:	9a03      	ldr	r2, [sp, #12]
  e2:	4650      	mov	r0, sl
  e4:	9201      	str	r2, [sp, #4]
  e6:	4631      	mov	r1, r6
  e8:	462a      	mov	r2, r5
  ea:	465b      	mov	r3, fp
  ec:	9700      	str	r7, [sp, #0]
  ee:	f7ff fffe 	bl	0 <cmd_port>
C:\Users\MightyDubster\Documents\Projects\pygmyos\core/pygmy_cmd.c:720
        if( ucCOM != 0xFF ){
  f2:	28ff      	cmp	r0, #255	; 0xff
C:\Users\MightyDubster\Documents\Projects\pygmyos\core/pygmy_cmd.c:719
            ucPin2 = convertStringToPin( ucStrings[ 4 ] );
            ucPin3 = convertStringToPin( ucStrings[ 5 ] );
            print( STDIO, "\rCS=%d SCK=%d MISO=%d MOSI=%d", ucPin0, ucPin1, ucPin2, ucPin3 );
        } // else if
        print( STDIO, "\rOpening port..." );
        ucCOM = cmdOpenPort( ucProtocol, ucPin0, ucPin1, ucPin2, ucPin3, ucAddress );
  f4:	4602      	mov	r2, r0
C:\Users\MightyDubster\Documents\Projects\pygmyos\core/pygmy_cmd.c:720
        if( ucCOM != 0xFF ){
  f6:	f000 8090 	beq.w	21a <cmd_port+0x21a>
C:\Users\MightyDubster\Documents\Projects\pygmyos\core/pygmy_cmd.c:721
            print( STDIO, "\rCOM%d", __PYGMY_FIRSTUSERCOMPORT + ucCOM );
  fa:	2000      	movs	r0, #0
  fc:	4955      	ldr	r1, [pc, #340]	; (254 <cmd_port+0x254>)
  fe:	3214      	adds	r2, #20
 100:	f7ff fffe 	bl	0 <print>
 104:	e087      	b.n	216 <cmd_port+0x216>
C:\Users\MightyDubster\Documents\Projects\pygmyos\core/pygmy_cmd.c:724
            return( 1 );
        } // else
    } else if( isStringSameIgnoreCase( ucStrings[ 0 ], "close" ) ){
 106:	9805      	ldr	r0, [sp, #20]
 108:	4953      	ldr	r1, [pc, #332]	; (258 <cmd_port+0x258>)
 10a:	f7ff fffe 	bl	0 <isStringSameIgnoreCase>
 10e:	b120      	cbz	r0, 11a <cmd_port+0x11a>
C:\Users\MightyDubster\Documents\Projects\pygmyos\core/pygmy_cmd.c:725
        ucCOM = convertStringToInt( ucStrings[ 1 ] );
 110:	9806      	ldr	r0, [sp, #24]
 112:	f7ff fffe 	bl	0 <convertStringToInt>
C:\Users\MightyDubster\Documents\Projects\pygmyos\core/pygmy_cmd.c:761
            print( STDIO, " (%d)", ucData[ i ] );
        } //for
        return( 1 );
    } // else if
    
    return( 0 );
 116:	4640      	mov	r0, r8
 118:	e082      	b.n	220 <cmd_port+0x220>
C:\Users\MightyDubster\Documents\Projects\pygmyos\core/pygmy_cmd.c:726
            print( STDIO, "\rCOM%d", __PYGMY_FIRSTUSERCOMPORT + ucCOM );
            return( 1 );
        } // else
    } else if( isStringSameIgnoreCase( ucStrings[ 0 ], "close" ) ){
        ucCOM = convertStringToInt( ucStrings[ 1 ] );
    } else if( isStringSameIgnoreCase( ucStrings[ 0 ], "send" ) || isStringSameIgnoreCase( ucStrings[ 0 ], "write" ) ){
 11a:	9805      	ldr	r0, [sp, #20]
 11c:	494f      	ldr	r1, [pc, #316]	; (25c <cmd_port+0x25c>)
 11e:	f7ff fffe 	bl	0 <isStringSameIgnoreCase>
 122:	b930      	cbnz	r0, 132 <cmd_port+0x132>
 124:	9805      	ldr	r0, [sp, #20]
 126:	494e      	ldr	r1, [pc, #312]	; (260 <cmd_port+0x260>)
 128:	f7ff fffe 	bl	0 <isStringSameIgnoreCase>
 12c:	4605      	mov	r5, r0
 12e:	2800      	cmp	r0, #0
 130:	d037      	beq.n	1a2 <cmd_port+0x1a2>
C:\Users\MightyDubster\Documents\Projects\pygmyos\core/pygmy_cmd.c:727
        if( uiLen < 3 ){
 132:	2c02      	cmp	r4, #2
 134:	d971      	bls.n	21a <cmd_port+0x21a>
C:\Users\MightyDubster\Documents\Projects\pygmyos\core/pygmy_cmd.c:730
            return( FALSE );
        } // if
        replaceChars( ucStrings[ 1 ], "COM", ' ' );
 136:	494b      	ldr	r1, [pc, #300]	; (264 <cmd_port+0x264>)
 138:	2220      	movs	r2, #32
 13a:	9806      	ldr	r0, [sp, #24]
 13c:	f7ff fffe 	bl	0 <replaceChars>
C:\Users\MightyDubster\Documents\Projects\pygmyos\core/pygmy_cmd.c:731
        ucCOM = convertStringToInt( ucStrings[ 1 ] );
 140:	9806      	ldr	r0, [sp, #24]
 142:	f7ff fffe 	bl	0 <convertStringToInt>
 146:	b2c6      	uxtb	r6, r0
C:\Users\MightyDubster\Documents\Projects\pygmyos\core/pygmy_cmd.c:732
        ucAddress = convertStringToInt( ucStrings[ 2 ] );
 148:	9807      	ldr	r0, [sp, #28]
 14a:	f7ff fffe 	bl	0 <convertStringToInt>
C:\Users\MightyDubster\Documents\Projects\pygmyos\core/pygmy_cmd.c:733
        print( STDIO, "\rSending %d Data Bytes to COM: %d, Address: %d, \r", uiLen - 3, ucCOM, ucAddress );
 14e:	1ee7      	subs	r7, r4, #3
C:\Users\MightyDubster\Documents\Projects\pygmyos\core/pygmy_cmd.c:732
        if( uiLen < 3 ){
            return( FALSE );
        } // if
        replaceChars( ucStrings[ 1 ], "COM", ' ' );
        ucCOM = convertStringToInt( ucStrings[ 1 ] );
        ucAddress = convertStringToInt( ucStrings[ 2 ] );
 150:	fa5f f880 	uxtb.w	r8, r0
C:\Users\MightyDubster\Documents\Projects\pygmyos\core/pygmy_cmd.c:733
        print( STDIO, "\rSending %d Data Bytes to COM: %d, Address: %d, \r", uiLen - 3, ucCOM, ucAddress );
 154:	4944      	ldr	r1, [pc, #272]	; (268 <cmd_port+0x268>)
 156:	2000      	movs	r0, #0
 158:	463a      	mov	r2, r7
 15a:	4633      	mov	r3, r6
 15c:	f8cd 8000 	str.w	r8, [sp]
C:\Users\MightyDubster\Documents\Projects\pygmyos\core/pygmy_cmd.c:734
        for( i = 0; i < uiLen - 3; i++ ){
 160:	2500      	movs	r5, #0
C:\Users\MightyDubster\Documents\Projects\pygmyos\core/pygmy_cmd.c:733
            return( FALSE );
        } // if
        replaceChars( ucStrings[ 1 ], "COM", ' ' );
        ucCOM = convertStringToInt( ucStrings[ 1 ] );
        ucAddress = convertStringToInt( ucStrings[ 2 ] );
        print( STDIO, "\rSending %d Data Bytes to COM: %d, Address: %d, \r", uiLen - 3, ucCOM, ucAddress );
 162:	f7ff fffe 	bl	0 <print>
C:\Users\MightyDubster\Documents\Projects\pygmyos\core/pygmy_cmd.c:734
        for( i = 0; i < uiLen - 3; i++ ){
 166:	e012      	b.n	18e <cmd_port+0x18e>
C:\Users\MightyDubster\Documents\Projects\pygmyos\core/pygmy_cmd.c:735
            ucData[ i ] = convertStringToInt( ucStrings[ i + 3 ] );
 168:	a946      	add	r1, sp, #280	; 0x118
 16a:	eb01 0385 	add.w	r3, r1, r5, lsl #2
 16e:	f853 0cf8 	ldr.w	r0, [r3, #-248]
 172:	f7ff fffe 	bl	0 <convertStringToInt>
 176:	a946      	add	r1, sp, #280	; 0x118
 178:	194a      	adds	r2, r1, r5
 17a:	b2c3      	uxtb	r3, r0
 17c:	f802 3c04 	strb.w	r3, [r2, #-4]
C:\Users\MightyDubster\Documents\Projects\pygmyos\core/pygmy_cmd.c:736
            print( STDIO, "%d (%d)\r", i, ucData[ i ] );
 180:	2000      	movs	r0, #0
 182:	462a      	mov	r2, r5
 184:	4939      	ldr	r1, [pc, #228]	; (26c <cmd_port+0x26c>)
 186:	f7ff fffe 	bl	0 <print>
C:\Users\MightyDubster\Documents\Projects\pygmyos\core/pygmy_cmd.c:734
        } // if
        replaceChars( ucStrings[ 1 ], "COM", ' ' );
        ucCOM = convertStringToInt( ucStrings[ 1 ] );
        ucAddress = convertStringToInt( ucStrings[ 2 ] );
        print( STDIO, "\rSending %d Data Bytes to COM: %d, Address: %d, \r", uiLen - 3, ucCOM, ucAddress );
        for( i = 0; i < uiLen - 3; i++ ){
 18a:	3501      	adds	r5, #1
 18c:	b2ad      	uxth	r5, r5
 18e:	42bd      	cmp	r5, r7
 190:	dbea      	blt.n	168 <cmd_port+0x168>
C:\Users\MightyDubster\Documents\Projects\pygmyos\core/pygmy_cmd.c:738
            ucData[ i ] = convertStringToInt( ucStrings[ i + 3 ] );
            print( STDIO, "%d (%d)\r", i, ucData[ i ] );
        } // for
        cmdWritePort( ucCOM, ucAddress, ucData, uiLen - 3 );
 192:	1ee3      	subs	r3, r4, #3
 194:	4630      	mov	r0, r6
 196:	4641      	mov	r1, r8
 198:	aa45      	add	r2, sp, #276	; 0x114
 19a:	b29b      	uxth	r3, r3
 19c:	f7ff fffe 	bl	0 <cmd_port>
 1a0:	e039      	b.n	216 <cmd_port+0x216>
C:\Users\MightyDubster\Documents\Projects\pygmyos\core/pygmy_cmd.c:741
           
        return( 1 );
    } else if( isStringSameIgnoreCase( ucStrings[ 0 ], "read" ) ){
 1a2:	9805      	ldr	r0, [sp, #20]
 1a4:	4932      	ldr	r1, [pc, #200]	; (270 <cmd_port+0x270>)
 1a6:	f7ff fffe 	bl	0 <isStringSameIgnoreCase>
 1aa:	2800      	cmp	r0, #0
 1ac:	d038      	beq.n	220 <cmd_port+0x220>
C:\Users\MightyDubster\Documents\Projects\pygmyos\core/pygmy_cmd.c:742
        if( uiLen < 4 ){
 1ae:	2c03      	cmp	r4, #3
 1b0:	d935      	bls.n	21e <cmd_port+0x21e>
C:\Users\MightyDubster\Documents\Projects\pygmyos\core/pygmy_cmd.c:745
            return( FALSE );
        } // if
        replaceChars( ucStrings[ 1 ], "COM", ' ' );
 1b2:	492c      	ldr	r1, [pc, #176]	; (264 <cmd_port+0x264>)
 1b4:	2220      	movs	r2, #32
 1b6:	9806      	ldr	r0, [sp, #24]
 1b8:	f7ff fffe 	bl	0 <replaceChars>
C:\Users\MightyDubster\Documents\Projects\pygmyos\core/pygmy_cmd.c:746
        ucCOM = convertStringToInt( ucStrings[ 1 ] );
 1bc:	9806      	ldr	r0, [sp, #24]
 1be:	f7ff fffe 	bl	0 <convertStringToInt>
 1c2:	4607      	mov	r7, r0
C:\Users\MightyDubster\Documents\Projects\pygmyos\core/pygmy_cmd.c:748
        
        ucAddress = convertStringToInt( ucStrings[ 2 ] );
 1c4:	9807      	ldr	r0, [sp, #28]
 1c6:	f7ff fffe 	bl	0 <convertStringToInt>
 1ca:	b2c6      	uxtb	r6, r0
C:\Users\MightyDubster\Documents\Projects\pygmyos\core/pygmy_cmd.c:749
        print( STDIO, "\rAddress: %d", ucAddress );
 1cc:	4632      	mov	r2, r6
 1ce:	4929      	ldr	r1, [pc, #164]	; (274 <cmd_port+0x274>)
 1d0:	4628      	mov	r0, r5
 1d2:	f7ff fffe 	bl	0 <print>
C:\Users\MightyDubster\Documents\Projects\pygmyos\core/pygmy_cmd.c:750
        uiLen = convertStringToInt( ucStrings[ 3 ] );
 1d6:	9808      	ldr	r0, [sp, #32]
 1d8:	f7ff fffe 	bl	0 <convertStringToInt>
 1dc:	b284      	uxth	r4, r0
C:\Users\MightyDubster\Documents\Projects\pygmyos\core/pygmy_cmd.c:751
        print( STDIO, "\rLen: %d", uiLen );
 1de:	4926      	ldr	r1, [pc, #152]	; (278 <cmd_port+0x278>)
 1e0:	4628      	mov	r0, r5
 1e2:	4622      	mov	r2, r4
 1e4:	f7ff fffe 	bl	0 <print>
C:\Users\MightyDubster\Documents\Projects\pygmyos\core/pygmy_cmd.c:753
            
        cmdReadPort( ucCOM, ucAddress, ucData, uiLen );
 1e8:	4631      	mov	r1, r6
 1ea:	aa45      	add	r2, sp, #276	; 0x114
 1ec:	4623      	mov	r3, r4
 1ee:	b2f8      	uxtb	r0, r7
 1f0:	f7ff fffe 	bl	0 <cmd_port>
C:\Users\MightyDubster\Documents\Projects\pygmyos\core/pygmy_cmd.c:754
        print( STDIO, "\rData: " );
 1f4:	ae44      	add	r6, sp, #272	; 0x110
 1f6:	4628      	mov	r0, r5
 1f8:	4920      	ldr	r1, [pc, #128]	; (27c <cmd_port+0x27c>)
 1fa:	f7ff fffe 	bl	0 <print>
 1fe:	3603      	adds	r6, #3
C:\Users\MightyDubster\Documents\Projects\pygmyos\core/pygmy_cmd.c:755
        for( i = 0; i < uiLen; i++ ){
 200:	e007      	b.n	212 <cmd_port+0x212>
C:\Users\MightyDubster\Documents\Projects\pygmyos\core/pygmy_cmd.c:756
            print( STDIO, " (%d)", ucData[ i ] );
 202:	2000      	movs	r0, #0
 204:	491e      	ldr	r1, [pc, #120]	; (280 <cmd_port+0x280>)
 206:	f816 2f01 	ldrb.w	r2, [r6, #1]!
 20a:	f7ff fffe 	bl	0 <print>
C:\Users\MightyDubster\Documents\Projects\pygmyos\core/pygmy_cmd.c:755
        uiLen = convertStringToInt( ucStrings[ 3 ] );
        print( STDIO, "\rLen: %d", uiLen );
            
        cmdReadPort( ucCOM, ucAddress, ucData, uiLen );
        print( STDIO, "\rData: " );
        for( i = 0; i < uiLen; i++ ){
 20e:	3501      	adds	r5, #1
 210:	b2ad      	uxth	r5, r5
 212:	42a5      	cmp	r5, r4
 214:	d3f5      	bcc.n	202 <cmd_port+0x202>
C:\Users\MightyDubster\Documents\Projects\pygmyos\core/pygmy_cmd.c:758
            print( STDIO, " (%d)", ucData[ i ] );
        } //for
        return( 1 );
 216:	2001      	movs	r0, #1
 218:	e002      	b.n	220 <cmd_port+0x220>
C:\Users\MightyDubster\Documents\Projects\pygmyos\core/pygmy_cmd.c:728
        } // else
    } else if( isStringSameIgnoreCase( ucStrings[ 0 ], "close" ) ){
        ucCOM = convertStringToInt( ucStrings[ 1 ] );
    } else if( isStringSameIgnoreCase( ucStrings[ 0 ], "send" ) || isStringSameIgnoreCase( ucStrings[ 0 ], "write" ) ){
        if( uiLen < 3 ){
            return( FALSE );
 21a:	2000      	movs	r0, #0
 21c:	e000      	b.n	220 <cmd_port+0x220>
C:\Users\MightyDubster\Documents\Projects\pygmyos\core/pygmy_cmd.c:743
        cmdWritePort( ucCOM, ucAddress, ucData, uiLen - 3 );
           
        return( 1 );
    } else if( isStringSameIgnoreCase( ucStrings[ 0 ], "read" ) ){
        if( uiLen < 4 ){
            return( FALSE );
 21e:	4628      	mov	r0, r5
C:\Users\MightyDubster\Documents\Projects\pygmyos\core/pygmy_cmd.c:762
        } //for
        return( 1 );
    } // else if
    
    return( 0 );
}
 220:	b047      	add	sp, #284	; 0x11c
 222:	e8bd 8ff0 	ldmia.w	sp!, {r4, r5, r6, r7, r8, r9, sl, fp, pc}
 226:	bf00      	nop
 228:	000000f7 	.word	0x000000f7
 22c:	00000105 	.word	0x00000105
 230:	0000010b 	.word	0x0000010b
 234:	0000011e 	.word	0x0000011e
 238:	00000123 	.word	0x00000123
 23c:	00000145 	.word	0x00000145
 240:	00000149 	.word	0x00000149
 244:	00000156 	.word	0x00000156
 248:	0000015a 	.word	0x0000015a
 24c:	00000167 	.word	0x00000167
 250:	00000185 	.word	0x00000185
 254:	00000196 	.word	0x00000196
 258:	0000019d 	.word	0x0000019d
 25c:	000001a3 	.word	0x000001a3
 260:	000001a8 	.word	0x000001a8
 264:	000001ae 	.word	0x000001ae
 268:	000001b2 	.word	0x000001b2
 26c:	000001e4 	.word	0x000001e4
 270:	000001ed 	.word	0x000001ed
 274:	000001f2 	.word	0x000001f2
 278:	000001ff 	.word	0x000001ff
 27c:	00000208 	.word	0x00000208
 280:	00000210 	.word	0x00000210

Disassembly of section .text.cmd_humidity:

00000000 <cmd_humidity>:
cmd_humidity():
C:\Users\MightyDubster\Documents\Projects\pygmyos\core/pygmy_cmd.c:765

u8 cmd_humidity( u8 *ucBuffer )
{
   0:	2022b5f0 	.word	0x2022b5f0
   4:	b08b      	sub	sp, #44	; 0x2c
C:\Users\MightyDubster\Documents\Projects\pygmyos\core/pygmy_cmd.c:769
    PYGMYSPIPORT pygmySPI;
    u16 uiPressure, uiTemp;

    pinConfig( A4, OUT );
   6:	2103      	movs	r1, #3
   8:	f7ff fffe 	bl	0 <pinConfig>
C:\Users\MightyDubster\Documents\Projects\pygmyos\core/pygmy_cmd.c:770
    pinSet( A4, HIGH );
   c:	2022      	movs	r0, #34	; 0x22
   e:	2101      	movs	r1, #1
  10:	f7ff fffe 	bl	0 <pinSet>
C:\Users\MightyDubster\Documents\Projects\pygmyos\core/pygmy_cmd.c:771
    spiConfig( &pygmySPI, D0, D1, D3, D2 );
  14:	2327      	movs	r3, #39	; 0x27
  16:	2226      	movs	r2, #38	; 0x26
  18:	9300      	str	r3, [sp, #0]
  1a:	a803      	add	r0, sp, #12
  1c:	3301      	adds	r3, #1
  1e:	2115      	movs	r1, #21
  20:	f7ff fffe 	bl	0 <spiConfig>
C:\Users\MightyDubster\Documents\Projects\pygmyos\core/pygmy_cmd.c:772
    pinSet( D0, LOW );
  24:	2015      	movs	r0, #21
  26:	2100      	movs	r1, #0
  28:	f7ff fffe 	bl	0 <pinSet>
C:\Users\MightyDubster\Documents\Projects\pygmyos\core/pygmy_cmd.c:773
    spiWriteByte( &pygmySPI, 0x24 ); // Start Conversion
  2c:	2124      	movs	r1, #36	; 0x24
  2e:	a803      	add	r0, sp, #12
  30:	f7ff fffe 	bl	0 <spiWriteByte>
C:\Users\MightyDubster\Documents\Projects\pygmyos\core/pygmy_cmd.c:774
    delay( 100 );
  34:	2064      	movs	r0, #100	; 0x64
  36:	f7ff fffe 	bl	0 <delay>
C:\Users\MightyDubster\Documents\Projects\pygmyos\core/pygmy_cmd.c:775
    spiWriteByte( &pygmySPI, 0x00 ); // 
  3a:	a803      	add	r0, sp, #12
  3c:	2100      	movs	r1, #0
  3e:	f7ff fffe 	bl	0 <spiWriteByte>
C:\Users\MightyDubster\Documents\Projects\pygmyos\core/pygmy_cmd.c:776
    pinSet( D0, HIGH );
  42:	2101      	movs	r1, #1
  44:	2015      	movs	r0, #21
  46:	f7ff fffe 	bl	0 <pinSet>
C:\Users\MightyDubster\Documents\Projects\pygmyos\core/pygmy_cmd.c:778

    delay( 100 );
  4a:	2064      	movs	r0, #100	; 0x64
  4c:	f7ff fffe 	bl	0 <delay>
C:\Users\MightyDubster\Documents\Projects\pygmyos\core/pygmy_cmd.c:780

    pinSet( D0, LOW );
  50:	2015      	movs	r0, #21
  52:	2100      	movs	r1, #0
  54:	f7ff fffe 	bl	0 <pinSet>
C:\Users\MightyDubster\Documents\Projects\pygmyos\core/pygmy_cmd.c:781
    spiWriteByte( &pygmySPI, 0x80 );
  58:	2180      	movs	r1, #128	; 0x80
  5a:	a803      	add	r0, sp, #12
  5c:	f7ff fffe 	bl	0 <spiWriteByte>
C:\Users\MightyDubster\Documents\Projects\pygmyos\core/pygmy_cmd.c:782
    delay( 100 );
  60:	2064      	movs	r0, #100	; 0x64
  62:	f7ff fffe 	bl	0 <delay>
C:\Users\MightyDubster\Documents\Projects\pygmyos\core/pygmy_cmd.c:783
    uiPressure = spiReadByte( &pygmySPI );
  66:	a803      	add	r0, sp, #12
  68:	f7ff fffe 	bl	0 <spiReadByte>
C:\Users\MightyDubster\Documents\Projects\pygmyos\core/pygmy_cmd.c:784
    spiWriteByte( &pygmySPI, 0x82 );
  6c:	2182      	movs	r1, #130	; 0x82
C:\Users\MightyDubster\Documents\Projects\pygmyos\core/pygmy_cmd.c:783
    delay( 100 );

    pinSet( D0, LOW );
    spiWriteByte( &pygmySPI, 0x80 );
    delay( 100 );
    uiPressure = spiReadByte( &pygmySPI );
  6e:	4606      	mov	r6, r0
C:\Users\MightyDubster\Documents\Projects\pygmyos\core/pygmy_cmd.c:784
    spiWriteByte( &pygmySPI, 0x82 );
  70:	a803      	add	r0, sp, #12
  72:	f7ff fffe 	bl	0 <spiWriteByte>
C:\Users\MightyDubster\Documents\Projects\pygmyos\core/pygmy_cmd.c:785
    delay( 100 );
  76:	2064      	movs	r0, #100	; 0x64
  78:	f7ff fffe 	bl	0 <delay>
C:\Users\MightyDubster\Documents\Projects\pygmyos\core/pygmy_cmd.c:786
    uiPressure |= spiReadByte( &pygmySPI );
  7c:	a803      	add	r0, sp, #12
  7e:	f7ff fffe 	bl	0 <spiReadByte>
C:\Users\MightyDubster\Documents\Projects\pygmyos\core/pygmy_cmd.c:787
    spiWriteByte( &pygmySPI, 0x84 );
  82:	2184      	movs	r1, #132	; 0x84
C:\Users\MightyDubster\Documents\Projects\pygmyos\core/pygmy_cmd.c:786
    spiWriteByte( &pygmySPI, 0x80 );
    delay( 100 );
    uiPressure = spiReadByte( &pygmySPI );
    spiWriteByte( &pygmySPI, 0x82 );
    delay( 100 );
    uiPressure |= spiReadByte( &pygmySPI );
  84:	4607      	mov	r7, r0
C:\Users\MightyDubster\Documents\Projects\pygmyos\core/pygmy_cmd.c:787
    spiWriteByte( &pygmySPI, 0x84 );
  86:	a803      	add	r0, sp, #12
  88:	f7ff fffe 	bl	0 <spiWriteByte>
C:\Users\MightyDubster\Documents\Projects\pygmyos\core/pygmy_cmd.c:788
    delay( 100 );
  8c:	2064      	movs	r0, #100	; 0x64
  8e:	f7ff fffe 	bl	0 <delay>
C:\Users\MightyDubster\Documents\Projects\pygmyos\core/pygmy_cmd.c:789
    uiTemp = (u16)spiReadByte( &pygmySPI )<<8;
  92:	a803      	add	r0, sp, #12
  94:	f7ff fffe 	bl	0 <spiReadByte>
  98:	0200      	lsls	r0, r0, #8
C:\Users\MightyDubster\Documents\Projects\pygmyos\core/pygmy_cmd.c:790
    spiWriteByte( &pygmySPI, 0x86 );
  9a:	2186      	movs	r1, #134	; 0x86
C:\Users\MightyDubster\Documents\Projects\pygmyos\core/pygmy_cmd.c:789
    spiWriteByte( &pygmySPI, 0x82 );
    delay( 100 );
    uiPressure |= spiReadByte( &pygmySPI );
    spiWriteByte( &pygmySPI, 0x84 );
    delay( 100 );
    uiTemp = (u16)spiReadByte( &pygmySPI )<<8;
  9c:	b285      	uxth	r5, r0
C:\Users\MightyDubster\Documents\Projects\pygmyos\core/pygmy_cmd.c:790
    spiWriteByte( &pygmySPI, 0x86 );
  9e:	a803      	add	r0, sp, #12
  a0:	f7ff fffe 	bl	0 <spiWriteByte>
C:\Users\MightyDubster\Documents\Projects\pygmyos\core/pygmy_cmd.c:791
    delay( 100 );
  a4:	2064      	movs	r0, #100	; 0x64
  a6:	f7ff fffe 	bl	0 <delay>
C:\Users\MightyDubster\Documents\Projects\pygmyos\core/pygmy_cmd.c:792
    uiTemp |= spiReadByte( &pygmySPI );
  aa:	a803      	add	r0, sp, #12
  ac:	f7ff fffe 	bl	0 <spiReadByte>
C:\Users\MightyDubster\Documents\Projects\pygmyos\core/pygmy_cmd.c:793
    pinSet( D0, HIGH );
  b0:	2101      	movs	r1, #1
C:\Users\MightyDubster\Documents\Projects\pygmyos\core/pygmy_cmd.c:792
    spiWriteByte( &pygmySPI, 0x84 );
    delay( 100 );
    uiTemp = (u16)spiReadByte( &pygmySPI )<<8;
    spiWriteByte( &pygmySPI, 0x86 );
    delay( 100 );
    uiTemp |= spiReadByte( &pygmySPI );
  b2:	4604      	mov	r4, r0
C:\Users\MightyDubster\Documents\Projects\pygmyos\core/pygmy_cmd.c:793
    pinSet( D0, HIGH );
  b4:	2015      	movs	r0, #21
  b6:	f7ff fffe 	bl	0 <pinSet>
C:\Users\MightyDubster\Documents\Projects\pygmyos\core/pygmy_cmd.c:786
    spiWriteByte( &pygmySPI, 0x80 );
    delay( 100 );
    uiPressure = spiReadByte( &pygmySPI );
    spiWriteByte( &pygmySPI, 0x82 );
    delay( 100 );
    uiPressure |= spiReadByte( &pygmySPI );
  ba:	ea47 0606 	orr.w	r6, r7, r6
C:\Users\MightyDubster\Documents\Projects\pygmyos\core/pygmy_cmd.c:792
    spiWriteByte( &pygmySPI, 0x84 );
    delay( 100 );
    uiTemp = (u16)spiReadByte( &pygmySPI )<<8;
    spiWriteByte( &pygmySPI, 0x86 );
    delay( 100 );
    uiTemp |= spiReadByte( &pygmySPI );
  be:	ea45 0304 	orr.w	r3, r5, r4
C:\Users\MightyDubster\Documents\Projects\pygmyos\core/pygmy_cmd.c:795
    pinSet( D0, HIGH );
    
    print( COM3, "\rPressure %d Temp %d\r> ", uiPressure, uiTemp );
  c2:	2001      	movs	r0, #1
  c4:	4905      	ldr	r1, [pc, #20]	; (dc <cmd_humidity+0xdc>)
  c6:	b2b2      	uxth	r2, r6
  c8:	b29b      	uxth	r3, r3
  ca:	f7ff fffe 	bl	0 <print>
C:\Users\MightyDubster\Documents\Projects\pygmyos\core/pygmy_cmd.c:796
    pinSet( A4, LOW );
  ce:	2022      	movs	r0, #34	; 0x22
  d0:	2100      	movs	r1, #0
  d2:	f7ff fffe 	bl	0 <pinSet>
C:\Users\MightyDubster\Documents\Projects\pygmyos\core/pygmy_cmd.c:797
}
  d6:	b00b      	add	sp, #44	; 0x2c
  d8:	bdf0      	pop	{r4, r5, r6, r7, pc}
  da:	bf00      	nop
  dc:	00000216 	.word	0x00000216

Disassembly of section .text.cmd_psend:

00000000 <cmd_psend>:
cmd_psend():
C:\Users\MightyDubster\Documents\Projects\pygmyos\core/pygmy_cmd.c:804
u8 cmd_psend( u8 *ucBuffer )
{
    

    return( 1 );
}
   0:	2001      	movs	r0, #1
   2:	4770      	bx	lr

Disassembly of section .text.cmd_rfscan:

00000000 <cmd_rfscan>:
cmd_rfscan():
C:\Users\MightyDubster\Documents\Projects\pygmyos\core/pygmy_cmd.c:815
//--------------------------------------------------------------------------------------------
u8 cmd_rfscan( u8 *ucBuffer )
{
    
    return( 0 );
}
   0:	2000      	movs	r0, #0
   2:	4770      	bx	lr
