
C:\Users\MightyDubster\Documents\Projects\pygmyos.code\Tutorial1\pygmy_gui.o:     file format elf32-littlearm
C:\Users\MightyDubster\Documents\Projects\pygmyos.code\Tutorial1\pygmy_gui.o


Disassembly of section .text.guiSetCursor:

00000000 <guiSetCursor>:
guiSetCursor():
   0:	4b01      	ldr	r3, [pc, #4]	; (8 <guiSetCursor+0x8>)
   2:	8158      	strh	r0, [r3, #10]
   4:	8199      	strh	r1, [r3, #12]
   6:	4770      	bx	lr
   8:	00000000 	.word	0x00000000

Disassembly of section .text.guiGetCursorX:

00000000 <guiGetCursorX>:
guiGetCursorX():
   0:	4b01      	ldr	r3, [pc, #4]	; (8 <guiGetCursorX+0x8>)
   2:	8958      	ldrh	r0, [r3, #10]
   4:	4770      	bx	lr
   6:	bf00      	nop
   8:	00000000 	.word	0x00000000

Disassembly of section .text.guiGetCursorY:

00000000 <guiGetCursorY>:
guiGetCursorY():
   0:	4b01      	ldr	r3, [pc, #4]	; (8 <guiGetCursorY+0x8>)
   2:	8998      	ldrh	r0, [r3, #12]
   4:	4770      	bx	lr
   6:	bf00      	nop
   8:	00000000 	.word	0x00000000

Disassembly of section .text.guiGetCursor:

00000000 <guiGetCursor>:
guiGetCursor():
   0:	47704800 	.word	0x47704800
   4:	0000000a 	.word	0x0000000a

Disassembly of section .text.guiApplyColor:

00000000 <guiApplyColor>:
guiApplyColor():
   0:	4b02      	ldr	r3, [pc, #8]	; (c <guiApplyColor+0xc>)
   2:	7998      	ldrb	r0, [r3, #6]
   4:	79d9      	ldrb	r1, [r3, #7]
   6:	7a1a      	ldrb	r2, [r3, #8]
   8:	f7ff bffe 	b.w	0 <lcdSetColor>
   c:	00000000 	.word	0x00000000

Disassembly of section .text.guiApplyBackColor:

00000000 <guiApplyBackColor>:
guiApplyBackColor():
   0:	4b02      	ldr	r3, [pc, #8]	; (c <guiApplyBackColor+0xc>)
   2:	78d8      	ldrb	r0, [r3, #3]
   4:	7919      	ldrb	r1, [r3, #4]
   6:	795a      	ldrb	r2, [r3, #5]
   8:	f7ff bffe 	b.w	0 <lcdSetColor>
   c:	00000000 	.word	0x00000000

Disassembly of section .text.guiApplyFontColor:

00000000 <guiApplyFontColor>:
guiApplyFontColor():
   0:	4b03      	ldr	r3, [pc, #12]	; (10 <guiApplyFontColor+0x10>)
   2:	691b      	ldr	r3, [r3, #16]
   4:	7818      	ldrb	r0, [r3, #0]
   6:	7859      	ldrb	r1, [r3, #1]
   8:	789a      	ldrb	r2, [r3, #2]
   a:	f7ff bffe 	b.w	0 <lcdSetColor>
   e:	bf00      	nop
  10:	00000000 	.word	0x00000000

Disassembly of section .text.guiApplyFontBackColor:

00000000 <guiApplyFontBackColor>:
guiApplyFontBackColor():
   0:	4b03      	ldr	r3, [pc, #12]	; (10 <guiApplyFontBackColor+0x10>)
   2:	691b      	ldr	r3, [r3, #16]
   4:	78d8      	ldrb	r0, [r3, #3]
   6:	7919      	ldrb	r1, [r3, #4]
   8:	795a      	ldrb	r2, [r3, #5]
   a:	f7ff bffe 	b.w	0 <lcdSetColor>
   e:	bf00      	nop
  10:	00000000 	.word	0x00000000

Disassembly of section .text.guiSetColor:

00000000 <guiSetColor>:
guiSetColor():
   0:	71984b02 	.word	0x71984b02
   4:	71d9      	strb	r1, [r3, #7]
   6:	721a      	strb	r2, [r3, #8]
   8:	f7ff bffe 	b.w	0 <lcdSetColor>
   c:	00000000 	.word	0x00000000

Disassembly of section .text.guiSetBackColor:

00000000 <guiSetBackColor>:
guiSetBackColor():
   0:	4b02      	ldr	r3, [pc, #8]	; (c <guiSetBackColor+0xc>)
   2:	70d8      	strb	r0, [r3, #3]
   4:	7119      	strb	r1, [r3, #4]
   6:	715a      	strb	r2, [r3, #5]
   8:	4770      	bx	lr
   a:	bf00      	nop
   c:	00000000 	.word	0x00000000

Disassembly of section .text.guiSetAlphaColor:

00000000 <guiSetAlphaColor>:
guiSetAlphaColor():
   0:	4b02      	ldr	r3, [pc, #8]	; (c <guiSetAlphaColor+0xc>)
   2:	7018      	strb	r0, [r3, #0]
   4:	7059      	strb	r1, [r3, #1]
   6:	709a      	strb	r2, [r3, #2]
   8:	4770      	bx	lr
   a:	bf00      	nop
   c:	00000000 	.word	0x00000000

Disassembly of section .text.guiSetFontColor:

00000000 <guiSetFontColor>:
guiSetFontColor():
   0:	7001      	strb	r1, [r0, #0]
   2:	7042      	strb	r2, [r0, #1]
   4:	7083      	strb	r3, [r0, #2]
   6:	4770      	bx	lr

Disassembly of section .text.guiSetFontBackColor:

00000000 <guiSetFontBackColor>:
guiSetFontBackColor():
   0:	70c1      	strb	r1, [r0, #3]
   2:	7102      	strb	r2, [r0, #4]
   4:	7143      	strb	r3, [r0, #5]
   6:	4770      	bx	lr

Disassembly of section .text.guiClearArea:

00000000 <guiClearArea>:
guiClearArea():
   0:	e92d 41f0 	stmdb	sp!, {r4, r5, r6, r7, r8, lr}
   4:	4607      	mov	r7, r0
   6:	460e      	mov	r6, r1
   8:	4615      	mov	r5, r2
   a:	461c      	mov	r4, r3
   c:	f7ff fffe 	bl	0 <guiClearArea>
  10:	4638      	mov	r0, r7
  12:	4631      	mov	r1, r6
  14:	462a      	mov	r2, r5
  16:	4623      	mov	r3, r4
  18:	e8bd 41f0 	ldmia.w	sp!, {r4, r5, r6, r7, r8, lr}
  1c:	f7ff bffe 	b.w	0 <lcdClearArea>

Disassembly of section .text.guiClearScreen:

00000000 <guiClearScreen>:
guiClearScreen():
   0:	b510      	push	{r4, lr}
   2:	f7ff fffe 	bl	0 <guiClearScreen>
   6:	e8bd 4010 	ldmia.w	sp!, {r4, lr}
   a:	f7ff bffe 	b.w	0 <lcdClear>

Disassembly of section .text.guiInitSprites:

00000000 <guiInitSprites>:
guiInitSprites():
   0:	4b05      	ldr	r3, [pc, #20]	; (18 <guiInitSprites+0x18>)
   2:	f503 6208 	add.w	r2, r3, #2176	; 0x880
   6:	2100      	movs	r1, #0
   8:	82d9      	strh	r1, [r3, #22]
   a:	3344      	adds	r3, #68	; 0x44
   c:	4293      	cmp	r3, r2
   e:	d1fa      	bne.n	6 <guiInitSprites+0x6>
  10:	4b02      	ldr	r3, [pc, #8]	; (1c <guiInitSprites+0x1c>)
  12:	2201      	movs	r2, #1
  14:	601a      	str	r2, [r3, #0]
  16:	4770      	bx	lr
	...

Disassembly of section .text.guiGetSprite:

00000000 <guiGetSprite>:
guiGetSprite():
   0:	b510      	push	{r4, lr}
   2:	4a08      	ldr	r2, [pc, #32]	; (24 <guiGetSprite+0x24>)
   4:	2300      	movs	r3, #0
   6:	4611      	mov	r1, r2
   8:	8ad4      	ldrh	r4, [r2, #22]
   a:	4284      	cmp	r4, r0
   c:	d103      	bne.n	16 <guiGetSprite+0x16>
   e:	2044      	movs	r0, #68	; 0x44
  10:	fb00 1003 	mla	r0, r0, r3, r1
  14:	bd10      	pop	{r4, pc}
  16:	3301      	adds	r3, #1
  18:	b29b      	uxth	r3, r3
  1a:	3244      	adds	r2, #68	; 0x44
  1c:	2b20      	cmp	r3, #32
  1e:	d1f3      	bne.n	8 <guiGetSprite+0x8>
  20:	2000      	movs	r0, #0
  22:	bd10      	pop	{r4, pc}
  24:	00000000 	.word	0x00000000

Disassembly of section .text.guiCreateSprite:

00000000 <guiCreateSprite>:
guiCreateSprite():
   0:	e92d 47f0 	stmdb	sp!, {r4, r5, r6, r7, r8, r9, sl, lr}
   4:	4614      	mov	r4, r2
   6:	4698      	mov	r8, r3
   8:	460d      	mov	r5, r1
   a:	2900      	cmp	r1, #0
   c:	d030      	beq.n	70 <guiCreateSprite+0x70>
   e:	4b1a      	ldr	r3, [pc, #104]	; (78 <guiCreateSprite+0x78>)
  10:	2600      	movs	r6, #0
  12:	461f      	mov	r7, r3
  14:	8ada      	ldrh	r2, [r3, #22]
  16:	b14a      	cbz	r2, 2c <guiCreateSprite+0x2c>
  18:	42aa      	cmp	r2, r5
  1a:	d007      	beq.n	2c <guiCreateSprite+0x2c>
  1c:	3601      	adds	r6, #1
  1e:	b2b6      	uxth	r6, r6
  20:	3344      	adds	r3, #68	; 0x44
  22:	2e20      	cmp	r6, #32
  24:	d1f6      	bne.n	14 <guiCreateSprite+0x14>
  26:	2000      	movs	r0, #0
  28:	e8bd 87f0 	ldmia.w	sp!, {r4, r5, r6, r7, r8, r9, sl, pc}
  2c:	2344      	movs	r3, #68	; 0x44
  2e:	435e      	muls	r6, r3
  30:	19b9      	adds	r1, r7, r6
  32:	311c      	adds	r1, #28
  34:	eb07 0906 	add.w	r9, r7, r6
  38:	f7ff fffe 	bl	0 <fileCopyHandle>
  3c:	2300      	movs	r3, #0
  3e:	f8a9 3018 	strh.w	r3, [r9, #24]
  42:	9b08      	ldr	r3, [sp, #32]
  44:	f04f 0a01 	mov.w	sl, #1
  48:	f8c9 3004 	str.w	r3, [r9, #4]
  4c:	f847 a006 	str.w	sl, [r7, r6]
  50:	f7ff fffe 	bl	0 <timeGet>
  54:	9b09      	ldr	r3, [sp, #36]	; 0x24
  56:	f8c9 0008 	str.w	r0, [r9, #8]
  5a:	f8c9 300c 	str.w	r3, [r9, #12]
  5e:	f8c9 4010 	str.w	r4, [r9, #16]
  62:	f8a9 8014 	strh.w	r8, [r9, #20]
  66:	f8a9 5016 	strh.w	r5, [r9, #22]
  6a:	4650      	mov	r0, sl
  6c:	e8bd 87f0 	ldmia.w	sp!, {r4, r5, r6, r7, r8, r9, sl, pc}
  70:	4608      	mov	r0, r1
  72:	e8bd 87f0 	ldmia.w	sp!, {r4, r5, r6, r7, r8, r9, sl, pc}
  76:	bf00      	nop
  78:	00000000 	.word	0x00000000

Disassembly of section .text.guiDeleteSprite:

00000000 <guiDeleteSprite>:
guiDeleteSprite():
   0:	4a09b510 	.word	0x4a09b510
   4:	2300      	movs	r3, #0
   6:	4611      	mov	r1, r2
   8:	8ad4      	ldrh	r4, [r2, #22]
   a:	4284      	cmp	r4, r0
   c:	d106      	bne.n	1c <guiDeleteSprite+0x1c>
   e:	2244      	movs	r2, #68	; 0x44
  10:	fb02 1303 	mla	r3, r2, r3, r1
  14:	2200      	movs	r2, #0
  16:	82da      	strh	r2, [r3, #22]
  18:	2001      	movs	r0, #1
  1a:	bd10      	pop	{r4, pc}
  1c:	3301      	adds	r3, #1
  1e:	3244      	adds	r2, #68	; 0x44
  20:	2b20      	cmp	r3, #32
  22:	d1f1      	bne.n	8 <guiDeleteSprite+0x8>
  24:	2000      	movs	r0, #0
  26:	bd10      	pop	{r4, pc}
  28:	00000000 	.word	0x00000000

Disassembly of section .text.guiRemoveSpriteCoords:

00000000 <guiRemoveSpriteCoords>:
guiRemoveSpriteCoords():
   0:	4b19      	ldr	r3, [pc, #100]	; (68 <guiRemoveSpriteCoords+0x68>)
   2:	b5f0      	push	{r4, r5, r6, r7, lr}
   4:	469c      	mov	ip, r3
   6:	2400      	movs	r4, #0
   8:	8add      	ldrh	r5, [r3, #22]
   a:	4285      	cmp	r5, r0
   c:	d125      	bne.n	5a <guiRemoveSpriteCoords+0x5a>
   e:	2500      	movs	r5, #0
  10:	462b      	mov	r3, r5
  12:	e018      	b.n	46 <guiRemoveSpriteCoords+0x46>
  14:	6938      	ldr	r0, [r7, #16]
  16:	005e      	lsls	r6, r3, #1
  18:	f830 7013 	ldrh.w	r7, [r0, r3, lsl #1]
  1c:	428f      	cmp	r7, r1
  1e:	d104      	bne.n	2a <guiRemoveSpriteCoords+0x2a>
  20:	1c5f      	adds	r7, r3, #1
  22:	f830 7017 	ldrh.w	r7, [r0, r7, lsl #1]
  26:	4297      	cmp	r7, r2
  28:	d000      	beq.n	2c <guiRemoveSpriteCoords+0x2c>
  2a:	b155      	cbz	r5, 42 <guiRemoveSpriteCoords+0x42>
  2c:	1c9d      	adds	r5, r3, #2
  2e:	f830 5015 	ldrh.w	r5, [r0, r5, lsl #1]
  32:	5385      	strh	r5, [r0, r6]
  34:	1cde      	adds	r6, r3, #3
  36:	f830 6016 	ldrh.w	r6, [r0, r6, lsl #1]
  3a:	1c5d      	adds	r5, r3, #1
  3c:	f820 6015 	strh.w	r6, [r0, r5, lsl #1]
  40:	2501      	movs	r5, #1
  42:	3302      	adds	r3, #2
  44:	b29b      	uxth	r3, r3
  46:	2744      	movs	r7, #68	; 0x44
  48:	fb07 c704 	mla	r7, r7, r4, ip
  4c:	8abe      	ldrh	r6, [r7, #20]
  4e:	42b3      	cmp	r3, r6
  50:	d3e0      	bcc.n	14 <guiRemoveSpriteCoords+0x14>
  52:	3e02      	subs	r6, #2
  54:	82be      	strh	r6, [r7, #20]
  56:	2001      	movs	r0, #1
  58:	bdf0      	pop	{r4, r5, r6, r7, pc}
  5a:	3401      	adds	r4, #1
  5c:	3344      	adds	r3, #68	; 0x44
  5e:	2c20      	cmp	r4, #32
  60:	d1d2      	bne.n	8 <guiRemoveSpriteCoords+0x8>
  62:	2000      	movs	r0, #0
  64:	bdf0      	pop	{r4, r5, r6, r7, pc}
  66:	bf00      	nop
  68:	00000000 	.word	0x00000000

Disassembly of section .text.guiOutputBMHeader:

00000000 <guiOutputBMHeader>:
guiOutputBMHeader():
   0:	f013 0f02 	tst.w	r3, #2
   4:	e92d 41f0 	stmdb	sp!, {r4, r5, r6, r7, r8, lr}
   8:	4604      	mov	r4, r0
   a:	460d      	mov	r5, r1
   c:	4616      	mov	r6, r2
   e:	d10c      	bne.n	2a <guiOutputBMHeader+0x2a>
  10:	f013 0f04 	tst.w	r3, #4
  14:	d10c      	bne.n	30 <guiOutputBMHeader+0x30>
  16:	f003 0305 	and.w	r3, r3, #5
  1a:	2b00      	cmp	r3, #0
  1c:	bf0c      	ite	eq
  1e:	2304      	moveq	r3, #4
  20:	2303      	movne	r3, #3
  22:	bf0c      	ite	eq
  24:	2720      	moveq	r7, #32
  26:	2718      	movne	r7, #24
  28:	e004      	b.n	34 <guiOutputBMHeader+0x34>
  2a:	2301      	movs	r3, #1
  2c:	2708      	movs	r7, #8
  2e:	e001      	b.n	34 <guiOutputBMHeader+0x34>
  30:	2302      	movs	r3, #2
  32:	2710      	movs	r7, #16
  34:	f005 0803 	and.w	r8, r5, #3
  38:	44a8      	add	r8, r5
  3a:	fb06 f808 	mul.w	r8, r6, r8
  3e:	fb03 f808 	mul.w	r8, r3, r8
  42:	2142      	movs	r1, #66	; 0x42
  44:	4620      	mov	r0, r4
  46:	f7ff fffe 	bl	0 <filePutChar>
  4a:	214d      	movs	r1, #77	; 0x4d
  4c:	4620      	mov	r0, r4
  4e:	f7ff fffe 	bl	0 <filePutChar>
  52:	4620      	mov	r0, r4
  54:	f108 0136 	add.w	r1, r8, #54	; 0x36
  58:	2200      	movs	r2, #0
  5a:	f7ff fffe 	bl	0 <filePutLong>
  5e:	2100      	movs	r1, #0
  60:	4620      	mov	r0, r4
  62:	460a      	mov	r2, r1
  64:	f7ff fffe 	bl	0 <filePutLong>
  68:	4620      	mov	r0, r4
  6a:	2136      	movs	r1, #54	; 0x36
  6c:	2200      	movs	r2, #0
  6e:	f7ff fffe 	bl	0 <filePutLong>
  72:	4620      	mov	r0, r4
  74:	2128      	movs	r1, #40	; 0x28
  76:	2200      	movs	r2, #0
  78:	f7ff fffe 	bl	0 <filePutLong>
  7c:	4620      	mov	r0, r4
  7e:	4629      	mov	r1, r5
  80:	2200      	movs	r2, #0
  82:	f7ff fffe 	bl	0 <filePutLong>
  86:	4620      	mov	r0, r4
  88:	4631      	mov	r1, r6
  8a:	2200      	movs	r2, #0
  8c:	f7ff fffe 	bl	0 <filePutLong>
  90:	4620      	mov	r0, r4
  92:	2101      	movs	r1, #1
  94:	2200      	movs	r2, #0
  96:	f7ff fffe 	bl	0 <filePutWord>
  9a:	4620      	mov	r0, r4
  9c:	4639      	mov	r1, r7
  9e:	2200      	movs	r2, #0
  a0:	f7ff fffe 	bl	0 <filePutWord>
  a4:	2100      	movs	r1, #0
  a6:	4620      	mov	r0, r4
  a8:	460a      	mov	r2, r1
  aa:	f7ff fffe 	bl	0 <filePutLong>
  ae:	4620      	mov	r0, r4
  b0:	4641      	mov	r1, r8
  b2:	2200      	movs	r2, #0
  b4:	f7ff fffe 	bl	0 <filePutLong>
  b8:	2100      	movs	r1, #0
  ba:	4620      	mov	r0, r4
  bc:	460a      	mov	r2, r1
  be:	f7ff fffe 	bl	0 <filePutLong>
  c2:	2100      	movs	r1, #0
  c4:	4620      	mov	r0, r4
  c6:	460a      	mov	r2, r1
  c8:	f7ff fffe 	bl	0 <filePutLong>
  cc:	2100      	movs	r1, #0
  ce:	4620      	mov	r0, r4
  d0:	460a      	mov	r2, r1
  d2:	f7ff fffe 	bl	0 <filePutLong>
  d6:	2100      	movs	r1, #0
  d8:	4620      	mov	r0, r4
  da:	460a      	mov	r2, r1
  dc:	e8bd 41f0 	ldmia.w	sp!, {r4, r5, r6, r7, r8, lr}
  e0:	f7ff bffe 	b.w	0 <filePutLong>

Disassembly of section .text.drawBitmap:

00000000 <drawBitmap>:
drawBitmap():
   0:	e92d 4ff0 	stmdb	sp!, {r4, r5, r6, r7, r8, r9, sl, fp, lr}
   4:	b085      	sub	sp, #20
   6:	9003      	str	r0, [sp, #12]
   8:	4610      	mov	r0, r2
   a:	468a      	mov	sl, r1
   c:	4614      	mov	r4, r2
   e:	f7ff fffe 	bl	0 <fileGetChar>
  12:	2842      	cmp	r0, #66	; 0x42
  14:	f040 80a3 	bne.w	15e <drawBitmap+0x15e>
  18:	4620      	mov	r0, r4
  1a:	f7ff fffe 	bl	0 <fileGetChar>
  1e:	284d      	cmp	r0, #77	; 0x4d
  20:	f040 809d 	bne.w	15e <drawBitmap+0x15e>
  24:	2102      	movs	r1, #2
  26:	2208      	movs	r2, #8
  28:	4620      	mov	r0, r4
  2a:	f7ff fffe 	bl	0 <fileSetPosition>
  2e:	4620      	mov	r0, r4
  30:	f7ff fffe 	bl	0 <fileGetChar>
  34:	4606      	mov	r6, r0
  36:	4620      	mov	r0, r4
  38:	f7ff fffe 	bl	0 <fileGetChar>
  3c:	4605      	mov	r5, r0
  3e:	4620      	mov	r0, r4
  40:	f7ff fffe 	bl	0 <fileGetChar>
  44:	0400      	lsls	r0, r0, #16
  46:	ea40 2505 	orr.w	r5, r0, r5, lsl #8
  4a:	4620      	mov	r0, r4
  4c:	f7ff fffe 	bl	0 <fileGetChar>
  50:	4335      	orrs	r5, r6
  52:	2102      	movs	r1, #2
  54:	2204      	movs	r2, #4
  56:	4606      	mov	r6, r0
  58:	4620      	mov	r0, r4
  5a:	f7ff fffe 	bl	0 <fileSetPosition>
  5e:	4620      	mov	r0, r4
  60:	f7ff fffe 	bl	0 <fileGetChar>
  64:	4680      	mov	r8, r0
  66:	4620      	mov	r0, r4
  68:	f7ff fffe 	bl	0 <fileGetChar>
  6c:	4607      	mov	r7, r0
  6e:	4620      	mov	r0, r4
  70:	f7ff fffe 	bl	0 <fileGetChar>
  74:	0400      	lsls	r0, r0, #16
  76:	ea40 2707 	orr.w	r7, r0, r7, lsl #8
  7a:	4620      	mov	r0, r4
  7c:	f7ff fffe 	bl	0 <fileGetChar>
  80:	ea47 0708 	orr.w	r7, r7, r8
  84:	ea47 6700 	orr.w	r7, r7, r0, lsl #24
  88:	4620      	mov	r0, r4
  8a:	f7ff fffe 	bl	0 <fileGetChar>
  8e:	4681      	mov	r9, r0
  90:	4620      	mov	r0, r4
  92:	f7ff fffe 	bl	0 <fileGetChar>
  96:	4680      	mov	r8, r0
  98:	4620      	mov	r0, r4
  9a:	f7ff fffe 	bl	0 <fileGetChar>
  9e:	0400      	lsls	r0, r0, #16
  a0:	ea40 2808 	orr.w	r8, r0, r8, lsl #8
  a4:	4620      	mov	r0, r4
  a6:	f7ff fffe 	bl	0 <fileGetChar>
  aa:	ea48 0809 	orr.w	r8, r8, r9
  ae:	ea48 6800 	orr.w	r8, r8, r0, lsl #24
  b2:	4620      	mov	r0, r4
  b4:	f7ff fffe 	bl	0 <fileGetChar>
  b8:	4620      	mov	r0, r4
  ba:	f7ff fffe 	bl	0 <fileGetChar>
  be:	4620      	mov	r0, r4
  c0:	f7ff fffe 	bl	0 <fileGetChar>
  c4:	4620      	mov	r0, r4
  c6:	f7ff fffe 	bl	0 <fileGetChar>
  ca:	4620      	mov	r0, r4
  cc:	f7ff fffe 	bl	0 <fileGetChar>
  d0:	ea45 6206 	orr.w	r2, r5, r6, lsl #24
  d4:	4620      	mov	r0, r4
  d6:	2101      	movs	r1, #1
  d8:	f7ff fffe 	bl	0 <fileSetPosition>
  dc:	f007 0303 	and.w	r3, r7, #3
  e0:	9302      	str	r3, [sp, #8]
  e2:	2500      	movs	r5, #0
  e4:	e027      	b.n	136 <drawBitmap+0x136>
  e6:	4620      	mov	r0, r4
  e8:	f7ff fffe 	bl	0 <fileGetChar>
  ec:	4603      	mov	r3, r0
  ee:	4620      	mov	r0, r4
  f0:	9301      	str	r3, [sp, #4]
  f2:	f7ff fffe 	bl	0 <fileGetChar>
  f6:	4683      	mov	fp, r0
  f8:	4620      	mov	r0, r4
  fa:	f7ff fffe 	bl	0 <fileGetChar>
  fe:	9b01      	ldr	r3, [sp, #4]
 100:	4602      	mov	r2, r0
 102:	4659      	mov	r1, fp
 104:	4618      	mov	r0, r3
 106:	f7ff fffe 	bl	0 <lcdSetColor>
 10a:	9b03      	ldr	r3, [sp, #12]
 10c:	4649      	mov	r1, r9
 10e:	18f0      	adds	r0, r6, r3
 110:	b280      	uxth	r0, r0
 112:	f7ff fffe 	bl	0 <lcdDrawPixel>
 116:	3601      	adds	r6, #1
 118:	b2b6      	uxth	r6, r6
 11a:	42be      	cmp	r6, r7
 11c:	d3e3      	bcc.n	e6 <drawBitmap+0xe6>
 11e:	2600      	movs	r6, #0
 120:	e004      	b.n	12c <drawBitmap+0x12c>
 122:	4620      	mov	r0, r4
 124:	f7ff fffe 	bl	0 <fileGetChar>
 128:	3601      	adds	r6, #1
 12a:	b2b6      	uxth	r6, r6
 12c:	9b02      	ldr	r3, [sp, #8]
 12e:	429e      	cmp	r6, r3
 130:	d3f7      	bcc.n	122 <drawBitmap+0x122>
 132:	3501      	adds	r5, #1
 134:	b2ad      	uxth	r5, r5
 136:	4545      	cmp	r5, r8
 138:	d209      	bcs.n	14e <drawBitmap+0x14e>
 13a:	f108 39ff 	add.w	r9, r8, #4294967295
 13e:	ebc5 0909 	rsb	r9, r5, r9
 142:	fb07 a909 	mla	r9, r7, r9, sl
 146:	2600      	movs	r6, #0
 148:	fa1f f989 	uxth.w	r9, r9
 14c:	e7e5      	b.n	11a <drawBitmap+0x11a>
 14e:	4620      	mov	r0, r4
 150:	2101      	movs	r1, #1
 152:	2200      	movs	r2, #0
 154:	b005      	add	sp, #20
 156:	e8bd 4ff0 	ldmia.w	sp!, {r4, r5, r6, r7, r8, r9, sl, fp, lr}
 15a:	f7ff bffe 	b.w	0 <fileSetPosition>
 15e:	b005      	add	sp, #20
 160:	e8bd 8ff0 	ldmia.w	sp!, {r4, r5, r6, r7, r8, r9, sl, fp, pc}

Disassembly of section .text.guiGetHeader:

00000000 <guiGetHeader>:
guiGetHeader():
   0:	b538      	push	{r3, r4, r5, lr}
   2:	2101      	movs	r1, #1
   4:	4604      	mov	r4, r0
   6:	2200      	movs	r2, #0
   8:	f7ff fffe 	bl	0 <fileSetPosition>
   c:	4620      	mov	r0, r4
   e:	f7ff fffe 	bl	0 <fileGetChar>
  12:	0200      	lsls	r0, r0, #8
  14:	b285      	uxth	r5, r0
  16:	4620      	mov	r0, r4
  18:	f7ff fffe 	bl	0 <fileGetChar>
  1c:	ea45 0000 	orr.w	r0, r5, r0
  20:	b280      	uxth	r0, r0
  22:	bd38      	pop	{r3, r4, r5, pc}

Disassembly of section .text.guiGetEntries:

00000000 <guiGetEntries>:
guiGetEntries():
   0:	b538      	push	{r3, r4, r5, lr}
   2:	4604      	mov	r4, r0
   4:	f7ff fffe 	bl	0 <guiGetEntries>
   8:	f410 4070 	ands.w	r0, r0, #61440	; 0xf000
   c:	d00a      	beq.n	24 <guiGetEntries+0x24>
   e:	4620      	mov	r0, r4
  10:	f7ff fffe 	bl	0 <fileGetChar>
  14:	0200      	lsls	r0, r0, #8
  16:	b285      	uxth	r5, r0
  18:	4620      	mov	r0, r4
  1a:	f7ff fffe 	bl	0 <fileGetChar>
  1e:	ea45 0000 	orr.w	r0, r5, r0
  22:	b280      	uxth	r0, r0
  24:	bd38      	pop	{r3, r4, r5, pc}

Disassembly of section .text.guiSetFont:

00000000 <guiSetFont>:
guiSetFont():
   0:	b570      	push	{r4, r5, r6, lr}
   2:	4b1d      	ldr	r3, [pc, #116]	; (78 <guiSetFont+0x78>)
   4:	460c      	mov	r4, r1
   6:	799a      	ldrb	r2, [r3, #6]
   8:	6119      	str	r1, [r3, #16]
   a:	700a      	strb	r2, [r1, #0]
   c:	79da      	ldrb	r2, [r3, #7]
   e:	60a0      	str	r0, [r4, #8]
  10:	704a      	strb	r2, [r1, #1]
  12:	7a1a      	ldrb	r2, [r3, #8]
  14:	4605      	mov	r5, r0
  16:	708a      	strb	r2, [r1, #2]
  18:	78da      	ldrb	r2, [r3, #3]
  1a:	70ca      	strb	r2, [r1, #3]
  1c:	791a      	ldrb	r2, [r3, #4]
  1e:	795b      	ldrb	r3, [r3, #5]
  20:	710a      	strb	r2, [r1, #4]
  22:	714b      	strb	r3, [r1, #5]
  24:	f7ff fffe 	bl	0 <guiSetFont>
  28:	4606      	mov	r6, r0
  2a:	4628      	mov	r0, r5
  2c:	f7ff fffe 	bl	0 <guiSetFont>
  30:	285f      	cmp	r0, #95	; 0x5f
  32:	d91e      	bls.n	72 <guiSetFont+0x72>
  34:	f416 4070 	ands.w	r0, r6, #61440	; 0xf000
  38:	d01c      	beq.n	74 <guiSetFont+0x74>
  3a:	f416 7680 	ands.w	r6, r6, #256	; 0x100
  3e:	d00a      	beq.n	56 <guiSetFont+0x56>
  40:	2102      	movs	r1, #2
  42:	2203      	movs	r2, #3
  44:	4628      	mov	r0, r5
  46:	f7ff fffe 	bl	0 <fileSetPosition>
  4a:	4628      	mov	r0, r5
  4c:	f7ff fffe 	bl	0 <fileGetChar>
  50:	0200      	lsls	r0, r0, #8
  52:	81e0      	strh	r0, [r4, #14]
  54:	e005      	b.n	62 <guiSetFont+0x62>
  56:	4628      	mov	r0, r5
  58:	2102      	movs	r1, #2
  5a:	2201      	movs	r2, #1
  5c:	f7ff fffe 	bl	0 <fileSetPosition>
  60:	81e6      	strh	r6, [r4, #14]
  62:	4628      	mov	r0, r5
  64:	89e6      	ldrh	r6, [r4, #14]
  66:	f7ff fffe 	bl	0 <fileGetChar>
  6a:	4330      	orrs	r0, r6
  6c:	81e0      	strh	r0, [r4, #14]
  6e:	2001      	movs	r0, #1
  70:	bd70      	pop	{r4, r5, r6, pc}
  72:	2000      	movs	r0, #0
  74:	bd70      	pop	{r4, r5, r6, pc}
  76:	bf00      	nop
  78:	00000000 	.word	0x00000000

Disassembly of section .text.guiGetImage:

00000000 <guiGetImage>:
guiGetImage():
   0:	b5f8      	push	{r3, r4, r5, r6, r7, lr}
   2:	4604      	mov	r4, r0
   4:	460d      	mov	r5, r1
   6:	f7ff fffe 	bl	0 <guiGetImage>
   a:	4606      	mov	r6, r0
   c:	4620      	mov	r0, r4
   e:	f7ff fffe 	bl	0 <guiGetImage>
  12:	f416 4370 	ands.w	r3, r6, #61440	; 0xf000
  16:	d032      	beq.n	7e <guiGetImage+0x7e>
  18:	2800      	cmp	r0, #0
  1a:	d033      	beq.n	84 <guiGetImage+0x84>
  1c:	4285      	cmp	r5, r0
  1e:	d830      	bhi.n	82 <guiGetImage+0x82>
  20:	f416 6f80 	tst.w	r6, #1024	; 0x400
  24:	d01b      	beq.n	5e <guiGetImage+0x5e>
  26:	2102      	movs	r1, #2
  28:	fa15 f201 	lsls.w	r2, r5, r1
  2c:	4620      	mov	r0, r4
  2e:	f7ff fffe 	bl	0 <fileSetPosition>
  32:	4620      	mov	r0, r4
  34:	f7ff fffe 	bl	0 <fileGetChar>
  38:	0605      	lsls	r5, r0, #24
  3a:	4620      	mov	r0, r4
  3c:	f7ff fffe 	bl	0 <fileGetChar>
  40:	4607      	mov	r7, r0
  42:	4620      	mov	r0, r4
  44:	f7ff fffe 	bl	0 <fileGetChar>
  48:	4606      	mov	r6, r0
  4a:	4620      	mov	r0, r4
  4c:	f7ff fffe 	bl	0 <fileGetChar>
  50:	ea45 4507 	orr.w	r5, r5, r7, lsl #16
  54:	ea45 0000 	orr.w	r0, r5, r0
  58:	ea40 2006 	orr.w	r0, r0, r6, lsl #8
  5c:	bdf8      	pop	{r3, r4, r5, r6, r7, pc}
  5e:	2101      	movs	r1, #1
  60:	1caa      	adds	r2, r5, #2
  62:	408a      	lsls	r2, r1
  64:	4620      	mov	r0, r4
  66:	f7ff fffe 	bl	0 <fileSetPosition>
  6a:	4620      	mov	r0, r4
  6c:	f7ff fffe 	bl	0 <fileGetChar>
  70:	0205      	lsls	r5, r0, #8
  72:	4620      	mov	r0, r4
  74:	f7ff fffe 	bl	0 <fileGetChar>
  78:	ea45 0000 	orr.w	r0, r5, r0
  7c:	bdf8      	pop	{r3, r4, r5, r6, r7, pc}
  7e:	4618      	mov	r0, r3
  80:	bdf8      	pop	{r3, r4, r5, r6, r7, pc}
  82:	2000      	movs	r0, #0
  84:	bdf8      	pop	{r3, r4, r5, r6, r7, pc}

Disassembly of section .text.drawImage:

00000000 <drawImage>:
drawImage():
   0:	e92d 4ff0 	stmdb	sp!, {r4, r5, r6, r7, r8, r9, sl, fp, lr}
   4:	b08b      	sub	sp, #44	; 0x2c
   6:	9007      	str	r0, [sp, #28]
   8:	9108      	str	r1, [sp, #32]
   a:	4610      	mov	r0, r2
   c:	4619      	mov	r1, r3
   e:	4614      	mov	r4, r2
  10:	f7ff fffe 	bl	0 <drawImage>
  14:	2101      	movs	r1, #1
  16:	4602      	mov	r2, r0
  18:	4620      	mov	r0, r4
  1a:	f7ff fffe 	bl	0 <fileSetPosition>
  1e:	4620      	mov	r0, r4
  20:	f7ff fffe 	bl	0 <fileGetChar>
  24:	0207      	lsls	r7, r0, #8
  26:	4620      	mov	r0, r4
  28:	f7ff fffe 	bl	0 <fileGetChar>
  2c:	b2bf      	uxth	r7, r7
  2e:	4307      	orrs	r7, r0
  30:	b2bf      	uxth	r7, r7
  32:	f417 7680 	ands.w	r6, r7, #256	; 0x100
  36:	d006      	beq.n	46 <drawImage+0x46>
  38:	4620      	mov	r0, r4
  3a:	f7ff fffe 	bl	0 <fileGetChar>
  3e:	0200      	lsls	r0, r0, #8
  40:	fa1f f880 	uxth.w	r8, r0
  44:	e000      	b.n	48 <drawImage+0x48>
  46:	46b0      	mov	r8, r6
  48:	4620      	mov	r0, r4
  4a:	f7ff fffe 	bl	0 <fileGetChar>
  4e:	ea40 0008 	orr.w	r0, r0, r8
  52:	b280      	uxth	r0, r0
  54:	9006      	str	r0, [sp, #24]
  56:	b126      	cbz	r6, 62 <drawImage+0x62>
  58:	4620      	mov	r0, r4
  5a:	f7ff fffe 	bl	0 <fileGetChar>
  5e:	0206      	lsls	r6, r0, #8
  60:	b2b6      	uxth	r6, r6
  62:	4620      	mov	r0, r4
  64:	f7ff fffe 	bl	0 <fileGetChar>
  68:	9a06      	ldr	r2, [sp, #24]
  6a:	ea40 0606 	orr.w	r6, r0, r6
  6e:	b2b6      	uxth	r6, r6
  70:	4356      	muls	r6, r2
  72:	f007 070f 	and.w	r7, r7, #15
  76:	4638      	mov	r0, r7
  78:	9609      	str	r6, [sp, #36]	; 0x24
  7a:	f7ff fffe 	bl	0 <lcdSetBPP>
  7e:	4b70      	ldr	r3, [pc, #448]	; (240 <drawImage+0x240>)
  80:	799e      	ldrb	r6, [r3, #6]
  82:	f893 9007 	ldrb.w	r9, [r3, #7]
  86:	f893 a008 	ldrb.w	sl, [r3, #8]
  8a:	2300      	movs	r3, #0
  8c:	9301      	str	r3, [sp, #4]
  8e:	9300      	str	r3, [sp, #0]
  90:	9305      	str	r3, [sp, #20]
  92:	e0c7      	b.n	224 <drawImage+0x224>
  94:	4620      	mov	r0, r4
  96:	f7ff fffe 	bl	0 <fileGetChar>
  9a:	f000 033f 	and.w	r3, r0, #63	; 0x3f
  9e:	3301      	adds	r3, #1
  a0:	4680      	mov	r8, r0
  a2:	9304      	str	r3, [sp, #16]
  a4:	b937      	cbnz	r7, b4 <drawImage+0xb4>
  a6:	9a04      	ldr	r2, [sp, #16]
  a8:	b243      	sxtb	r3, r0
  aa:	ea12 0223 	ands.w	r2, r2, r3, asr #32
  ae:	bf38      	it	cc
  b0:	2207      	movcc	r2, #7
  b2:	9204      	str	r2, [sp, #16]
  b4:	9b05      	ldr	r3, [sp, #20]
  b6:	9a04      	ldr	r2, [sp, #16]
  b8:	f04f 0b00 	mov.w	fp, #0
  bc:	189b      	adds	r3, r3, r2
  be:	9305      	str	r3, [sp, #20]
  c0:	f8cd b00c 	str.w	fp, [sp, #12]
  c4:	9b03      	ldr	r3, [sp, #12]
  c6:	b113      	cbz	r3, ce <drawImage+0xce>
  c8:	f018 0f80 	tst.w	r8, #128	; 0x80
  cc:	d17d      	bne.n	1ca <drawImage+0x1ca>
  ce:	b97f      	cbnz	r7, f0 <drawImage+0xf0>
  d0:	f018 0f80 	tst.w	r8, #128	; 0x80
  d4:	d179      	bne.n	1ca <drawImage+0x1ca>
  d6:	9a03      	ldr	r2, [sp, #12]
  d8:	2340      	movs	r3, #64	; 0x40
  da:	4113      	asrs	r3, r2
  dc:	ea13 0f08 	tst.w	r3, r8
  e0:	bf1a      	itte	ne
  e2:	f048 0840 	orrne.w	r8, r8, #64	; 0x40
  e6:	fa5f f888 	uxtbne.w	r8, r8
  ea:	f008 08bf 	andeq.w	r8, r8, #191	; 0xbf
  ee:	e06c      	b.n	1ca <drawImage+0x1ca>
  f0:	2f01      	cmp	r7, #1
  f2:	d113      	bne.n	11c <drawImage+0x11c>
  f4:	f1bb 0f00 	cmp.w	fp, #0
  f8:	d109      	bne.n	10e <drawImage+0x10e>
  fa:	4620      	mov	r0, r4
  fc:	f7ff fffe 	bl	0 <fileGetChar>
 100:	0906      	lsrs	r6, r0, #4
 102:	b2f6      	uxtb	r6, r6
 104:	4605      	mov	r5, r0
 106:	46b2      	mov	sl, r6
 108:	46b1      	mov	r9, r6
 10a:	46bb      	mov	fp, r7
 10c:	e05d      	b.n	1ca <drawImage+0x1ca>
 10e:	f005 060f 	and.w	r6, r5, #15
 112:	46b2      	mov	sl, r6
 114:	46b1      	mov	r9, r6
 116:	f04f 0b00 	mov.w	fp, #0
 11a:	e056      	b.n	1ca <drawImage+0x1ca>
 11c:	2f03      	cmp	r7, #3
 11e:	d121      	bne.n	164 <drawImage+0x164>
 120:	f1bb 0f00 	cmp.w	fp, #0
 124:	d10f      	bne.n	146 <drawImage+0x146>
 126:	4620      	mov	r0, r4
 128:	f7ff fffe 	bl	0 <fileGetChar>
 12c:	4605      	mov	r5, r0
 12e:	4620      	mov	r0, r4
 130:	f7ff fffe 	bl	0 <fileGetChar>
 134:	ea4f 1910 	mov.w	r9, r0, lsr #4
 138:	9002      	str	r0, [sp, #8]
 13a:	fa5f f989 	uxtb.w	r9, r9
 13e:	f000 0a0f 	and.w	sl, r0, #15
 142:	462e      	mov	r6, r5
 144:	e041      	b.n	1ca <drawImage+0x1ca>
 146:	4620      	mov	r0, r4
 148:	f7ff fffe 	bl	0 <fileGetChar>
 14c:	9b02      	ldr	r3, [sp, #8]
 14e:	ea4f 1910 	mov.w	r9, r0, lsr #4
 152:	f003 060f 	and.w	r6, r3, #15
 156:	fa5f f989 	uxtb.w	r9, r9
 15a:	f000 0a0f 	and.w	sl, r0, #15
 15e:	f04f 0b01 	mov.w	fp, #1
 162:	e032      	b.n	1ca <drawImage+0x1ca>
 164:	2f02      	cmp	r7, #2
 166:	d10c      	bne.n	182 <drawImage+0x182>
 168:	4620      	mov	r0, r4
 16a:	f7ff fffe 	bl	0 <fileGetChar>
 16e:	0946      	lsrs	r6, r0, #5
 170:	f000 0918 	and.w	r9, r0, #24
 174:	4605      	mov	r5, r0
 176:	b2f6      	uxtb	r6, r6
 178:	ea4f 09d9 	mov.w	r9, r9, lsr #3
 17c:	f000 0a07 	and.w	sl, r0, #7
 180:	e023      	b.n	1ca <drawImage+0x1ca>
 182:	2f04      	cmp	r7, #4
 184:	d113      	bne.n	1ae <drawImage+0x1ae>
 186:	4620      	mov	r0, r4
 188:	f7ff fffe 	bl	0 <fileGetChar>
 18c:	4605      	mov	r5, r0
 18e:	4620      	mov	r0, r4
 190:	f7ff fffe 	bl	0 <fileGetChar>
 194:	f005 0907 	and.w	r9, r5, #7
 198:	0943      	lsrs	r3, r0, #5
 19a:	08ee      	lsrs	r6, r5, #3
 19c:	ea43 09c9 	orr.w	r9, r3, r9, lsl #3
 1a0:	9002      	str	r0, [sp, #8]
 1a2:	b2f6      	uxtb	r6, r6
 1a4:	fa5f f989 	uxtb.w	r9, r9
 1a8:	f000 0a1f 	and.w	sl, r0, #31
 1ac:	e00d      	b.n	1ca <drawImage+0x1ca>
 1ae:	2f05      	cmp	r7, #5
 1b0:	d10b      	bne.n	1ca <drawImage+0x1ca>
 1b2:	4620      	mov	r0, r4
 1b4:	f7ff fffe 	bl	0 <fileGetChar>
 1b8:	4606      	mov	r6, r0
 1ba:	4620      	mov	r0, r4
 1bc:	f7ff fffe 	bl	0 <fileGetChar>
 1c0:	4681      	mov	r9, r0
 1c2:	4620      	mov	r0, r4
 1c4:	f7ff fffe 	bl	0 <fileGetChar>
 1c8:	4682      	mov	sl, r0
 1ca:	f018 0f40 	tst.w	r8, #64	; 0x40
 1ce:	d009      	beq.n	1e4 <drawImage+0x1e4>
 1d0:	b12f      	cbz	r7, 1de <drawImage+0x1de>
 1d2:	4630      	mov	r0, r6
 1d4:	4649      	mov	r1, r9
 1d6:	4652      	mov	r2, sl
 1d8:	f7ff fffe 	bl	0 <lcdSetColor>
 1dc:	e004      	b.n	c <drawImage+0xc>
 1de:	f7ff fffe 	bl	0 <drawImage>
 1e2:	e001      	b.n	6 <drawImage+0x6>
 1e4:	f7ff fffe 	bl	0 <drawImage>
 1e8:	9a00      	ldr	r2, [sp, #0]
 1ea:	9b07      	ldr	r3, [sp, #28]
 1ec:	18d0      	adds	r0, r2, r3
 1ee:	9a01      	ldr	r2, [sp, #4]
 1f0:	9b08      	ldr	r3, [sp, #32]
 1f2:	b280      	uxth	r0, r0
 1f4:	18d1      	adds	r1, r2, r3
 1f6:	b289      	uxth	r1, r1
 1f8:	f7ff fffe 	bl	0 <lcdDrawPixel>
 1fc:	9a00      	ldr	r2, [sp, #0]
 1fe:	1c53      	adds	r3, r2, #1
 200:	9a06      	ldr	r2, [sp, #24]
 202:	b29b      	uxth	r3, r3
 204:	4293      	cmp	r3, r2
 206:	9300      	str	r3, [sp, #0]
 208:	d105      	bne.n	216 <drawImage+0x216>
 20a:	9a01      	ldr	r2, [sp, #4]
 20c:	1c53      	adds	r3, r2, #1
 20e:	b29b      	uxth	r3, r3
 210:	9301      	str	r3, [sp, #4]
 212:	2300      	movs	r3, #0
 214:	9300      	str	r3, [sp, #0]
 216:	9a03      	ldr	r2, [sp, #12]
 218:	9b04      	ldr	r3, [sp, #16]
 21a:	3201      	adds	r2, #1
 21c:	429a      	cmp	r2, r3
 21e:	9203      	str	r2, [sp, #12]
 220:	f4ff af50 	bcc.w	c4 <drawImage+0xc4>
 224:	9a05      	ldr	r2, [sp, #20]
 226:	9b09      	ldr	r3, [sp, #36]	; 0x24
 228:	429a      	cmp	r2, r3
 22a:	f4ff af33 	bcc.w	94 <drawImage+0x94>
 22e:	4620      	mov	r0, r4
 230:	2101      	movs	r1, #1
 232:	2200      	movs	r2, #0
 234:	f7ff fffe 	bl	0 <fileSetPosition>
 238:	9806      	ldr	r0, [sp, #24]
 23a:	b00b      	add	sp, #44	; 0x2c
 23c:	e8bd 8ff0 	ldmia.w	sp!, {r4, r5, r6, r7, r8, r9, sl, fp, pc}
 240:	00000000 	.word	0x00000000

Disassembly of section .text.drawSprite:

00000000 <drawSprite>:
drawSprite():
   0:	b5f8      	push	{r3, r4, r5, r6, r7, lr}
   2:	f100 061c 	add.w	r6, r0, #28
   6:	4604      	mov	r4, r0
   8:	4630      	mov	r0, r6
   a:	f7ff fffe 	bl	0 <drawSprite>
   e:	8b23      	ldrh	r3, [r4, #24]
  10:	3301      	adds	r3, #1
  12:	b29b      	uxth	r3, r3
  14:	4283      	cmp	r3, r0
  16:	8323      	strh	r3, [r4, #24]
  18:	d101      	bne.n	1e <drawSprite+0x1e>
  1a:	2300      	movs	r3, #0
  1c:	8323      	strh	r3, [r4, #24]
  1e:	2500      	movs	r5, #0
  20:	e00d      	b.n	3e <drawSprite+0x3e>
  22:	6923      	ldr	r3, [r4, #16]
  24:	1c6a      	adds	r2, r5, #1
  26:	b292      	uxth	r2, r2
  28:	f833 0015 	ldrh.w	r0, [r3, r5, lsl #1]
  2c:	f833 1012 	ldrh.w	r1, [r3, r2, lsl #1]
  30:	4632      	mov	r2, r6
  32:	8b23      	ldrh	r3, [r4, #24]
  34:	f7ff fffe 	bl	0 <drawSprite>
  38:	3502      	adds	r5, #2
  3a:	b2ad      	uxth	r5, r5
  3c:	4607      	mov	r7, r0
  3e:	8aa3      	ldrh	r3, [r4, #20]
  40:	42ab      	cmp	r3, r5
  42:	d8ee      	bhi.n	22 <drawSprite+0x22>
  44:	4638      	mov	r0, r7
  46:	bdf8      	pop	{r3, r4, r5, r6, r7, pc}

Disassembly of section .text.guiSpriteProcess:

00000000 <guiSpriteProcess>:
guiSpriteProcess():
   0:	b570      	push	{r4, r5, r6, lr}
   2:	f7ff fffe 	bl	0 <timeGet>
   6:	4c12      	ldr	r4, [pc, #72]	; (50 <guiSpriteProcess+0x50>)
   8:	4606      	mov	r6, r0
   a:	2500      	movs	r5, #0
   c:	8820      	ldrh	r0, [r4, #0]
   e:	b1d0      	cbz	r0, 46 <guiSpriteProcess+0x46>
  10:	f854 3c0a 	ldr.w	r3, [r4, #-10]
  14:	b123      	cbz	r3, 20 <guiSpriteProcess+0x20>
  16:	42b3      	cmp	r3, r6
  18:	d102      	bne.n	20 <guiSpriteProcess+0x20>
  1a:	f7ff fffe 	bl	0 <guiSpriteProcess>
  1e:	e012      	b.n	46 <guiSpriteProcess+0x46>
  20:	f854 3c16 	ldr.w	r3, [r4, #-22]
  24:	b17b      	cbz	r3, 46 <guiSpriteProcess+0x46>
  26:	2b01      	cmp	r3, #1
  28:	d10a      	bne.n	40 <guiSpriteProcess+0x40>
  2a:	f854 3c12 	ldr.w	r3, [r4, #-18]
  2e:	2044      	movs	r0, #68	; 0x44
  30:	f844 3c16 	str.w	r3, [r4, #-22]
  34:	4b07      	ldr	r3, [pc, #28]	; (54 <guiSpriteProcess+0x54>)
  36:	fb00 3005 	mla	r0, r0, r5, r3
  3a:	f7ff fffe 	bl	0 <guiSpriteProcess>
  3e:	e002      	b.n	46 <guiSpriteProcess+0x46>
  40:	3b01      	subs	r3, #1
  42:	f844 3c16 	str.w	r3, [r4, #-22]
  46:	3501      	adds	r5, #1
  48:	3444      	adds	r4, #68	; 0x44
  4a:	2d20      	cmp	r5, #32
  4c:	d1de      	bne.n	c <guiSpriteProcess+0xc>
  4e:	bd70      	pop	{r4, r5, r6, pc}
  50:	00000016 	.word	0x00000016
  54:	00000000 	.word	0x00000000

Disassembly of section .text.drawString:

00000000 <drawString>:
drawString():
   0:	4605b570 	.word	0x4605b570
   4:	e00c      	b.n	20 <drawString+0x20>
   6:	4c09      	ldr	r4, [pc, #36]	; (2c <drawString+0x2c>)
   8:	3b20      	subs	r3, #32
   a:	8966      	ldrh	r6, [r4, #10]
   c:	6922      	ldr	r2, [r4, #16]
   e:	4630      	mov	r0, r6
  10:	89a1      	ldrh	r1, [r4, #12]
  12:	6892      	ldr	r2, [r2, #8]
  14:	b29b      	uxth	r3, r3
  16:	f7ff fffe 	bl	0 <drawString>
  1a:	3601      	adds	r6, #1
  1c:	1986      	adds	r6, r0, r6
  1e:	8166      	strh	r6, [r4, #10]
  20:	f815 3b01 	ldrb.w	r3, [r5], #1
  24:	2b00      	cmp	r3, #0
  26:	d1ee      	bne.n	6 <drawString+0x6>
  28:	bd70      	pop	{r4, r5, r6, pc}
  2a:	bf00      	nop
  2c:	00000000 	.word	0x00000000

Disassembly of section .text.putsLCD:

00000000 <putsLCD>:
putsLCD():
   0:	b508      	push	{r3, lr}
   2:	f7ff fffe 	bl	0 <putsLCD>
   6:	2001      	movs	r0, #1
   8:	bd08      	pop	{r3, pc}

Disassembly of section .text.drawChar:

00000000 <drawChar>:
drawChar():
   0:	b538      	push	{r3, r4, r5, lr}
   2:	4c07      	ldr	r4, [pc, #28]	; (20 <drawChar+0x20>)
   4:	f1a0 0320 	sub.w	r3, r0, #32
   8:	8965      	ldrh	r5, [r4, #10]
   a:	6922      	ldr	r2, [r4, #16]
   c:	4628      	mov	r0, r5
   e:	89a1      	ldrh	r1, [r4, #12]
  10:	6892      	ldr	r2, [r2, #8]
  12:	b29b      	uxth	r3, r3
  14:	f7ff fffe 	bl	0 <drawChar>
  18:	3501      	adds	r5, #1
  1a:	1945      	adds	r5, r0, r5
  1c:	8165      	strh	r5, [r4, #10]
  1e:	bd38      	pop	{r3, r4, r5, pc}
  20:	00000000 	.word	0x00000000

Disassembly of section .text.drawPixel:

00000000 <drawPixel>:
drawPixel():
   0:	b570      	push	{r4, r5, r6, lr}
   2:	4605      	mov	r5, r0
   4:	460c      	mov	r4, r1
   6:	f7ff fffe 	bl	0 <drawPixel>
   a:	4628      	mov	r0, r5
   c:	4621      	mov	r1, r4
   e:	e8bd 4070 	ldmia.w	sp!, {r4, r5, r6, lr}
  12:	f7ff bffe 	b.w	0 <lcdDrawPixel>

Disassembly of section .text.drawClearPixel:

00000000 <drawClearPixel>:
drawClearPixel():
   0:	b570      	push	{r4, r5, r6, lr}
   2:	4605      	mov	r5, r0
   4:	460c      	mov	r4, r1
   6:	f7ff fffe 	bl	0 <drawClearPixel>
   a:	4628      	mov	r0, r5
   c:	4621      	mov	r1, r4
   e:	e8bd 4070 	ldmia.w	sp!, {r4, r5, r6, lr}
  12:	f7ff bffe 	b.w	0 <lcdDrawPixel>

Disassembly of section .text.drawFill:

00000000 <drawFill>:
drawFill():
   0:	b538      	push	{r3, r4, r5, lr}
   2:	4605      	mov	r5, r0
   4:	460c      	mov	r4, r1
   6:	4628      	mov	r0, r5
   8:	4621      	mov	r1, r4
   a:	f7ff fffe 	bl	0 <lcdGetPixel>
   e:	b1a8      	cbz	r0, 3c <drawFill+0x3c>
  10:	4621      	mov	r1, r4
  12:	4628      	mov	r0, r5
  14:	f7ff fffe 	bl	0 <lcdDrawPixel>
  18:	1c68      	adds	r0, r5, #1
  1a:	4621      	mov	r1, r4
  1c:	b280      	uxth	r0, r0
  1e:	f7ff fffe 	bl	0 <drawFill>
  22:	1e68      	subs	r0, r5, #1
  24:	4621      	mov	r1, r4
  26:	b280      	uxth	r0, r0
  28:	f7ff fffe 	bl	0 <drawFill>
  2c:	1c61      	adds	r1, r4, #1
  2e:	4628      	mov	r0, r5
  30:	b289      	uxth	r1, r1
  32:	3c01      	subs	r4, #1
  34:	f7ff fffe 	bl	0 <drawFill>
  38:	b2a4      	uxth	r4, r4
  3a:	e7e4      	b.n	6 <drawFill+0x6>
  3c:	bd38      	pop	{r3, r4, r5, pc}

Disassembly of section .text.guiGetPixelOpening:

00000000 <guiGetPixelOpening>:
guiGetPixelOpening():
   0:	b5f8      	push	{r3, r4, r5, r6, r7, lr}
   2:	4604      	mov	r4, r0
   4:	3001      	adds	r0, #1
   6:	b280      	uxth	r0, r0
   8:	4617      	mov	r7, r2
   a:	460d      	mov	r5, r1
   c:	f7ff fffe 	bl	0 <lcdGetPixel>
  10:	1bc6      	subs	r6, r0, r7
  12:	bf18      	it	ne
  14:	2601      	movne	r6, #1
  16:	1e60      	subs	r0, r4, #1
  18:	4629      	mov	r1, r5
  1a:	b280      	uxth	r0, r0
  1c:	f7ff fffe 	bl	0 <lcdGetPixel>
  20:	42b8      	cmp	r0, r7
  22:	bf1c      	itt	ne
  24:	f046 0602 	orrne.w	r6, r6, #2
  28:	b2f6      	uxtbne	r6, r6
  2a:	1c69      	adds	r1, r5, #1
  2c:	4620      	mov	r0, r4
  2e:	b289      	uxth	r1, r1
  30:	f7ff fffe 	bl	0 <lcdGetPixel>
  34:	42b8      	cmp	r0, r7
  36:	bf18      	it	ne
  38:	f046 0604 	orrne.w	r6, r6, #4
  3c:	1e69      	subs	r1, r5, #1
  3e:	4620      	mov	r0, r4
  40:	b289      	uxth	r1, r1
  42:	f7ff fffe 	bl	0 <lcdGetPixel>
  46:	42b8      	cmp	r0, r7
  48:	bf18      	it	ne
  4a:	f046 0608 	orrne.w	r6, r6, #8
  4e:	4630      	mov	r0, r6
  50:	bdf8      	pop	{r3, r4, r5, r6, r7, pc}

Disassembly of section .text.drawPixelInArea:

00000000 <drawPixelInArea>:
drawPixelInArea():
   0:	b5f0      	push	{r4, r5, r6, r7, lr}
   2:	4290      	cmp	r0, r2
   4:	4605      	mov	r5, r0
   6:	460c      	mov	r4, r1
   8:	f8bd 7014 	ldrh.w	r7, [sp, #20]
   c:	f8bd 6018 	ldrh.w	r6, [sp, #24]
  10:	d309      	bcc.n	26 <drawPixelInArea+0x26>
  12:	42b8      	cmp	r0, r7
  14:	d807      	bhi.n	26 <drawPixelInArea+0x26>
  16:	4299      	cmp	r1, r3
  18:	d305      	bcc.n	26 <drawPixelInArea+0x26>
  1a:	42b1      	cmp	r1, r6
  1c:	d803      	bhi.n	26 <drawPixelInArea+0x26>
  1e:	e8bd 40f0 	ldmia.w	sp!, {r4, r5, r6, r7, lr}
  22:	f7ff bffe 	b.w	0 <lcdDrawPixel>
  26:	bdf0      	pop	{r4, r5, r6, r7, pc}

Disassembly of section .text.drawAll:

00000000 <drawAll>:
drawAll():
   0:	f7ff bffe 	b.w	0 <lcdWriteScreenBuffer>

Disassembly of section .text.drawObject:

00000000 <drawObject>:
drawObject():
   0:	4770      	bx	lr

Disassembly of section .text.drawLine:

00000000 <drawLine>:
drawLine():
   0:	e92d 4ff7 	stmdb	sp!, {r0, r1, r2, r4, r5, r6, r7, r8, r9, sl, fp, lr}
   4:	460d      	mov	r5, r1
   6:	b289      	uxth	r1, r1
   8:	1a5f      	subs	r7, r3, r1
   a:	4604      	mov	r4, r0
   c:	b2bf      	uxth	r7, r7
   e:	b280      	uxth	r0, r0
  10:	ebc0 0b02 	rsb	fp, r0, r2
  14:	9000      	str	r0, [sp, #0]
  16:	9101      	str	r1, [sp, #4]
  18:	4616      	mov	r6, r2
  1a:	469a      	mov	sl, r3
  1c:	f7ff fffe 	bl	0 <drawLine>
  20:	f417 4f00 	tst.w	r7, #32768	; 0x8000
  24:	fa1f fb8b 	uxth.w	fp, fp
  28:	9800      	ldr	r0, [sp, #0]
  2a:	9901      	ldr	r1, [sp, #4]
  2c:	d004      	beq.n	38 <drawLine+0x38>
  2e:	427f      	negs	r7, r7
  30:	b2bf      	uxth	r7, r7
  32:	f64f 79ff 	movw	r9, #65535	; 0xffff
  36:	e001      	b.n	3c <drawLine+0x3c>
  38:	f04f 0901 	mov.w	r9, #1
  3c:	f41b 4f00 	tst.w	fp, #32768	; 0x8000
  40:	bf1d      	ittte	ne
  42:	f1cb 0b00 	rsbne	fp, fp, #0
  46:	fa1f fb8b 	uxthne.w	fp, fp
  4a:	f64f 78ff 	movwne	r8, #65535	; 0xffff
  4e:	f04f 0801 	moveq.w	r8, #1
  52:	007b      	lsls	r3, r7, #1
  54:	f64f 77fe 	movw	r7, #65534	; 0xfffe
  58:	ea03 0707 	and.w	r7, r3, r7
  5c:	ea4f 034b 	mov.w	r3, fp, lsl #1
  60:	f64f 7bfe 	movw	fp, #65534	; 0xfffe
  64:	ea03 0b0b 	and.w	fp, r3, fp
  68:	f7ff fffe 	bl	0 <lcdDrawPixel>
  6c:	fa0f f28b 	sxth.w	r2, fp
  70:	b23b      	sxth	r3, r7
  72:	429a      	cmp	r2, r3
  74:	dd1a      	ble.n	ac <drawLine+0xac>
  76:	b2bf      	uxth	r7, r7
  78:	eba7 0a62 	sub.w	sl, r7, r2, asr #1
  7c:	fa1f fa8a 	uxth.w	sl, sl
  80:	e011      	b.n	a6 <drawLine+0xa6>
  82:	f41a 4f00 	tst.w	sl, #32768	; 0x8000
  86:	d105      	bne.n	94 <drawLine+0x94>
  88:	444d      	add	r5, r9
  8a:	ebcb 0a0a 	rsb	sl, fp, sl
  8e:	b22d      	sxth	r5, r5
  90:	fa1f fa8a 	uxth.w	sl, sl
  94:	4444      	add	r4, r8
  96:	b2a0      	uxth	r0, r4
  98:	44ba      	add	sl, r7
  9a:	b2a9      	uxth	r1, r5
  9c:	b204      	sxth	r4, r0
  9e:	fa1f fa8a 	uxth.w	sl, sl
  a2:	f7ff fffe 	bl	0 <lcdDrawPixel>
  a6:	42a6      	cmp	r6, r4
  a8:	d1eb      	bne.n	82 <drawLine+0x82>
  aa:	e016      	b.n	da <drawLine+0xda>
  ac:	fa1f fb8b 	uxth.w	fp, fp
  b0:	ebab 0663 	sub.w	r6, fp, r3, asr #1
  b4:	b2b6      	uxth	r6, r6
  b6:	e00e      	b.n	d6 <drawLine+0xd6>
  b8:	f416 4f00 	tst.w	r6, #32768	; 0x8000
  bc:	d103      	bne.n	c6 <drawLine+0xc6>
  be:	4444      	add	r4, r8
  c0:	1bf6      	subs	r6, r6, r7
  c2:	b224      	sxth	r4, r4
  c4:	b2b6      	uxth	r6, r6
  c6:	444d      	add	r5, r9
  c8:	b2a9      	uxth	r1, r5
  ca:	445e      	add	r6, fp
  cc:	b2a0      	uxth	r0, r4
  ce:	b20d      	sxth	r5, r1
  d0:	b2b6      	uxth	r6, r6
  d2:	f7ff fffe 	bl	0 <lcdDrawPixel>
  d6:	45aa      	cmp	sl, r5
  d8:	d1ee      	bne.n	b8 <drawLine+0xb8>
  da:	e8bd 8ffe 	ldmia.w	sp!, {r1, r2, r3, r4, r5, r6, r7, r8, r9, sl, fp, pc}

Disassembly of section .text.drawPoly:

00000000 <drawPoly>:
drawPoly():
   0:	b5f7      	push	{r0, r1, r2, r4, r5, r6, r7, lr}
   2:	4605      	mov	r5, r0
   4:	460f      	mov	r7, r1
   6:	4616      	mov	r6, r2
   8:	2400      	movs	r4, #0
   a:	e010      	b.n	2e <drawPoly+0x2e>
   c:	f835 0014 	ldrh.w	r0, [r5, r4, lsl #1]
  10:	1c63      	adds	r3, r4, #1
  12:	3402      	adds	r4, #2
  14:	b29b      	uxth	r3, r3
  16:	b2a4      	uxth	r4, r4
  18:	f935 1013 	ldrsh.w	r1, [r5, r3, lsl #1]
  1c:	1c63      	adds	r3, r4, #1
  1e:	f935 2014 	ldrsh.w	r2, [r5, r4, lsl #1]
  22:	f935 3013 	ldrsh.w	r3, [r5, r3, lsl #1]
  26:	b200      	sxth	r0, r0
  28:	9600      	str	r6, [sp, #0]
  2a:	f7ff fffe 	bl	0 <drawPoly>
  2e:	1ebb      	subs	r3, r7, #2
  30:	429c      	cmp	r4, r3
  32:	dbeb      	blt.n	c <drawPoly+0xc>
  34:	bdfe      	pop	{r1, r2, r3, r4, r5, r6, r7, pc}

Disassembly of section .text.drawRadius:

00000000 <drawRadius>:
drawRadius():
   0:	e92d 4ff0 	stmdb	sp!, {r4, r5, r6, r7, r8, r9, sl, fp, lr}
   4:	461d      	mov	r5, r3
   6:	f1c3 0301 	rsb	r3, r3, #1
   a:	b089      	sub	sp, #36	; 0x24
   c:	b29b      	uxth	r3, r3
   e:	9304      	str	r3, [sp, #16]
  10:	f06f 0301 	mvn.w	r3, #1
  14:	436b      	muls	r3, r5
  16:	9f12      	ldr	r7, [sp, #72]	; 0x48
  18:	b29b      	uxth	r3, r3
  1a:	460e      	mov	r6, r1
  1c:	4604      	mov	r4, r0
  1e:	4690      	mov	r8, r2
  20:	9306      	str	r3, [sp, #24]
  22:	f7ff fffe 	bl	0 <drawRadius>
  26:	f417 7180 	ands.w	r1, r7, #256	; 0x100
  2a:	9107      	str	r1, [sp, #28]
  2c:	d023      	beq.n	76 <drawRadius+0x76>
  2e:	b231      	sxth	r1, r6
  30:	1b60      	subs	r0, r4, r5
  32:	192a      	adds	r2, r5, r4
  34:	460b      	mov	r3, r1
  36:	b200      	sxth	r0, r0
  38:	b212      	sxth	r2, r2
  3a:	9700      	str	r7, [sp, #0]
  3c:	f7ff fffe 	bl	0 <drawRadius>
  40:	b220      	sxth	r0, r4
  42:	1b71      	subs	r1, r6, r5
  44:	19ab      	adds	r3, r5, r6
  46:	b209      	sxth	r1, r1
  48:	4602      	mov	r2, r0
  4a:	b21b      	sxth	r3, r3
  4c:	9700      	str	r7, [sp, #0]
  4e:	f7ff fffe 	bl	0 <drawRadius>
  52:	1e73      	subs	r3, r6, #1
  54:	f104 39ff 	add.w	r9, r4, #4294967295
  58:	f106 0a01 	add.w	sl, r6, #1
  5c:	f104 0b01 	add.w	fp, r4, #1
  60:	b29b      	uxth	r3, r3
  62:	2200      	movs	r2, #0
  64:	fa1f f989 	uxth.w	r9, r9
  68:	fa1f fa8a 	uxth.w	sl, sl
  6c:	fa1f fb8b 	uxth.w	fp, fp
  70:	9303      	str	r3, [sp, #12]
  72:	9205      	str	r2, [sp, #20]
  74:	e0df      	b.n	236 <drawRadius+0x236>
  76:	19a9      	adds	r1, r5, r6
  78:	4620      	mov	r0, r4
  7a:	b289      	uxth	r1, r1
  7c:	f7ff fffe 	bl	0 <lcdDrawPixel>
  80:	1b71      	subs	r1, r6, r5
  82:	4620      	mov	r0, r4
  84:	b289      	uxth	r1, r1
  86:	f7ff fffe 	bl	0 <lcdDrawPixel>
  8a:	1928      	adds	r0, r5, r4
  8c:	4631      	mov	r1, r6
  8e:	b280      	uxth	r0, r0
  90:	f7ff fffe 	bl	0 <lcdDrawPixel>
  94:	1b60      	subs	r0, r4, r5
  96:	b280      	uxth	r0, r0
  98:	4631      	mov	r1, r6
  9a:	f7ff fffe 	bl	0 <lcdDrawPixel>
  9e:	e7d8      	b.n	52 <drawRadius+0x52>
  a0:	9b04      	ldr	r3, [sp, #16]
  a2:	f413 4f00 	tst.w	r3, #32768	; 0x8000
  a6:	d10a      	bne.n	be <drawRadius+0xbe>
  a8:	9906      	ldr	r1, [sp, #24]
  aa:	3d01      	subs	r5, #1
  ac:	1c8b      	adds	r3, r1, #2
  ae:	9904      	ldr	r1, [sp, #16]
  b0:	b29b      	uxth	r3, r3
  b2:	b29a      	uxth	r2, r3
  b4:	185b      	adds	r3, r3, r1
  b6:	b29b      	uxth	r3, r3
  b8:	b2ad      	uxth	r5, r5
  ba:	9206      	str	r2, [sp, #24]
  bc:	9304      	str	r3, [sp, #16]
  be:	9a05      	ldr	r2, [sp, #20]
  c0:	9904      	ldr	r1, [sp, #16]
  c2:	1c53      	adds	r3, r2, #1
  c4:	b29b      	uxth	r3, r3
  c6:	9305      	str	r3, [sp, #20]
  c8:	eb01 0343 	add.w	r3, r1, r3, lsl #1
  cc:	3301      	adds	r3, #1
  ce:	9a07      	ldr	r2, [sp, #28]
  d0:	b29b      	uxth	r3, r3
  d2:	9304      	str	r3, [sp, #16]
  d4:	f008 0301 	and.w	r3, r8, #1
  d8:	2a00      	cmp	r2, #0
  da:	d06a      	beq.n	1b2 <drawRadius+0x1b2>
  dc:	b1bb      	cbz	r3, 10e <drawRadius+0x10e>
  de:	1b71      	subs	r1, r6, r5
  e0:	fa0f fc84 	sxth.w	ip, r4
  e4:	b209      	sxth	r1, r1
  e6:	4660      	mov	r0, ip
  e8:	460b      	mov	r3, r1
  ea:	fa0f f289 	sxth.w	r2, r9
  ee:	f8cd c008 	str.w	ip, [sp, #8]
  f2:	9700      	str	r7, [sp, #0]
  f4:	f7ff fffe 	bl	0 <drawRadius>
  f8:	9b03      	ldr	r3, [sp, #12]
  fa:	f8dd c008 	ldr.w	ip, [sp, #8]
  fe:	b219      	sxth	r1, r3
 100:	1b62      	subs	r2, r4, r5
 102:	4660      	mov	r0, ip
 104:	b212      	sxth	r2, r2
 106:	460b      	mov	r3, r1
 108:	9700      	str	r7, [sp, #0]
 10a:	f7ff fffe 	bl	0 <drawRadius>
 10e:	f018 0f02 	tst.w	r8, #2
 112:	d017      	beq.n	144 <drawRadius+0x144>
 114:	1b71      	subs	r1, r6, r5
 116:	fa0f fc84 	sxth.w	ip, r4
 11a:	b209      	sxth	r1, r1
 11c:	4660      	mov	r0, ip
 11e:	460b      	mov	r3, r1
 120:	fa0f f28b 	sxth.w	r2, fp
 124:	f8cd c008 	str.w	ip, [sp, #8]
 128:	9700      	str	r7, [sp, #0]
 12a:	f7ff fffe 	bl	0 <drawRadius>
 12e:	9a03      	ldr	r2, [sp, #12]
 130:	f8dd c008 	ldr.w	ip, [sp, #8]
 134:	b211      	sxth	r1, r2
 136:	192a      	adds	r2, r5, r4
 138:	4660      	mov	r0, ip
 13a:	b212      	sxth	r2, r2
 13c:	460b      	mov	r3, r1
 13e:	9700      	str	r7, [sp, #0]
 140:	f7ff fffe 	bl	0 <drawRadius>
 144:	f018 0f04 	tst.w	r8, #4
 148:	d017      	beq.n	17a <drawRadius+0x17a>
 14a:	19a9      	adds	r1, r5, r6
 14c:	fa0f fc84 	sxth.w	ip, r4
 150:	b209      	sxth	r1, r1
 152:	4660      	mov	r0, ip
 154:	460b      	mov	r3, r1
 156:	fa0f f28b 	sxth.w	r2, fp
 15a:	f8cd c008 	str.w	ip, [sp, #8]
 15e:	9700      	str	r7, [sp, #0]
 160:	f7ff fffe 	bl	0 <drawRadius>
 164:	f8dd c008 	ldr.w	ip, [sp, #8]
 168:	fa0f f18a 	sxth.w	r1, sl
 16c:	192a      	adds	r2, r5, r4
 16e:	4660      	mov	r0, ip
 170:	b212      	sxth	r2, r2
 172:	460b      	mov	r3, r1
 174:	9700      	str	r7, [sp, #0]
 176:	f7ff fffe 	bl	0 <drawRadius>
 17a:	f018 0f08 	tst.w	r8, #8
 17e:	d04a      	beq.n	216 <drawRadius+0x216>
 180:	19a9      	adds	r1, r5, r6
 182:	fa0f fc84 	sxth.w	ip, r4
 186:	b209      	sxth	r1, r1
 188:	4660      	mov	r0, ip
 18a:	fa0f f289 	sxth.w	r2, r9
 18e:	460b      	mov	r3, r1
 190:	f8cd c008 	str.w	ip, [sp, #8]
 194:	9700      	str	r7, [sp, #0]
 196:	f7ff fffe 	bl	0 <drawRadius>
 19a:	f8dd c008 	ldr.w	ip, [sp, #8]
 19e:	fa0f f18a 	sxth.w	r1, sl
 1a2:	1b62      	subs	r2, r4, r5
 1a4:	4660      	mov	r0, ip
 1a6:	b212      	sxth	r2, r2
 1a8:	460b      	mov	r3, r1
 1aa:	9700      	str	r7, [sp, #0]
 1ac:	f7ff fffe 	bl	0 <drawRadius>
 1b0:	e031      	b.n	216 <drawRadius+0x216>
 1b2:	b14b      	cbz	r3, 1c8 <drawRadius+0x1c8>
 1b4:	1b71      	subs	r1, r6, r5
 1b6:	4648      	mov	r0, r9
 1b8:	b289      	uxth	r1, r1
 1ba:	f7ff fffe 	bl	0 <lcdDrawPixel>
 1be:	1b60      	subs	r0, r4, r5
 1c0:	b280      	uxth	r0, r0
 1c2:	9903      	ldr	r1, [sp, #12]
 1c4:	f7ff fffe 	bl	0 <lcdDrawPixel>
 1c8:	f018 0f02 	tst.w	r8, #2
 1cc:	d009      	beq.n	1e2 <drawRadius+0x1e2>
 1ce:	1b71      	subs	r1, r6, r5
 1d0:	4658      	mov	r0, fp
 1d2:	b289      	uxth	r1, r1
 1d4:	f7ff fffe 	bl	0 <lcdDrawPixel>
 1d8:	1928      	adds	r0, r5, r4
 1da:	b280      	uxth	r0, r0
 1dc:	9903      	ldr	r1, [sp, #12]
 1de:	f7ff fffe 	bl	0 <lcdDrawPixel>
 1e2:	f018 0f04 	tst.w	r8, #4
 1e6:	d009      	beq.n	1fc <drawRadius+0x1fc>
 1e8:	19a9      	adds	r1, r5, r6
 1ea:	4658      	mov	r0, fp
 1ec:	b289      	uxth	r1, r1
 1ee:	f7ff fffe 	bl	0 <lcdDrawPixel>
 1f2:	1928      	adds	r0, r5, r4
 1f4:	b280      	uxth	r0, r0
 1f6:	4651      	mov	r1, sl
 1f8:	f7ff fffe 	bl	0 <lcdDrawPixel>
 1fc:	f018 0f08 	tst.w	r8, #8
 200:	d009      	beq.n	216 <drawRadius+0x216>
 202:	19a9      	adds	r1, r5, r6
 204:	4648      	mov	r0, r9
 206:	b289      	uxth	r1, r1
 208:	f7ff fffe 	bl	0 <lcdDrawPixel>
 20c:	1b60      	subs	r0, r4, r5
 20e:	b280      	uxth	r0, r0
 210:	4651      	mov	r1, sl
 212:	f7ff fffe 	bl	0 <lcdDrawPixel>
 216:	9903      	ldr	r1, [sp, #12]
 218:	f109 39ff 	add.w	r9, r9, #4294967295
 21c:	1e4b      	subs	r3, r1, #1
 21e:	f10a 0a01 	add.w	sl, sl, #1
 222:	f10b 0b01 	add.w	fp, fp, #1
 226:	b29b      	uxth	r3, r3
 228:	fa1f f989 	uxth.w	r9, r9
 22c:	fa1f fa8a 	uxth.w	sl, sl
 230:	fa1f fb8b 	uxth.w	fp, fp
 234:	9303      	str	r3, [sp, #12]
 236:	9a05      	ldr	r2, [sp, #20]
 238:	42aa      	cmp	r2, r5
 23a:	f4ff af31 	bcc.w	a0 <drawRadius+0xa0>
 23e:	b009      	add	sp, #36	; 0x24
 240:	e8bd 8ff0 	ldmia.w	sp!, {r4, r5, r6, r7, r8, r9, sl, fp, pc}

Disassembly of section .text.drawRect:

00000000 <drawRect>:
drawRect():
   0:	e92d 4ff0 	stmdb	sp!, {r4, r5, r6, r7, r8, r9, sl, fp, lr}
   4:	b087      	sub	sp, #28
   6:	9c10      	ldr	r4, [sp, #64]	; 0x40
   8:	4682      	mov	sl, r0
   a:	4689      	mov	r9, r1
   c:	4690      	mov	r8, r2
   e:	461e      	mov	r6, r3
  10:	f8bd 5044 	ldrh.w	r5, [sp, #68]	; 0x44
  14:	f7ff fffe 	bl	0 <drawRect>
  18:	f414 7f80 	tst.w	r4, #256	; 0x100
  1c:	d05d      	beq.n	da <drawRect+0xda>
  1e:	fa1f fc89 	uxth.w	ip, r9
  22:	2d00      	cmp	r5, #0
  24:	d048      	beq.n	b8 <drawRect+0xb8>
  26:	f014 0fc0 	tst.w	r4, #192	; 0xc0
  2a:	d045      	beq.n	b8 <drawRect+0xb8>
  2c:	eb05 070c 	add.w	r7, r5, ip
  30:	b2bf      	uxth	r7, r7
  32:	46e3      	mov	fp, ip
  34:	e008      	b.n	48 <drawRect+0x48>
  36:	b239      	sxth	r1, r7
  38:	4650      	mov	r0, sl
  3a:	4642      	mov	r2, r8
  3c:	460b      	mov	r3, r1
  3e:	9400      	str	r4, [sp, #0]
  40:	f7ff fffe 	bl	0 <drawRect>
  44:	3701      	adds	r7, #1
  46:	b2bf      	uxth	r7, r7
  48:	1b73      	subs	r3, r6, r5
  4a:	42bb      	cmp	r3, r7
  4c:	daf3      	bge.n	36 <drawRect+0x36>
  4e:	46dc      	mov	ip, fp
  50:	2700      	movs	r7, #0
  52:	f8cd 9014 	str.w	r9, [sp, #20]
  56:	46bb      	mov	fp, r7
  58:	46e1      	mov	r9, ip
  5a:	e028      	b.n	ae <drawRect+0xae>
  5c:	eb05 020a 	add.w	r2, r5, sl
  60:	ebc5 0308 	rsb	r3, r5, r8
  64:	18fb      	adds	r3, r7, r3
  66:	1bd2      	subs	r2, r2, r7
  68:	eb0b 0109 	add.w	r1, fp, r9
  6c:	fa0f fc83 	sxth.w	ip, r3
  70:	b212      	sxth	r2, r2
  72:	b209      	sxth	r1, r1
  74:	4610      	mov	r0, r2
  76:	460b      	mov	r3, r1
  78:	9204      	str	r2, [sp, #16]
  7a:	4662      	mov	r2, ip
  7c:	f8cd c00c 	str.w	ip, [sp, #12]
  80:	9400      	str	r4, [sp, #0]
  82:	f7ff fffe 	bl	0 <drawRect>
  86:	f8dd c00c 	ldr.w	ip, [sp, #12]
  8a:	ebcb 0106 	rsb	r1, fp, r6
  8e:	b209      	sxth	r1, r1
  90:	9804      	ldr	r0, [sp, #16]
  92:	4662      	mov	r2, ip
  94:	460b      	mov	r3, r1
  96:	9400      	str	r4, [sp, #0]
  98:	f7ff fffe 	bl	0 <drawRect>
  9c:	f014 0f80 	tst.w	r4, #128	; 0x80
  a0:	d001      	beq.n	a6 <drawRect+0xa6>
  a2:	3701      	adds	r7, #1
  a4:	b2bf      	uxth	r7, r7
  a6:	f10b 0b01 	add.w	fp, fp, #1
  aa:	fa1f fb8b 	uxth.w	fp, fp
  ae:	45ab      	cmp	fp, r5
  b0:	d3d4      	bcc.n	5c <drawRect+0x5c>
  b2:	f8dd 9014 	ldr.w	r9, [sp, #20]
  b6:	e010      	b.n	da <drawRect+0xda>
  b8:	4667      	mov	r7, ip
  ba:	e00c      	b.n	d6 <drawRect+0xd6>
  bc:	b239      	sxth	r1, r7
  be:	f10a 0001 	add.w	r0, sl, #1
  c2:	f108 32ff 	add.w	r2, r8, #4294967295
  c6:	b200      	sxth	r0, r0
  c8:	b212      	sxth	r2, r2
  ca:	460b      	mov	r3, r1
  cc:	9400      	str	r4, [sp, #0]
  ce:	f7ff fffe 	bl	0 <drawRect>
  d2:	3701      	adds	r7, #1
  d4:	b2bf      	uxth	r7, r7
  d6:	42b7      	cmp	r7, r6
  d8:	dbf0      	blt.n	bc <drawRect+0xbc>
  da:	f014 0f80 	tst.w	r4, #128	; 0x80
  de:	d02d      	beq.n	13c <drawRect+0x13c>
  e0:	ebc5 0708 	rsb	r7, r5, r8
  e4:	eb05 0c09 	add.w	ip, r5, r9
  e8:	fa0f fc8c 	sxth.w	ip, ip
  ec:	b23f      	sxth	r7, r7
  ee:	4663      	mov	r3, ip
  f0:	4638      	mov	r0, r7
  f2:	4649      	mov	r1, r9
  f4:	4642      	mov	r2, r8
  f6:	ebc5 0b06 	rsb	fp, r5, r6
  fa:	f8cd c00c 	str.w	ip, [sp, #12]
  fe:	fa0f fb8b 	sxth.w	fp, fp
 102:	9400      	str	r4, [sp, #0]
 104:	f7ff fffe 	bl	0 <drawRect>
 108:	4638      	mov	r0, r7
 10a:	eb05 070a 	add.w	r7, r5, sl
 10e:	4631      	mov	r1, r6
 110:	4642      	mov	r2, r8
 112:	465b      	mov	r3, fp
 114:	b23f      	sxth	r7, r7
 116:	9400      	str	r4, [sp, #0]
 118:	f7ff fffe 	bl	0 <drawRect>
 11c:	4638      	mov	r0, r7
 11e:	4631      	mov	r1, r6
 120:	4652      	mov	r2, sl
 122:	465b      	mov	r3, fp
 124:	9400      	str	r4, [sp, #0]
 126:	f7ff fffe 	bl	0 <drawRect>
 12a:	f8dd c00c 	ldr.w	ip, [sp, #12]
 12e:	4650      	mov	r0, sl
 130:	4661      	mov	r1, ip
 132:	463a      	mov	r2, r7
 134:	464b      	mov	r3, r9
 136:	9400      	str	r4, [sp, #0]
 138:	f7ff fffe 	bl	0 <drawRect>
 13c:	f014 0f40 	tst.w	r4, #64	; 0x40
 140:	eb05 0b0a 	add.w	fp, r5, sl
 144:	d029      	beq.n	19a <drawRect+0x19a>
 146:	44a9      	add	r9, r5
 148:	fa1f fb8b 	uxth.w	fp, fp
 14c:	fa1f f989 	uxth.w	r9, r9
 150:	ebc5 0808 	rsb	r8, r5, r8
 154:	4658      	mov	r0, fp
 156:	4649      	mov	r1, r9
 158:	2201      	movs	r2, #1
 15a:	462b      	mov	r3, r5
 15c:	fa1f f888 	uxth.w	r8, r8
 160:	1b76      	subs	r6, r6, r5
 162:	b2b6      	uxth	r6, r6
 164:	9400      	str	r4, [sp, #0]
 166:	f7ff fffe 	bl	0 <drawRect>
 16a:	4640      	mov	r0, r8
 16c:	4649      	mov	r1, r9
 16e:	2202      	movs	r2, #2
 170:	462b      	mov	r3, r5
 172:	9400      	str	r4, [sp, #0]
 174:	f7ff fffe 	bl	0 <drawRect>
 178:	4658      	mov	r0, fp
 17a:	4631      	mov	r1, r6
 17c:	2208      	movs	r2, #8
 17e:	462b      	mov	r3, r5
 180:	9400      	str	r4, [sp, #0]
 182:	f7ff fffe 	bl	0 <drawRect>
 186:	4640      	mov	r0, r8
 188:	4631      	mov	r1, r6
 18a:	2204      	movs	r2, #4
 18c:	462b      	mov	r3, r5
 18e:	9410      	str	r4, [sp, #64]	; 0x40
 190:	b007      	add	sp, #28
 192:	e8bd 4ff0 	ldmia.w	sp!, {r4, r5, r6, r7, r8, r9, sl, fp, lr}
 196:	f7ff bffe 	b.w	0 <drawRect>
 19a:	ebc5 0708 	rsb	r7, r5, r8
 19e:	fa0f fb8b 	sxth.w	fp, fp
 1a2:	b23f      	sxth	r7, r7
 1a4:	4658      	mov	r0, fp
 1a6:	4649      	mov	r1, r9
 1a8:	463a      	mov	r2, r7
 1aa:	464b      	mov	r3, r9
 1ac:	44a9      	add	r9, r5
 1ae:	1b75      	subs	r5, r6, r5
 1b0:	fa0f f989 	sxth.w	r9, r9
 1b4:	b22d      	sxth	r5, r5
 1b6:	9400      	str	r4, [sp, #0]
 1b8:	f7ff fffe 	bl	0 <drawRect>
 1bc:	4658      	mov	r0, fp
 1be:	4631      	mov	r1, r6
 1c0:	463a      	mov	r2, r7
 1c2:	4633      	mov	r3, r6
 1c4:	9400      	str	r4, [sp, #0]
 1c6:	f7ff fffe 	bl	0 <drawRect>
 1ca:	4650      	mov	r0, sl
 1cc:	4649      	mov	r1, r9
 1ce:	4652      	mov	r2, sl
 1d0:	462b      	mov	r3, r5
 1d2:	9400      	str	r4, [sp, #0]
 1d4:	f7ff fffe 	bl	0 <drawRect>
 1d8:	4640      	mov	r0, r8
 1da:	4649      	mov	r1, r9
 1dc:	4642      	mov	r2, r8
 1de:	462b      	mov	r3, r5
 1e0:	9410      	str	r4, [sp, #64]	; 0x40
 1e2:	b007      	add	sp, #28
 1e4:	e8bd 4ff0 	ldmia.w	sp!, {r4, r5, r6, r7, r8, r9, sl, fp, lr}
 1e8:	f7ff bffe 	b.w	0 <drawRect>

Disassembly of section .text.drawWidget:

00000000 <drawWidget>:
drawWidget():
   0:	6903      	ldr	r3, [r0, #16]
   2:	b5f7      	push	{r0, r1, r2, r4, r5, r6, r7, lr}
   4:	f013 0f01 	tst.w	r3, #1
   8:	4604      	mov	r4, r0
   a:	d059      	beq.n	c0 <drawWidget+0xc0>
   c:	7980      	ldrb	r0, [r0, #6]
   e:	7961      	ldrb	r1, [r4, #5]
  10:	7922      	ldrb	r2, [r4, #4]
  12:	f7ff fffe 	bl	0 <drawWidget>
  16:	7a60      	ldrb	r0, [r4, #9]
  18:	7a21      	ldrb	r1, [r4, #8]
  1a:	79e2      	ldrb	r2, [r4, #7]
  1c:	f7ff fffe 	bl	0 <drawWidget>
  20:	6927      	ldr	r7, [r4, #16]
  22:	f017 0f10 	tst.w	r7, #16
  26:	d04b      	beq.n	c0 <drawWidget+0xc0>
  28:	8b20      	ldrh	r0, [r4, #24]
  2a:	8b61      	ldrh	r1, [r4, #26]
  2c:	8ba2      	ldrh	r2, [r4, #28]
  2e:	8be3      	ldrh	r3, [r4, #30]
  30:	1882      	adds	r2, r0, r2
  32:	18cb      	adds	r3, r1, r3
  34:	9700      	str	r7, [sp, #0]
  36:	b200      	sxth	r0, r0
  38:	b21b      	sxth	r3, r3
  3a:	2708      	movs	r7, #8
  3c:	b209      	sxth	r1, r1
  3e:	b212      	sxth	r2, r2
  40:	9701      	str	r7, [sp, #4]
  42:	f7ff fffe 	bl	0 <drawWidget>
  46:	6a20      	ldr	r0, [r4, #32]
  48:	7803      	ldrb	r3, [r0, #0]
  4a:	2b00      	cmp	r3, #0
  4c:	d02c      	beq.n	a8 <drawWidget+0xa8>
  4e:	6923      	ldr	r3, [r4, #16]
  50:	f413 3f80 	tst.w	r3, #65536	; 0x10000
  54:	d019      	beq.n	8a <drawWidget+0x8a>
  56:	6823      	ldr	r3, [r4, #0]
  58:	8ba6      	ldrh	r6, [r4, #28]
  5a:	89dd      	ldrh	r5, [r3, #14]
  5c:	f7ff fffe 	bl	0 <len>
  60:	fb05 6610 	mls	r6, r5, r0, r6
  64:	eb06 76d6 	add.w	r6, r6, r6, lsr #31
  68:	8ba3      	ldrh	r3, [r4, #28]
  6a:	1076      	asrs	r6, r6, #1
  6c:	6822      	ldr	r2, [r4, #0]
  6e:	b2b6      	uxth	r6, r6
  70:	42b3      	cmp	r3, r6
  72:	bf38      	it	cc
  74:	463e      	movcc	r6, r7
  76:	89d5      	ldrh	r5, [r2, #14]
  78:	8be3      	ldrh	r3, [r4, #30]
  7a:	1b5d      	subs	r5, r3, r5
  7c:	eb05 75d5 	add.w	r5, r5, r5, lsr #31
  80:	106d      	asrs	r5, r5, #1
  82:	b2ad      	uxth	r5, r5
  84:	429d      	cmp	r5, r3
  86:	bf88      	it	hi
  88:	463d      	movhi	r5, r7
  8a:	8b23      	ldrh	r3, [r4, #24]
  8c:	18f6      	adds	r6, r6, r3
  8e:	8b63      	ldrh	r3, [r4, #26]
  90:	b2b0      	uxth	r0, r6
  92:	18ed      	adds	r5, r5, r3
  94:	b2a9      	uxth	r1, r5
  96:	f7ff fffe 	bl	0 <drawWidget>
  9a:	6a21      	ldr	r1, [r4, #32]
  9c:	2003      	movs	r0, #3
  9e:	b003      	add	sp, #12
  a0:	e8bd 40f0 	ldmia.w	sp!, {r4, r5, r6, r7, lr}
  a4:	f7ff bffe 	b.w	0 <print>
  a8:	8b20      	ldrh	r0, [r4, #24]
  aa:	8b61      	ldrh	r1, [r4, #26]
  ac:	f7ff fffe 	bl	0 <drawWidget>
  b0:	4904      	ldr	r1, [pc, #16]	; (c4 <drawWidget+0xc4>)
  b2:	6962      	ldr	r2, [r4, #20]
  b4:	2003      	movs	r0, #3
  b6:	b003      	add	sp, #12
  b8:	e8bd 40f0 	ldmia.w	sp!, {r4, r5, r6, r7, lr}
  bc:	f7ff bffe 	b.w	0 <print>
  c0:	b003      	add	sp, #12
  c2:	bdf0      	pop	{r4, r5, r6, r7, pc}
  c4:	00000000 	.word	0x00000000

Disassembly of section .text.drawCircle:

00000000 <drawCircle>:
drawCircle():
   0:	b513      	push	{r0, r1, r4, lr}
   2:	4614      	mov	r4, r2
   4:	9300      	str	r3, [sp, #0]
   6:	220f      	movs	r2, #15
   8:	4623      	mov	r3, r4
   a:	f7ff fffe 	bl	0 <drawCircle>
   e:	bd1c      	pop	{r2, r3, r4, pc}

Disassembly of section .text.drawSine:

00000000 <drawSine>:
drawSine():
   0:	4770      	bx	lr
